
specMech.elf:     file format elf32-avr

Sections:
Idx Name          Size      VMA       LMA       File off  Algn
  0 .data         00000002  00802800  0000329a  0000334e  2**0
                  CONTENTS, ALLOC, LOAD, DATA
  1 .text         0000316a  00000000  00000000  000000b4  2**1
                  CONTENTS, ALLOC, LOAD, READONLY, CODE
  2 .rodata       00000130  0000716a  0000316a  0000321e  2**0
                  CONTENTS, ALLOC, LOAD, READONLY, DATA
  3 .bss          00000527  00802802  00802802  00003350  2**0
                  ALLOC
  4 .comment      0000005c  00000000  00000000  00003350  2**0
                  CONTENTS, READONLY
  5 .note.gnu.avr.deviceinfo 00000040  00000000  00000000  000033ac  2**2
                  CONTENTS, READONLY
  6 .debug_aranges 000002c0  00000000  00000000  000033f0  2**3
                  CONTENTS, READONLY, DEBUGGING
  7 .debug_info   00005bdf  00000000  00000000  000036b0  2**0
                  CONTENTS, READONLY, DEBUGGING
  8 .debug_abbrev 0000275e  00000000  00000000  0000928f  2**0
                  CONTENTS, READONLY, DEBUGGING
  9 .debug_line   00001df3  00000000  00000000  0000b9ed  2**0
                  CONTENTS, READONLY, DEBUGGING
 10 .debug_frame  000008f4  00000000  00000000  0000d7e0  2**2
                  CONTENTS, READONLY, DEBUGGING
 11 .debug_str    00001b5f  00000000  00000000  0000e0d4  2**0
                  CONTENTS, READONLY, DEBUGGING
 12 .debug_loc    000030be  00000000  00000000  0000fc33  2**0
                  CONTENTS, READONLY, DEBUGGING
 13 .debug_ranges 00000210  00000000  00000000  00012cf1  2**0
                  CONTENTS, READONLY, DEBUGGING

Disassembly of section .text:

00000000 <__vectors>:
       0:	0c 94 d1 00 	jmp	0x1a2	; 0x1a2 <__ctors_end>
       4:	0c 94 ee 00 	jmp	0x1dc	; 0x1dc <__bad_interrupt>
       8:	0c 94 ee 00 	jmp	0x1dc	; 0x1dc <__bad_interrupt>
       c:	0c 94 ee 00 	jmp	0x1dc	; 0x1dc <__bad_interrupt>
      10:	0c 94 ee 00 	jmp	0x1dc	; 0x1dc <__bad_interrupt>
      14:	0c 94 ee 00 	jmp	0x1dc	; 0x1dc <__bad_interrupt>
      18:	0c 94 ee 00 	jmp	0x1dc	; 0x1dc <__bad_interrupt>
      1c:	0c 94 ee 00 	jmp	0x1dc	; 0x1dc <__bad_interrupt>
      20:	0c 94 ee 00 	jmp	0x1dc	; 0x1dc <__bad_interrupt>
      24:	0c 94 ee 00 	jmp	0x1dc	; 0x1dc <__bad_interrupt>
      28:	0c 94 ee 00 	jmp	0x1dc	; 0x1dc <__bad_interrupt>
      2c:	0c 94 ee 00 	jmp	0x1dc	; 0x1dc <__bad_interrupt>
      30:	0c 94 ee 00 	jmp	0x1dc	; 0x1dc <__bad_interrupt>
      34:	0c 94 ee 00 	jmp	0x1dc	; 0x1dc <__bad_interrupt>
      38:	0c 94 ee 00 	jmp	0x1dc	; 0x1dc <__bad_interrupt>
      3c:	0c 94 ee 00 	jmp	0x1dc	; 0x1dc <__bad_interrupt>
      40:	0c 94 ee 00 	jmp	0x1dc	; 0x1dc <__bad_interrupt>
      44:	0c 94 86 05 	jmp	0xb0c	; 0xb0c <__vector_17>
      48:	0c 94 ba 05 	jmp	0xb74	; 0xb74 <__vector_18>
      4c:	0c 94 ee 00 	jmp	0x1dc	; 0x1dc <__bad_interrupt>
      50:	0c 94 ee 00 	jmp	0x1dc	; 0x1dc <__bad_interrupt>
      54:	0c 94 ee 00 	jmp	0x1dc	; 0x1dc <__bad_interrupt>
      58:	0c 94 ee 00 	jmp	0x1dc	; 0x1dc <__bad_interrupt>
      5c:	0c 94 ee 00 	jmp	0x1dc	; 0x1dc <__bad_interrupt>
      60:	0c 94 ee 00 	jmp	0x1dc	; 0x1dc <__bad_interrupt>
      64:	0c 94 ee 00 	jmp	0x1dc	; 0x1dc <__bad_interrupt>
      68:	0c 94 ea 05 	jmp	0xbd4	; 0xbd4 <__vector_26>
      6c:	0c 94 1f 06 	jmp	0xc3e	; 0xc3e <__vector_27>
      70:	0c 94 ee 00 	jmp	0x1dc	; 0x1dc <__bad_interrupt>
      74:	0c 94 ee 00 	jmp	0x1dc	; 0x1dc <__bad_interrupt>
      78:	0c 94 ee 00 	jmp	0x1dc	; 0x1dc <__bad_interrupt>
      7c:	0c 94 ee 00 	jmp	0x1dc	; 0x1dc <__bad_interrupt>
      80:	0c 94 ee 00 	jmp	0x1dc	; 0x1dc <__bad_interrupt>
      84:	0c 94 ee 00 	jmp	0x1dc	; 0x1dc <__bad_interrupt>
      88:	0c 94 ee 00 	jmp	0x1dc	; 0x1dc <__bad_interrupt>
      8c:	0c 94 ee 00 	jmp	0x1dc	; 0x1dc <__bad_interrupt>
      90:	0c 94 ee 00 	jmp	0x1dc	; 0x1dc <__bad_interrupt>
      94:	0c 94 4d 06 	jmp	0xc9a	; 0xc9a <__vector_37>
      98:	0c 94 82 06 	jmp	0xd04	; 0xd04 <__vector_38>
      9c:	0c 94 ee 00 	jmp	0x1dc	; 0x1dc <__bad_interrupt>

000000a0 <__trampolines_end>:
      a0:	6e 61       	ori	r22, 0x1E	; 30
      a2:	6e 00       	.word	0x006e	; ????

000000a4 <__c.2332>:
      a4:	69 6e 66 00 00 40 7a 10 f3 5a 00 a0 72 4e 18 09     inf..@z..Z..rN..
      b4:	00 10 a5 d4 e8 00 00 e8 76 48 17 00 00 e4 0b 54     ........vH.....T
      c4:	02 00 00 ca 9a 3b 00 00 00 e1 f5 05 00 00 80 96     .....;..........
      d4:	98 00 00 00 40 42 0f 00 00 00 a0 86 01 00 00 00     ....@B..........
      e4:	10 27 00 00 00 00 e8 03 00 00 00 00 64 00 00 00     .'..........d...
      f4:	00 00 0a 00 00 00 00 00 01 00 00 00 00 00 2c 76     ..............,v
     104:	d8 88 dc 67 4f 08 23 df c1 df ae 59 e1 b1 b7 96     ...gO.#....Y....
     114:	e5 e3 e4 53 c6 3a e6 51 99 76 96 e8 e6 c2 84 26     ...S.:.Q.v.....&
     124:	eb 89 8c 9b 62 ed 40 7c 6f fc ef bc 9c 9f 40 f2     ....b.@|o.....@.
     134:	ba a5 6f a5 f4 90 05 5a 2a f7 5c 93 6b 6c f9 67     ..o....Z*.\.kl.g
     144:	6d c1 1b fc e0 e4 0d 47 fe f5 20 e6 b5 00 d0 ed     m......G.. .....
     154:	90 2e 03 00 94 35 77 05 00 80 84 1e 08 00 00 20     .....5w........ 
     164:	4e 0a 00 00 00 c8 0c 33 33 33 33 0f 98 6e 12 83     N......3333..n..
     174:	11 41 ef 8d 21 14 89 3b e6 55 16 cf fe e6 db 18     .A..!..;.U......
     184:	d1 84 4b 38 1b f7 7c 1d 90 1d a4 bb e4 24 20 32     ..K8..|......$ 2
     194:	84 72 5e 22 81 00 c9 f1 24 ec a1 e5 3d 27           .r^"....$...='

000001a2 <__ctors_end>:
     1a2:	11 24       	eor	r1, r1
     1a4:	1f be       	out	0x3f, r1	; 63
     1a6:	cf ef       	ldi	r28, 0xFF	; 255
     1a8:	cd bf       	out	0x3d, r28	; 61
     1aa:	df e3       	ldi	r29, 0x3F	; 63
     1ac:	de bf       	out	0x3e, r29	; 62

000001ae <__do_copy_data>:
     1ae:	18 e2       	ldi	r17, 0x28	; 40
     1b0:	a0 e0       	ldi	r26, 0x00	; 0
     1b2:	b8 e2       	ldi	r27, 0x28	; 40
     1b4:	ea e9       	ldi	r30, 0x9A	; 154
     1b6:	f2 e3       	ldi	r31, 0x32	; 50
     1b8:	02 c0       	rjmp	.+4      	; 0x1be <__do_copy_data+0x10>
     1ba:	05 90       	lpm	r0, Z+
     1bc:	0d 92       	st	X+, r0
     1be:	a2 30       	cpi	r26, 0x02	; 2
     1c0:	b1 07       	cpc	r27, r17
     1c2:	d9 f7       	brne	.-10     	; 0x1ba <__do_copy_data+0xc>

000001c4 <__do_clear_bss>:
     1c4:	2d e2       	ldi	r18, 0x2D	; 45
     1c6:	a2 e0       	ldi	r26, 0x02	; 2
     1c8:	b8 e2       	ldi	r27, 0x28	; 40
     1ca:	01 c0       	rjmp	.+2      	; 0x1ce <.do_clear_bss_start>

000001cc <.do_clear_bss_loop>:
     1cc:	1d 92       	st	X+, r1

000001ce <.do_clear_bss_start>:
     1ce:	a9 32       	cpi	r26, 0x29	; 41
     1d0:	b2 07       	cpc	r27, r18
     1d2:	e1 f7       	brne	.-8      	; 0x1cc <.do_clear_bss_loop>
     1d4:	0e 94 b8 10 	call	0x2170	; 0x2170 <main>
     1d8:	0c 94 b3 18 	jmp	0x3166	; 0x3166 <_exit>

000001dc <__bad_interrupt>:
     1dc:	0c 94 00 00 	jmp	0	; 0x0 <__vectors>

000001e0 <init_PORTS>:
	char blanks[] = "                ";	// Does const put this in flash?

	writestr_OLED(displaynumber, blanks, 1);
	writestr_OLED(displaynumber, blanks, 2);

}
     1e0:	e0 e0       	ldi	r30, 0x00	; 0
     1e2:	f4 e0       	ldi	r31, 0x04	; 4
     1e4:	88 e0       	ldi	r24, 0x08	; 8
     1e6:	80 8b       	std	Z+16, r24	; 0x10
     1e8:	81 8b       	std	Z+17, r24	; 0x11
     1ea:	82 8b       	std	Z+18, r24	; 0x12
     1ec:	83 8b       	std	Z+19, r24	; 0x13
     1ee:	84 8b       	std	Z+20, r24	; 0x14
     1f0:	85 8b       	std	Z+21, r24	; 0x15
     1f2:	86 8b       	std	Z+22, r24	; 0x16
     1f4:	87 8b       	std	Z+23, r24	; 0x17
     1f6:	e0 e2       	ldi	r30, 0x20	; 32
     1f8:	f4 e0       	ldi	r31, 0x04	; 4
     1fa:	80 8b       	std	Z+16, r24	; 0x10
     1fc:	81 8b       	std	Z+17, r24	; 0x11
     1fe:	82 8b       	std	Z+18, r24	; 0x12
     200:	83 8b       	std	Z+19, r24	; 0x13
     202:	84 8b       	std	Z+20, r24	; 0x14
     204:	85 8b       	std	Z+21, r24	; 0x15
     206:	e0 e4       	ldi	r30, 0x40	; 64
     208:	f4 e0       	ldi	r31, 0x04	; 4
     20a:	80 8b       	std	Z+16, r24	; 0x10
     20c:	81 8b       	std	Z+17, r24	; 0x11
     20e:	82 8b       	std	Z+18, r24	; 0x12
     210:	83 8b       	std	Z+19, r24	; 0x13
     212:	84 8b       	std	Z+20, r24	; 0x14
     214:	85 8b       	std	Z+21, r24	; 0x15
     216:	86 8b       	std	Z+22, r24	; 0x16
     218:	87 8b       	std	Z+23, r24	; 0x17
     21a:	e0 e6       	ldi	r30, 0x60	; 96
     21c:	f4 e0       	ldi	r31, 0x04	; 4
     21e:	94 e0       	ldi	r25, 0x04	; 4
     220:	90 8b       	std	Z+16, r25	; 0x10
     222:	91 8b       	std	Z+17, r25	; 0x11
     224:	92 8b       	std	Z+18, r25	; 0x12
     226:	93 8b       	std	Z+19, r25	; 0x13
     228:	94 8b       	std	Z+20, r25	; 0x14
     22a:	95 8b       	std	Z+21, r25	; 0x15
     22c:	96 8b       	std	Z+22, r25	; 0x16
     22e:	97 8b       	std	Z+23, r25	; 0x17
     230:	e0 e8       	ldi	r30, 0x80	; 128
     232:	f4 e0       	ldi	r31, 0x04	; 4
     234:	80 8b       	std	Z+16, r24	; 0x10
     236:	81 8b       	std	Z+17, r24	; 0x11
     238:	82 8b       	std	Z+18, r24	; 0x12
     23a:	83 8b       	std	Z+19, r24	; 0x13
     23c:	e0 ea       	ldi	r30, 0xA0	; 160
     23e:	f4 e0       	ldi	r31, 0x04	; 4
     240:	80 8b       	std	Z+16, r24	; 0x10
     242:	81 8b       	std	Z+17, r24	; 0x11
     244:	82 8b       	std	Z+18, r24	; 0x12
     246:	83 8b       	std	Z+19, r24	; 0x13
     248:	84 8b       	std	Z+20, r24	; 0x14
     24a:	85 8b       	std	Z+21, r24	; 0x15
     24c:	86 8b       	std	Z+22, r24	; 0x16
     24e:	08 95       	ret

00000250 <init_LED>:
     250:	e0 ea       	ldi	r30, 0xA0	; 160
     252:	f4 e0       	ldi	r31, 0x04	; 4
     254:	80 e2       	ldi	r24, 0x20	; 32
     256:	85 83       	std	Z+5, r24	; 0x05
     258:	81 83       	std	Z+1, r24	; 0x01
     25a:	08 95       	ret

0000025c <init_SPECID>:
     25c:	e0 ea       	ldi	r30, 0xA0	; 160
     25e:	f4 e0       	ldi	r31, 0x04	; 4
     260:	82 89       	ldd	r24, Z+18	; 0x12
     262:	87 7f       	andi	r24, 0xF7	; 247
     264:	82 8b       	std	Z+18, r24	; 0x12
     266:	84 e0       	ldi	r24, 0x04	; 4
     268:	82 83       	std	Z+2, r24	; 0x02
     26a:	08 95       	ret

0000026c <get_specID>:
     26c:	80 91 a8 04 	lds	r24, 0x04A8	; 0x8004a8 <__TEXT_REGION_LENGTH__+0x7f44a8>
     270:	82 ff       	sbrs	r24, 2
     272:	02 c0       	rjmp	.+4      	; 0x278 <get_specID+0xc>
     274:	82 e0       	ldi	r24, 0x02	; 2
     276:	01 c0       	rjmp	.+2      	; 0x27a <get_specID+0xe>
     278:	80 e0       	ldi	r24, 0x00	; 0
     27a:	90 91 a8 04 	lds	r25, 0x04A8	; 0x8004a8 <__TEXT_REGION_LENGTH__+0x7f44a8>
     27e:	92 ff       	sbrs	r25, 2
     280:	81 e0       	ldi	r24, 0x01	; 1
     282:	08 95       	ret

00000284 <init_TWI>:
     284:	e0 ea       	ldi	r30, 0xA0	; 160
     286:	f8 e0       	ldi	r31, 0x08	; 8
     288:	8b e0       	ldi	r24, 0x0B	; 11
     28a:	86 83       	std	Z+6, r24	; 0x06
     28c:	83 81       	ldd	r24, Z+3	; 0x03
     28e:	81 60       	ori	r24, 0x01	; 1
     290:	83 83       	std	Z+3, r24	; 0x03
     292:	85 81       	ldd	r24, Z+5	; 0x05
     294:	81 60       	ori	r24, 0x01	; 1
     296:	85 83       	std	Z+5, r24	; 0x05
     298:	08 95       	ret

0000029a <read_TWI>:
     29a:	80 91 a5 08 	lds	r24, 0x08A5	; 0x8008a5 <__TEXT_REGION_LENGTH__+0x7f48a5>
     29e:	88 23       	and	r24, r24
     2a0:	34 f0       	brlt	.+12     	; 0x2ae <read_TWI+0x14>
     2a2:	e0 ea       	ldi	r30, 0xA0	; 160
     2a4:	f8 e0       	ldi	r31, 0x08	; 8
     2a6:	00 00       	nop
     2a8:	85 81       	ldd	r24, Z+5	; 0x05
     2aa:	88 23       	and	r24, r24
     2ac:	e4 f7       	brge	.-8      	; 0x2a6 <read_TWI+0xc>
     2ae:	e0 ea       	ldi	r30, 0xA0	; 160
     2b0:	f8 e0       	ldi	r31, 0x08	; 8
     2b2:	84 81       	ldd	r24, Z+4	; 0x04
     2b4:	8b 7f       	andi	r24, 0xFB	; 251
     2b6:	84 83       	std	Z+4, r24	; 0x04
     2b8:	80 85       	ldd	r24, Z+8	; 0x08
     2ba:	94 81       	ldd	r25, Z+4	; 0x04
     2bc:	92 60       	ori	r25, 0x02	; 2
     2be:	94 83       	std	Z+4, r25	; 0x04
     2c0:	08 95       	ret

000002c2 <readlast_TWI>:
     2c2:	80 91 a5 08 	lds	r24, 0x08A5	; 0x8008a5 <__TEXT_REGION_LENGTH__+0x7f48a5>
     2c6:	88 23       	and	r24, r24
     2c8:	34 f0       	brlt	.+12     	; 0x2d6 <readlast_TWI+0x14>
     2ca:	e0 ea       	ldi	r30, 0xA0	; 160
     2cc:	f8 e0       	ldi	r31, 0x08	; 8
     2ce:	00 00       	nop
     2d0:	85 81       	ldd	r24, Z+5	; 0x05
     2d2:	88 23       	and	r24, r24
     2d4:	e4 f7       	brge	.-8      	; 0x2ce <readlast_TWI+0xc>
     2d6:	e0 ea       	ldi	r30, 0xA0	; 160
     2d8:	f8 e0       	ldi	r31, 0x08	; 8
     2da:	84 81       	ldd	r24, Z+4	; 0x04
     2dc:	84 60       	ori	r24, 0x04	; 4
     2de:	84 83       	std	Z+4, r24	; 0x04
     2e0:	80 85       	ldd	r24, Z+8	; 0x08
     2e2:	08 95       	ret

000002e4 <start_TWI>:
     2e4:	61 30       	cpi	r22, 0x01	; 1
     2e6:	11 f4       	brne	.+4      	; 0x2ec <start_TWI+0x8>
     2e8:	81 60       	ori	r24, 0x01	; 1
     2ea:	01 c0       	rjmp	.+2      	; 0x2ee <start_TWI+0xa>
     2ec:	8e 7f       	andi	r24, 0xFE	; 254
     2ee:	e0 ea       	ldi	r30, 0xA0	; 160
     2f0:	f8 e0       	ldi	r31, 0x08	; 8
     2f2:	87 83       	std	Z+7, r24	; 0x07
     2f4:	85 81       	ldd	r24, Z+5	; 0x05
     2f6:	80 7c       	andi	r24, 0xC0	; 192
     2f8:	21 f4       	brne	.+8      	; 0x302 <start_TWI+0x1e>
     2fa:	00 00       	nop
     2fc:	85 81       	ldd	r24, Z+5	; 0x05
     2fe:	80 7c       	andi	r24, 0xC0	; 192
     300:	e1 f3       	breq	.-8      	; 0x2fa <start_TWI+0x16>
     302:	80 91 a5 08 	lds	r24, 0x08A5	; 0x8008a5 <__TEXT_REGION_LENGTH__+0x7f48a5>
     306:	82 fd       	sbrc	r24, 2
     308:	0b c0       	rjmp	.+22     	; 0x320 <start_TWI+0x3c>
     30a:	80 91 a5 08 	lds	r24, 0x08A5	; 0x8008a5 <__TEXT_REGION_LENGTH__+0x7f48a5>
     30e:	83 fd       	sbrc	r24, 3
     310:	09 c0       	rjmp	.+18     	; 0x324 <start_TWI+0x40>
     312:	90 91 a5 08 	lds	r25, 0x08A5	; 0x8008a5 <__TEXT_REGION_LENGTH__+0x7f48a5>
     316:	89 2f       	mov	r24, r25
     318:	80 71       	andi	r24, 0x10	; 16
     31a:	94 fd       	sbrc	r25, 4
     31c:	05 c0       	rjmp	.+10     	; 0x328 <start_TWI+0x44>
     31e:	08 95       	ret
     320:	81 e0       	ldi	r24, 0x01	; 1
     322:	08 95       	ret
     324:	82 e0       	ldi	r24, 0x02	; 2
     326:	08 95       	ret
     328:	84 e0       	ldi	r24, 0x04	; 4
     32a:	08 95       	ret

0000032c <write_TWI>:
     32c:	90 91 a5 08 	lds	r25, 0x08A5	; 0x8008a5 <__TEXT_REGION_LENGTH__+0x7f48a5>
     330:	96 fd       	sbrc	r25, 6
     332:	06 c0       	rjmp	.+12     	; 0x340 <write_TWI+0x14>
     334:	e0 ea       	ldi	r30, 0xA0	; 160
     336:	f8 e0       	ldi	r31, 0x08	; 8
     338:	00 00       	nop
     33a:	95 81       	ldd	r25, Z+5	; 0x05
     33c:	96 ff       	sbrs	r25, 6
     33e:	fc cf       	rjmp	.-8      	; 0x338 <write_TWI+0xc>
     340:	e0 ea       	ldi	r30, 0xA0	; 160
     342:	f8 e0       	ldi	r31, 0x08	; 8
     344:	80 87       	std	Z+8, r24	; 0x08
     346:	85 81       	ldd	r24, Z+5	; 0x05
     348:	86 fd       	sbrc	r24, 6
     34a:	04 c0       	rjmp	.+8      	; 0x354 <write_TWI+0x28>
     34c:	00 00       	nop
     34e:	85 81       	ldd	r24, Z+5	; 0x05
     350:	86 ff       	sbrs	r24, 6
     352:	fc cf       	rjmp	.-8      	; 0x34c <write_TWI+0x20>
     354:	90 91 a5 08 	lds	r25, 0x08A5	; 0x8008a5 <__TEXT_REGION_LENGTH__+0x7f48a5>
     358:	89 2f       	mov	r24, r25
     35a:	80 71       	andi	r24, 0x10	; 16
     35c:	94 fd       	sbrc	r25, 4
     35e:	83 e0       	ldi	r24, 0x03	; 3
     360:	08 95       	ret

00000362 <read_MCP23008>:
     362:	0f 93       	push	r16
     364:	1f 93       	push	r17
     366:	cf 93       	push	r28
     368:	df 93       	push	r29
     36a:	c8 2f       	mov	r28, r24
     36c:	d6 2f       	mov	r29, r22
     36e:	8a 01       	movw	r16, r20
     370:	60 e0       	ldi	r22, 0x00	; 0
     372:	0e 94 72 01 	call	0x2e4	; 0x2e4 <start_TWI>
     376:	81 11       	cpse	r24, r1
     378:	15 c0       	rjmp	.+42     	; 0x3a4 <read_MCP23008+0x42>
     37a:	8d 2f       	mov	r24, r29
     37c:	0e 94 96 01 	call	0x32c	; 0x32c <write_TWI>
     380:	81 11       	cpse	r24, r1
     382:	10 c0       	rjmp	.+32     	; 0x3a4 <read_MCP23008+0x42>
     384:	61 e0       	ldi	r22, 0x01	; 1
     386:	8c 2f       	mov	r24, r28
     388:	0e 94 72 01 	call	0x2e4	; 0x2e4 <start_TWI>
     38c:	c8 2f       	mov	r28, r24
     38e:	81 11       	cpse	r24, r1
     390:	09 c0       	rjmp	.+18     	; 0x3a4 <read_MCP23008+0x42>
     392:	0e 94 61 01 	call	0x2c2	; 0x2c2 <readlast_TWI>
     396:	f8 01       	movw	r30, r16
     398:	80 83       	st	Z, r24
     39a:	87 e0       	ldi	r24, 0x07	; 7
     39c:	80 93 a4 08 	sts	0x08A4, r24	; 0x8008a4 <__TEXT_REGION_LENGTH__+0x7f48a4>
     3a0:	8c 2f       	mov	r24, r28
     3a2:	00 c0       	rjmp	.+0      	; 0x3a4 <read_MCP23008+0x42>
     3a4:	df 91       	pop	r29
     3a6:	cf 91       	pop	r28
     3a8:	1f 91       	pop	r17
     3aa:	0f 91       	pop	r16
     3ac:	08 95       	ret

000003ae <write_MCP23008>:
     3ae:	cf 93       	push	r28
     3b0:	df 93       	push	r29
     3b2:	c6 2f       	mov	r28, r22
     3b4:	d4 2f       	mov	r29, r20
     3b6:	60 e0       	ldi	r22, 0x00	; 0
     3b8:	0e 94 72 01 	call	0x2e4	; 0x2e4 <start_TWI>
     3bc:	88 23       	and	r24, r24
     3be:	21 f0       	breq	.+8      	; 0x3c8 <write_MCP23008+0x1a>
     3c0:	97 e0       	ldi	r25, 0x07	; 7
     3c2:	90 93 a4 08 	sts	0x08A4, r25	; 0x8008a4 <__TEXT_REGION_LENGTH__+0x7f48a4>
     3c6:	16 c0       	rjmp	.+44     	; 0x3f4 <write_MCP23008+0x46>
     3c8:	8c 2f       	mov	r24, r28
     3ca:	0e 94 96 01 	call	0x32c	; 0x32c <write_TWI>
     3ce:	88 23       	and	r24, r24
     3d0:	21 f0       	breq	.+8      	; 0x3da <write_MCP23008+0x2c>
     3d2:	97 e0       	ldi	r25, 0x07	; 7
     3d4:	90 93 a4 08 	sts	0x08A4, r25	; 0x8008a4 <__TEXT_REGION_LENGTH__+0x7f48a4>
     3d8:	0d c0       	rjmp	.+26     	; 0x3f4 <write_MCP23008+0x46>
     3da:	8d 2f       	mov	r24, r29
     3dc:	0e 94 96 01 	call	0x32c	; 0x32c <write_TWI>
     3e0:	88 23       	and	r24, r24
     3e2:	21 f0       	breq	.+8      	; 0x3ec <write_MCP23008+0x3e>
     3e4:	97 e0       	ldi	r25, 0x07	; 7
     3e6:	90 93 a4 08 	sts	0x08A4, r25	; 0x8008a4 <__TEXT_REGION_LENGTH__+0x7f48a4>
     3ea:	04 c0       	rjmp	.+8      	; 0x3f4 <write_MCP23008+0x46>
     3ec:	87 e0       	ldi	r24, 0x07	; 7
     3ee:	80 93 a4 08 	sts	0x08A4, r24	; 0x8008a4 <__TEXT_REGION_LENGTH__+0x7f48a4>
     3f2:	80 e0       	ldi	r24, 0x00	; 0
     3f4:	df 91       	pop	r29
     3f6:	cf 91       	pop	r28
     3f8:	08 95       	ret

000003fa <init_PNEU>:
     3fa:	40 e0       	ldi	r20, 0x00	; 0
     3fc:	60 e0       	ldi	r22, 0x00	; 0
     3fe:	88 e4       	ldi	r24, 0x48	; 72
     400:	0e 94 d7 01 	call	0x3ae	; 0x3ae <write_MCP23008>
     404:	81 11       	cpse	r24, r1
     406:	05 c0       	rjmp	.+10     	; 0x412 <__LOCK_REGION_LENGTH__+0x12>
     408:	40 e0       	ldi	r20, 0x00	; 0
     40a:	6a e0       	ldi	r22, 0x0A	; 10
     40c:	88 e4       	ldi	r24, 0x48	; 72
     40e:	0e 94 d7 01 	call	0x3ae	; 0x3ae <write_MCP23008>
     412:	08 95       	ret

00000414 <set_valves>:
     414:	0f 93       	push	r16
     416:	1f 93       	push	r17
     418:	cf 93       	push	r28
     41a:	df 93       	push	r29
     41c:	1f 92       	push	r1
     41e:	cd b7       	in	r28, 0x3d	; 61
     420:	de b7       	in	r29, 0x3e	; 62
     422:	08 2f       	mov	r16, r24
     424:	16 2f       	mov	r17, r22
     426:	ae 01       	movw	r20, r28
     428:	4f 5f       	subi	r20, 0xFF	; 255
     42a:	5f 4f       	sbci	r21, 0xFF	; 255
     42c:	69 e0       	ldi	r22, 0x09	; 9
     42e:	88 e4       	ldi	r24, 0x48	; 72
     430:	0e 94 b1 01 	call	0x362	; 0x362 <read_MCP23008>
     434:	81 11       	cpse	r24, r1
     436:	07 c0       	rjmp	.+14     	; 0x446 <set_valves+0x32>
     438:	49 81       	ldd	r20, Y+1	; 0x01
     43a:	40 2b       	or	r20, r16
     43c:	41 23       	and	r20, r17
     43e:	6a e0       	ldi	r22, 0x0A	; 10
     440:	88 e4       	ldi	r24, 0x48	; 72
     442:	0e 94 d7 01 	call	0x3ae	; 0x3ae <write_MCP23008>
     446:	0f 90       	pop	r0
     448:	df 91       	pop	r29
     44a:	cf 91       	pop	r28
     44c:	1f 91       	pop	r17
     44e:	0f 91       	pop	r16
     450:	08 95       	ret

00000452 <pneu_close>:
     452:	8c 36       	cpi	r24, 0x6C	; 108
     454:	99 f0       	breq	.+38     	; 0x47c <pneu_close+0x2a>
     456:	18 f4       	brcc	.+6      	; 0x45e <pneu_close+0xc>
     458:	82 36       	cpi	r24, 0x62	; 98
     45a:	31 f0       	breq	.+12     	; 0x468 <pneu_close+0x16>
     45c:	21 c0       	rjmp	.+66     	; 0x4a0 <pneu_close+0x4e>
     45e:	82 37       	cpi	r24, 0x72	; 114
     460:	99 f0       	breq	.+38     	; 0x488 <pneu_close+0x36>
     462:	83 37       	cpi	r24, 0x73	; 115
     464:	b9 f0       	breq	.+46     	; 0x494 <pneu_close+0x42>
     466:	1c c0       	rjmp	.+56     	; 0x4a0 <pneu_close+0x4e>
     468:	6a ee       	ldi	r22, 0xEA	; 234
     46a:	84 e4       	ldi	r24, 0x44	; 68
     46c:	0e 94 0a 02 	call	0x414	; 0x414 <set_valves>
     470:	66 ee       	ldi	r22, 0xE6	; 230
     472:	88 e8       	ldi	r24, 0x88	; 136
     474:	0e 94 0a 02 	call	0x414	; 0x414 <set_valves>
     478:	80 e0       	ldi	r24, 0x00	; 0
     47a:	08 95       	ret
     47c:	6a ee       	ldi	r22, 0xEA	; 234
     47e:	84 e4       	ldi	r24, 0x44	; 68
     480:	0e 94 0a 02 	call	0x414	; 0x414 <set_valves>
     484:	80 e0       	ldi	r24, 0x00	; 0
     486:	08 95       	ret
     488:	66 ee       	ldi	r22, 0xE6	; 230
     48a:	88 e8       	ldi	r24, 0x88	; 136
     48c:	0e 94 0a 02 	call	0x414	; 0x414 <set_valves>
     490:	80 e0       	ldi	r24, 0x00	; 0
     492:	08 95       	ret
     494:	6c ee       	ldi	r22, 0xEC	; 236
     496:	82 e2       	ldi	r24, 0x22	; 34
     498:	0e 94 0a 02 	call	0x414	; 0x414 <set_valves>
     49c:	80 e0       	ldi	r24, 0x00	; 0
     49e:	08 95       	ret
     4a0:	82 e0       	ldi	r24, 0x02	; 2
     4a2:	08 95       	ret

000004a4 <pneu_open>:
     4a4:	8c 36       	cpi	r24, 0x6C	; 108
     4a6:	99 f0       	breq	.+38     	; 0x4ce <pneu_open+0x2a>
     4a8:	18 f4       	brcc	.+6      	; 0x4b0 <pneu_open+0xc>
     4aa:	82 36       	cpi	r24, 0x62	; 98
     4ac:	31 f0       	breq	.+12     	; 0x4ba <pneu_open+0x16>
     4ae:	21 c0       	rjmp	.+66     	; 0x4f2 <pneu_open+0x4e>
     4b0:	82 37       	cpi	r24, 0x72	; 114
     4b2:	99 f0       	breq	.+38     	; 0x4da <pneu_open+0x36>
     4b4:	83 37       	cpi	r24, 0x73	; 115
     4b6:	b9 f0       	breq	.+46     	; 0x4e6 <pneu_open+0x42>
     4b8:	1c c0       	rjmp	.+56     	; 0x4f2 <pneu_open+0x4e>
     4ba:	6e ea       	ldi	r22, 0xAE	; 174
     4bc:	84 e4       	ldi	r24, 0x44	; 68
     4be:	0e 94 0a 02 	call	0x414	; 0x414 <set_valves>
     4c2:	6e e6       	ldi	r22, 0x6E	; 110
     4c4:	88 e8       	ldi	r24, 0x88	; 136
     4c6:	0e 94 0a 02 	call	0x414	; 0x414 <set_valves>
     4ca:	80 e0       	ldi	r24, 0x00	; 0
     4cc:	08 95       	ret
     4ce:	6e ea       	ldi	r22, 0xAE	; 174
     4d0:	84 e4       	ldi	r24, 0x44	; 68
     4d2:	0e 94 0a 02 	call	0x414	; 0x414 <set_valves>
     4d6:	80 e0       	ldi	r24, 0x00	; 0
     4d8:	08 95       	ret
     4da:	6e e6       	ldi	r22, 0x6E	; 110
     4dc:	88 e8       	ldi	r24, 0x88	; 136
     4de:	0e 94 0a 02 	call	0x414	; 0x414 <set_valves>
     4e2:	80 e0       	ldi	r24, 0x00	; 0
     4e4:	08 95       	ret
     4e6:	6e ec       	ldi	r22, 0xCE	; 206
     4e8:	82 e2       	ldi	r24, 0x22	; 34
     4ea:	0e 94 0a 02 	call	0x414	; 0x414 <set_valves>
     4ee:	80 e0       	ldi	r24, 0x00	; 0
     4f0:	08 95       	ret
     4f2:	82 e0       	ldi	r24, 0x02	; 2
     4f4:	08 95       	ret

000004f6 <read_ADS1115>:
     4f6:	cf 92       	push	r12
     4f8:	df 92       	push	r13
     4fa:	ef 92       	push	r14
     4fc:	ff 92       	push	r15
     4fe:	0f 93       	push	r16
     500:	1f 93       	push	r17
     502:	cf 93       	push	r28
     504:	df 93       	push	r29
     506:	c8 2f       	mov	r28, r24
     508:	16 2f       	mov	r17, r22
     50a:	d4 2f       	mov	r29, r20
     50c:	02 2f       	mov	r16, r18
     50e:	60 e0       	ldi	r22, 0x00	; 0
     510:	0e 94 72 01 	call	0x2e4	; 0x2e4 <start_TWI>
     514:	88 23       	and	r24, r24
     516:	71 f0       	breq	.+28     	; 0x534 <read_ADS1115+0x3e>
     518:	97 e0       	ldi	r25, 0x07	; 7
     51a:	90 93 a4 08 	sts	0x08A4, r25	; 0x8008a4 <__TEXT_REGION_LENGTH__+0x7f48a4>
     51e:	68 2f       	mov	r22, r24
     520:	70 e0       	ldi	r23, 0x00	; 0
     522:	80 e0       	ldi	r24, 0x00	; 0
     524:	90 e0       	ldi	r25, 0x00	; 0
     526:	0e 94 b9 11 	call	0x2372	; 0x2372 <__floatunsisf>
     52a:	56 2f       	mov	r21, r22
     52c:	47 2f       	mov	r20, r23
     52e:	38 2f       	mov	r19, r24
     530:	29 2f       	mov	r18, r25
     532:	cb c0       	rjmp	.+406    	; 0x6ca <read_ADS1115+0x1d4>
     534:	81 e0       	ldi	r24, 0x01	; 1
     536:	0e 94 96 01 	call	0x32c	; 0x32c <write_TWI>
     53a:	88 23       	and	r24, r24
     53c:	71 f0       	breq	.+28     	; 0x55a <read_ADS1115+0x64>
     53e:	97 e0       	ldi	r25, 0x07	; 7
     540:	90 93 a4 08 	sts	0x08A4, r25	; 0x8008a4 <__TEXT_REGION_LENGTH__+0x7f48a4>
     544:	68 2f       	mov	r22, r24
     546:	70 e0       	ldi	r23, 0x00	; 0
     548:	80 e0       	ldi	r24, 0x00	; 0
     54a:	90 e0       	ldi	r25, 0x00	; 0
     54c:	0e 94 b9 11 	call	0x2372	; 0x2372 <__floatunsisf>
     550:	56 2f       	mov	r21, r22
     552:	47 2f       	mov	r20, r23
     554:	38 2f       	mov	r19, r24
     556:	29 2f       	mov	r18, r25
     558:	b8 c0       	rjmp	.+368    	; 0x6ca <read_ADS1115+0x1d4>
     55a:	8d 2f       	mov	r24, r29
     55c:	81 68       	ori	r24, 0x81	; 129
     55e:	81 2b       	or	r24, r17
     560:	0e 94 96 01 	call	0x32c	; 0x32c <write_TWI>
     564:	88 23       	and	r24, r24
     566:	71 f0       	breq	.+28     	; 0x584 <read_ADS1115+0x8e>
     568:	97 e0       	ldi	r25, 0x07	; 7
     56a:	90 93 a4 08 	sts	0x08A4, r25	; 0x8008a4 <__TEXT_REGION_LENGTH__+0x7f48a4>
     56e:	68 2f       	mov	r22, r24
     570:	70 e0       	ldi	r23, 0x00	; 0
     572:	80 e0       	ldi	r24, 0x00	; 0
     574:	90 e0       	ldi	r25, 0x00	; 0
     576:	0e 94 b9 11 	call	0x2372	; 0x2372 <__floatunsisf>
     57a:	56 2f       	mov	r21, r22
     57c:	47 2f       	mov	r20, r23
     57e:	38 2f       	mov	r19, r24
     580:	29 2f       	mov	r18, r25
     582:	a3 c0       	rjmp	.+326    	; 0x6ca <read_ADS1115+0x1d4>
     584:	80 2f       	mov	r24, r16
     586:	0e 94 96 01 	call	0x32c	; 0x32c <write_TWI>
     58a:	88 23       	and	r24, r24
     58c:	71 f0       	breq	.+28     	; 0x5aa <read_ADS1115+0xb4>
     58e:	97 e0       	ldi	r25, 0x07	; 7
     590:	90 93 a4 08 	sts	0x08A4, r25	; 0x8008a4 <__TEXT_REGION_LENGTH__+0x7f48a4>
     594:	68 2f       	mov	r22, r24
     596:	70 e0       	ldi	r23, 0x00	; 0
     598:	80 e0       	ldi	r24, 0x00	; 0
     59a:	90 e0       	ldi	r25, 0x00	; 0
     59c:	0e 94 b9 11 	call	0x2372	; 0x2372 <__floatunsisf>
     5a0:	56 2f       	mov	r21, r22
     5a2:	47 2f       	mov	r20, r23
     5a4:	38 2f       	mov	r19, r24
     5a6:	29 2f       	mov	r18, r25
     5a8:	90 c0       	rjmp	.+288    	; 0x6ca <read_ADS1115+0x1d4>
     5aa:	87 e0       	ldi	r24, 0x07	; 7
     5ac:	80 93 a4 08 	sts	0x08A4, r24	; 0x8008a4 <__TEXT_REGION_LENGTH__+0x7f48a4>
     5b0:	8c e1       	ldi	r24, 0x1C	; 28
     5b2:	8a 95       	dec	r24
     5b4:	f1 f7       	brne	.-4      	; 0x5b2 <read_ADS1115+0xbc>
     5b6:	61 e0       	ldi	r22, 0x01	; 1
     5b8:	8c 2f       	mov	r24, r28
     5ba:	0e 94 72 01 	call	0x2e4	; 0x2e4 <start_TWI>
     5be:	0e 94 61 01 	call	0x2c2	; 0x2c2 <readlast_TWI>
     5c2:	88 23       	and	r24, r24
     5c4:	c4 f7       	brge	.-16     	; 0x5b6 <read_ADS1115+0xc0>
     5c6:	0f 2e       	mov	r0, r31
     5c8:	f0 ea       	ldi	r31, 0xA0	; 160
     5ca:	ef 2e       	mov	r14, r31
     5cc:	f8 e0       	ldi	r31, 0x08	; 8
     5ce:	ff 2e       	mov	r15, r31
     5d0:	f0 2d       	mov	r31, r0
     5d2:	d7 e0       	ldi	r29, 0x07	; 7
     5d4:	f7 01       	movw	r30, r14
     5d6:	d4 83       	std	Z+4, r29	; 0x04
     5d8:	60 e0       	ldi	r22, 0x00	; 0
     5da:	8c 2f       	mov	r24, r28
     5dc:	0e 94 72 01 	call	0x2e4	; 0x2e4 <start_TWI>
     5e0:	80 e0       	ldi	r24, 0x00	; 0
     5e2:	0e 94 96 01 	call	0x32c	; 0x32c <write_TWI>
     5e6:	61 e0       	ldi	r22, 0x01	; 1
     5e8:	8c 2f       	mov	r24, r28
     5ea:	0e 94 72 01 	call	0x2e4	; 0x2e4 <start_TWI>
     5ee:	0e 94 4d 01 	call	0x29a	; 0x29a <read_TWI>
     5f2:	c8 2f       	mov	r28, r24
     5f4:	0e 94 61 01 	call	0x2c2	; 0x2c2 <readlast_TWI>
     5f8:	f7 01       	movw	r30, r14
     5fa:	d4 83       	std	Z+4, r29	; 0x04
     5fc:	6c 2f       	mov	r22, r28
     5fe:	70 e0       	ldi	r23, 0x00	; 0
     600:	76 2f       	mov	r23, r22
     602:	66 27       	eor	r22, r22
     604:	68 2b       	or	r22, r24
     606:	14 30       	cpi	r17, 0x04	; 4
     608:	19 f1       	breq	.+70     	; 0x650 <read_ADS1115+0x15a>
     60a:	28 f4       	brcc	.+10     	; 0x616 <read_ADS1115+0x120>
     60c:	11 23       	and	r17, r17
     60e:	b1 f1       	breq	.+108    	; 0x67c <read_ADS1115+0x186>
     610:	12 30       	cpi	r17, 0x02	; 2
     612:	49 f1       	breq	.+82     	; 0x666 <read_ADS1115+0x170>
     614:	3e c0       	rjmp	.+124    	; 0x692 <read_ADS1115+0x19c>
     616:	18 30       	cpi	r17, 0x08	; 8
     618:	29 f0       	breq	.+10     	; 0x624 <read_ADS1115+0x12e>
     61a:	1a 30       	cpi	r17, 0x0A	; 10
     61c:	f1 f1       	breq	.+124    	; 0x69a <read_ADS1115+0x1a4>
     61e:	16 30       	cpi	r17, 0x06	; 6
     620:	c1 f5       	brne	.+112    	; 0x692 <read_ADS1115+0x19c>
     622:	0b c0       	rjmp	.+22     	; 0x63a <read_ADS1115+0x144>
     624:	0f 2e       	mov	r0, r31
     626:	f1 e7       	ldi	r31, 0x71	; 113
     628:	cf 2e       	mov	r12, r31
     62a:	f3 e1       	ldi	r31, 0x13	; 19
     62c:	df 2e       	mov	r13, r31
     62e:	f3 e8       	ldi	r31, 0x83	; 131
     630:	ef 2e       	mov	r14, r31
     632:	f7 e3       	ldi	r31, 0x37	; 55
     634:	ff 2e       	mov	r15, r31
     636:	f0 2d       	mov	r31, r0
     638:	3a c0       	rjmp	.+116    	; 0x6ae <read_ADS1115+0x1b8>
     63a:	0f 2e       	mov	r0, r31
     63c:	f4 e7       	ldi	r31, 0x74	; 116
     63e:	cf 2e       	mov	r12, r31
     640:	f3 e1       	ldi	r31, 0x13	; 19
     642:	df 2e       	mov	r13, r31
     644:	f3 e0       	ldi	r31, 0x03	; 3
     646:	ef 2e       	mov	r14, r31
     648:	f8 e3       	ldi	r31, 0x38	; 56
     64a:	ff 2e       	mov	r15, r31
     64c:	f0 2d       	mov	r31, r0
     64e:	2f c0       	rjmp	.+94     	; 0x6ae <read_ADS1115+0x1b8>
     650:	0f 2e       	mov	r0, r31
     652:	f2 e1       	ldi	r31, 0x12	; 18
     654:	cf 2e       	mov	r12, r31
     656:	f3 e1       	ldi	r31, 0x13	; 19
     658:	df 2e       	mov	r13, r31
     65a:	f3 e8       	ldi	r31, 0x83	; 131
     65c:	ef 2e       	mov	r14, r31
     65e:	f8 e3       	ldi	r31, 0x38	; 56
     660:	ff 2e       	mov	r15, r31
     662:	f0 2d       	mov	r31, r0
     664:	24 c0       	rjmp	.+72     	; 0x6ae <read_ADS1115+0x1b8>
     666:	0f 2e       	mov	r0, r31
     668:	f4 e7       	ldi	r31, 0x74	; 116
     66a:	cf 2e       	mov	r12, r31
     66c:	f3 e1       	ldi	r31, 0x13	; 19
     66e:	df 2e       	mov	r13, r31
     670:	f3 e0       	ldi	r31, 0x03	; 3
     672:	ef 2e       	mov	r14, r31
     674:	f9 e3       	ldi	r31, 0x39	; 57
     676:	ff 2e       	mov	r15, r31
     678:	f0 2d       	mov	r31, r0
     67a:	19 c0       	rjmp	.+50     	; 0x6ae <read_ADS1115+0x1b8>
     67c:	0f 2e       	mov	r0, r31
     67e:	fe e2       	ldi	r31, 0x2E	; 46
     680:	cf 2e       	mov	r12, r31
     682:	fd e9       	ldi	r31, 0x9D	; 157
     684:	df 2e       	mov	r13, r31
     686:	f4 e4       	ldi	r31, 0x44	; 68
     688:	ef 2e       	mov	r14, r31
     68a:	f9 e3       	ldi	r31, 0x39	; 57
     68c:	ff 2e       	mov	r15, r31
     68e:	f0 2d       	mov	r31, r0
     690:	0e c0       	rjmp	.+28     	; 0x6ae <read_ADS1115+0x1b8>
     692:	c1 2c       	mov	r12, r1
     694:	d1 2c       	mov	r13, r1
     696:	76 01       	movw	r14, r12
     698:	0a c0       	rjmp	.+20     	; 0x6ae <read_ADS1115+0x1b8>
     69a:	0f 2e       	mov	r0, r31
     69c:	f4 e7       	ldi	r31, 0x74	; 116
     69e:	cf 2e       	mov	r12, r31
     6a0:	f3 e1       	ldi	r31, 0x13	; 19
     6a2:	df 2e       	mov	r13, r31
     6a4:	f3 e0       	ldi	r31, 0x03	; 3
     6a6:	ef 2e       	mov	r14, r31
     6a8:	f7 e3       	ldi	r31, 0x37	; 55
     6aa:	ff 2e       	mov	r15, r31
     6ac:	f0 2d       	mov	r31, r0
     6ae:	07 2e       	mov	r0, r23
     6b0:	00 0c       	add	r0, r0
     6b2:	88 0b       	sbc	r24, r24
     6b4:	99 0b       	sbc	r25, r25
     6b6:	0e 94 bb 11 	call	0x2376	; 0x2376 <__floatsisf>
     6ba:	a7 01       	movw	r20, r14
     6bc:	96 01       	movw	r18, r12
     6be:	0e 94 70 12 	call	0x24e0	; 0x24e0 <__mulsf3>
     6c2:	56 2f       	mov	r21, r22
     6c4:	47 2f       	mov	r20, r23
     6c6:	38 2f       	mov	r19, r24
     6c8:	29 2f       	mov	r18, r25
     6ca:	65 2f       	mov	r22, r21
     6cc:	74 2f       	mov	r23, r20
     6ce:	83 2f       	mov	r24, r19
     6d0:	92 2f       	mov	r25, r18
     6d2:	df 91       	pop	r29
     6d4:	cf 91       	pop	r28
     6d6:	1f 91       	pop	r17
     6d8:	0f 91       	pop	r16
     6da:	ff 90       	pop	r15
     6dc:	ef 90       	pop	r14
     6de:	df 90       	pop	r13
     6e0:	cf 90       	pop	r12
     6e2:	08 95       	ret

000006e4 <read_AD590>:
     6e4:	cf 92       	push	r12
     6e6:	df 92       	push	r13
     6e8:	ef 92       	push	r14
     6ea:	ff 92       	push	r15
     6ec:	cf 93       	push	r28
     6ee:	81 30       	cpi	r24, 0x01	; 1
     6f0:	21 f0       	breq	.+8      	; 0x6fa <read_AD590+0x16>
     6f2:	90 f0       	brcs	.+36     	; 0x718 <read_AD590+0x34>
     6f4:	82 30       	cpi	r24, 0x02	; 2
     6f6:	31 f0       	breq	.+12     	; 0x704 <read_AD590+0x20>
     6f8:	0a c0       	rjmp	.+20     	; 0x70e <read_AD590+0x2a>
     6fa:	c1 2c       	mov	r12, r1
     6fc:	d1 2c       	mov	r13, r1
     6fe:	76 01       	movw	r14, r12
     700:	c4 e0       	ldi	r28, 0x04	; 4
     702:	14 c0       	rjmp	.+40     	; 0x72c <read_AD590+0x48>
     704:	c1 2c       	mov	r12, r1
     706:	d1 2c       	mov	r13, r1
     708:	76 01       	movw	r14, r12
     70a:	c0 e1       	ldi	r28, 0x10	; 16
     70c:	0f c0       	rjmp	.+30     	; 0x72c <read_AD590+0x48>
     70e:	c1 2c       	mov	r12, r1
     710:	d1 2c       	mov	r13, r1
     712:	76 01       	movw	r14, r12
     714:	c0 e0       	ldi	r28, 0x00	; 0
     716:	0a c0       	rjmp	.+20     	; 0x72c <read_AD590+0x48>
     718:	0f 2e       	mov	r0, r31
     71a:	f3 e3       	ldi	r31, 0x33	; 51
     71c:	cf 2e       	mov	r12, r31
     71e:	dc 2c       	mov	r13, r12
     720:	f3 ef       	ldi	r31, 0xF3	; 243
     722:	ef 2e       	mov	r14, r31
     724:	f0 e4       	ldi	r31, 0x40	; 64
     726:	ff 2e       	mov	r15, r31
     728:	f0 2d       	mov	r31, r0
     72a:	c1 e0       	ldi	r28, 0x01	; 1
     72c:	40 e0       	ldi	r20, 0x00	; 0
     72e:	66 e0       	ldi	r22, 0x06	; 6
     730:	8e e4       	ldi	r24, 0x4E	; 78
     732:	0e 94 d7 01 	call	0x3ae	; 0x3ae <write_MCP23008>
     736:	4c 2f       	mov	r20, r28
     738:	40 95       	com	r20
     73a:	60 e0       	ldi	r22, 0x00	; 0
     73c:	8e e4       	ldi	r24, 0x4E	; 78
     73e:	0e 94 d7 01 	call	0x3ae	; 0x3ae <write_MCP23008>
     742:	4c 2f       	mov	r20, r28
     744:	6a e0       	ldi	r22, 0x0A	; 10
     746:	8e e4       	ldi	r24, 0x4E	; 78
     748:	0e 94 d7 01 	call	0x3ae	; 0x3ae <write_MCP23008>
     74c:	86 e1       	ldi	r24, 0x16	; 22
     74e:	8a 95       	dec	r24
     750:	f1 f7       	brne	.-4      	; 0x74e <read_AD590+0x6a>
     752:	00 00       	nop
     754:	20 e8       	ldi	r18, 0x80	; 128
     756:	40 e7       	ldi	r20, 0x70	; 112
     758:	68 e0       	ldi	r22, 0x08	; 8
     75a:	80 e9       	ldi	r24, 0x90	; 144
     75c:	0e 94 7b 02 	call	0x4f6	; 0x4f6 <read_ADS1115>
     760:	20 e0       	ldi	r18, 0x00	; 0
     762:	30 e0       	ldi	r19, 0x00	; 0
     764:	4a e7       	ldi	r20, 0x7A	; 122
     766:	54 e4       	ldi	r21, 0x44	; 68
     768:	0e 94 70 12 	call	0x24e0	; 0x24e0 <__mulsf3>
     76c:	23 e3       	ldi	r18, 0x33	; 51
     76e:	33 e9       	ldi	r19, 0x93	; 147
     770:	48 e8       	ldi	r20, 0x88	; 136
     772:	53 e4       	ldi	r21, 0x43	; 67
     774:	0e 94 d5 10 	call	0x21aa	; 0x21aa <__subsf3>
     778:	a7 01       	movw	r20, r14
     77a:	96 01       	movw	r18, r12
     77c:	0e 94 d6 10 	call	0x21ac	; 0x21ac <__addsf3>
     780:	cf 91       	pop	r28
     782:	ff 90       	pop	r15
     784:	ef 90       	pop	r14
     786:	df 90       	pop	r13
     788:	cf 90       	pop	r12
     78a:	08 95       	ret

0000078c <read_MCP9808>:
     78c:	cf 92       	push	r12
     78e:	df 92       	push	r13
     790:	ef 92       	push	r14
     792:	ff 92       	push	r15
     794:	cf 93       	push	r28
     796:	df 93       	push	r29
     798:	60 e0       	ldi	r22, 0x00	; 0
     79a:	80 e3       	ldi	r24, 0x30	; 48
     79c:	0e 94 72 01 	call	0x2e4	; 0x2e4 <start_TWI>
     7a0:	85 e0       	ldi	r24, 0x05	; 5
     7a2:	0e 94 96 01 	call	0x32c	; 0x32c <write_TWI>
     7a6:	61 e0       	ldi	r22, 0x01	; 1
     7a8:	80 e3       	ldi	r24, 0x30	; 48
     7aa:	0e 94 72 01 	call	0x2e4	; 0x2e4 <start_TWI>
     7ae:	0e 94 4d 01 	call	0x29a	; 0x29a <read_TWI>
     7b2:	d8 2f       	mov	r29, r24
     7b4:	0e 94 61 01 	call	0x2c2	; 0x2c2 <readlast_TWI>
     7b8:	c8 2f       	mov	r28, r24
     7ba:	87 e0       	ldi	r24, 0x07	; 7
     7bc:	80 93 a4 08 	sts	0x08A4, r24	; 0x8008a4 <__TEXT_REGION_LENGTH__+0x7f48a4>
     7c0:	6d 2f       	mov	r22, r29
     7c2:	6f 70       	andi	r22, 0x0F	; 15
     7c4:	70 e0       	ldi	r23, 0x00	; 0
     7c6:	80 e0       	ldi	r24, 0x00	; 0
     7c8:	90 e0       	ldi	r25, 0x00	; 0
     7ca:	0e 94 b9 11 	call	0x2372	; 0x2372 <__floatunsisf>
     7ce:	20 e0       	ldi	r18, 0x00	; 0
     7d0:	30 e0       	ldi	r19, 0x00	; 0
     7d2:	40 e8       	ldi	r20, 0x80	; 128
     7d4:	51 e4       	ldi	r21, 0x41	; 65
     7d6:	0e 94 70 12 	call	0x24e0	; 0x24e0 <__mulsf3>
     7da:	6b 01       	movw	r12, r22
     7dc:	7c 01       	movw	r14, r24
     7de:	6c 2f       	mov	r22, r28
     7e0:	70 e0       	ldi	r23, 0x00	; 0
     7e2:	80 e0       	ldi	r24, 0x00	; 0
     7e4:	90 e0       	ldi	r25, 0x00	; 0
     7e6:	0e 94 b9 11 	call	0x2372	; 0x2372 <__floatunsisf>
     7ea:	20 e0       	ldi	r18, 0x00	; 0
     7ec:	30 e0       	ldi	r19, 0x00	; 0
     7ee:	40 e8       	ldi	r20, 0x80	; 128
     7f0:	5d e3       	ldi	r21, 0x3D	; 61
     7f2:	0e 94 70 12 	call	0x24e0	; 0x24e0 <__mulsf3>
     7f6:	9b 01       	movw	r18, r22
     7f8:	ac 01       	movw	r20, r24
     7fa:	c7 01       	movw	r24, r14
     7fc:	b6 01       	movw	r22, r12
     7fe:	0e 94 d6 10 	call	0x21ac	; 0x21ac <__addsf3>
     802:	d4 ff       	sbrs	r29, 4
     804:	08 c0       	rjmp	.+16     	; 0x816 <read_MCP9808+0x8a>
     806:	9b 01       	movw	r18, r22
     808:	ac 01       	movw	r20, r24
     80a:	60 e0       	ldi	r22, 0x00	; 0
     80c:	70 e0       	ldi	r23, 0x00	; 0
     80e:	80 e8       	ldi	r24, 0x80	; 128
     810:	93 e4       	ldi	r25, 0x43	; 67
     812:	0e 94 d5 10 	call	0x21aa	; 0x21aa <__subsf3>
     816:	df 91       	pop	r29
     818:	cf 91       	pop	r28
     81a:	ff 90       	pop	r15
     81c:	ef 90       	pop	r14
     81e:	df 90       	pop	r13
     820:	cf 90       	pop	r12
     822:	08 95       	ret

00000824 <get_humidity>:
     824:	8f 92       	push	r8
     826:	9f 92       	push	r9
     828:	af 92       	push	r10
     82a:	bf 92       	push	r11
     82c:	cf 92       	push	r12
     82e:	df 92       	push	r13
     830:	ef 92       	push	r14
     832:	ff 92       	push	r15
     834:	81 30       	cpi	r24, 0x01	; 1
     836:	59 f0       	breq	.+22     	; 0x84e <get_humidity+0x2a>
     838:	18 f0       	brcs	.+6      	; 0x840 <get_humidity+0x1c>
     83a:	82 30       	cpi	r24, 0x02	; 2
     83c:	79 f0       	breq	.+30     	; 0x85c <get_humidity+0x38>
     83e:	15 c0       	rjmp	.+42     	; 0x86a <get_humidity+0x46>
     840:	80 e0       	ldi	r24, 0x00	; 0
     842:	0e 94 72 03 	call	0x6e4	; 0x6e4 <read_AD590>
     846:	4b 01       	movw	r8, r22
     848:	5c 01       	movw	r10, r24
     84a:	40 e4       	ldi	r20, 0x40	; 64
     84c:	17 c0       	rjmp	.+46     	; 0x87c <get_humidity+0x58>
     84e:	81 e0       	ldi	r24, 0x01	; 1
     850:	0e 94 72 03 	call	0x6e4	; 0x6e4 <read_AD590>
     854:	4b 01       	movw	r8, r22
     856:	5c 01       	movw	r10, r24
     858:	40 e5       	ldi	r20, 0x50	; 80
     85a:	10 c0       	rjmp	.+32     	; 0x87c <get_humidity+0x58>
     85c:	82 e0       	ldi	r24, 0x02	; 2
     85e:	0e 94 72 03 	call	0x6e4	; 0x6e4 <read_AD590>
     862:	4b 01       	movw	r8, r22
     864:	5c 01       	movw	r10, r24
     866:	40 e6       	ldi	r20, 0x60	; 96
     868:	09 c0       	rjmp	.+18     	; 0x87c <get_humidity+0x58>
     86a:	0f 2e       	mov	r0, r31
     86c:	81 2c       	mov	r8, r1
     86e:	91 2c       	mov	r9, r1
     870:	f0 ea       	ldi	r31, 0xA0	; 160
     872:	af 2e       	mov	r10, r31
     874:	f1 e4       	ldi	r31, 0x41	; 65
     876:	bf 2e       	mov	r11, r31
     878:	f0 2d       	mov	r31, r0
     87a:	40 e5       	ldi	r20, 0x50	; 80
     87c:	20 e8       	ldi	r18, 0x80	; 128
     87e:	60 e0       	ldi	r22, 0x00	; 0
     880:	80 e9       	ldi	r24, 0x90	; 144
     882:	0e 94 7b 02 	call	0x4f6	; 0x4f6 <read_ADS1115>
     886:	20 e0       	ldi	r18, 0x00	; 0
     888:	30 e0       	ldi	r19, 0x00	; 0
     88a:	40 ea       	ldi	r20, 0xA0	; 160
     88c:	50 e4       	ldi	r21, 0x40	; 64
     88e:	0e 94 47 11 	call	0x228e	; 0x228e <__divsf3>
     892:	2a e0       	ldi	r18, 0x0A	; 10
     894:	37 ed       	ldi	r19, 0xD7	; 215
     896:	43 e2       	ldi	r20, 0x23	; 35
     898:	5e e3       	ldi	r21, 0x3E	; 62
     89a:	0e 94 d5 10 	call	0x21aa	; 0x21aa <__subsf3>
     89e:	2f e5       	ldi	r18, 0x5F	; 95
     8a0:	39 e2       	ldi	r19, 0x29	; 41
     8a2:	4b ec       	ldi	r20, 0xCB	; 203
     8a4:	5b e3       	ldi	r21, 0x3B	; 59
     8a6:	0e 94 47 11 	call	0x228e	; 0x228e <__divsf3>
     8aa:	6b 01       	movw	r12, r22
     8ac:	7c 01       	movw	r14, r24
     8ae:	29 ec       	ldi	r18, 0xC9	; 201
     8b0:	3e e8       	ldi	r19, 0x8E	; 142
     8b2:	4d e0       	ldi	r20, 0x0D	; 13
     8b4:	5b e3       	ldi	r21, 0x3B	; 59
     8b6:	c5 01       	movw	r24, r10
     8b8:	b4 01       	movw	r22, r8
     8ba:	0e 94 70 12 	call	0x24e0	; 0x24e0 <__mulsf3>
     8be:	9b 01       	movw	r18, r22
     8c0:	ac 01       	movw	r20, r24
     8c2:	62 e2       	ldi	r22, 0x22	; 34
     8c4:	7d ef       	ldi	r23, 0xFD	; 253
     8c6:	86 e8       	ldi	r24, 0x86	; 134
     8c8:	9f e3       	ldi	r25, 0x3F	; 63
     8ca:	0e 94 d5 10 	call	0x21aa	; 0x21aa <__subsf3>
     8ce:	9b 01       	movw	r18, r22
     8d0:	ac 01       	movw	r20, r24
     8d2:	c7 01       	movw	r24, r14
     8d4:	b6 01       	movw	r22, r12
     8d6:	0e 94 47 11 	call	0x228e	; 0x228e <__divsf3>
     8da:	ff 90       	pop	r15
     8dc:	ef 90       	pop	r14
     8de:	df 90       	pop	r13
     8e0:	cf 90       	pop	r12
     8e2:	bf 90       	pop	r11
     8e4:	af 90       	pop	r10
     8e6:	9f 90       	pop	r9
     8e8:	8f 90       	pop	r8
     8ea:	08 95       	ret

000008ec <read_ionpump>:
     8ec:	cf 92       	push	r12
     8ee:	df 92       	push	r13
     8f0:	ef 92       	push	r14
     8f2:	ff 92       	push	r15
     8f4:	81 30       	cpi	r24, 0x01	; 1
     8f6:	21 f0       	breq	.+8      	; 0x900 <read_ionpump+0x14>
     8f8:	82 30       	cpi	r24, 0x02	; 2
     8fa:	79 f5       	brne	.+94     	; 0x95a <read_ionpump+0x6e>
     8fc:	40 e3       	ldi	r20, 0x30	; 48
     8fe:	01 c0       	rjmp	.+2      	; 0x902 <read_ionpump+0x16>
     900:	40 e0       	ldi	r20, 0x00	; 0
     902:	20 e8       	ldi	r18, 0x80	; 128
     904:	62 e0       	ldi	r22, 0x02	; 2
     906:	82 e9       	ldi	r24, 0x92	; 146
     908:	0e 94 7b 02 	call	0x4f6	; 0x4f6 <read_ADS1115>
     90c:	6b 01       	movw	r12, r22
     90e:	7c 01       	movw	r14, r24
     910:	20 e0       	ldi	r18, 0x00	; 0
     912:	30 e0       	ldi	r19, 0x00	; 0
     914:	40 e0       	ldi	r20, 0x00	; 0
     916:	5f e3       	ldi	r21, 0x3F	; 63
     918:	0e 94 42 11 	call	0x2284	; 0x2284 <__cmpsf2>
     91c:	88 23       	and	r24, r24
     91e:	14 f1       	brlt	.+68     	; 0x964 <read_ionpump+0x78>
     920:	20 e0       	ldi	r18, 0x00	; 0
     922:	30 e0       	ldi	r19, 0x00	; 0
     924:	40 e0       	ldi	r20, 0x00	; 0
     926:	50 e4       	ldi	r21, 0x40	; 64
     928:	c7 01       	movw	r24, r14
     92a:	b6 01       	movw	r22, r12
     92c:	0e 94 6b 12 	call	0x24d6	; 0x24d6 <__gesf2>
     930:	18 16       	cp	r1, r24
     932:	ec f0       	brlt	.+58     	; 0x96e <read_ionpump+0x82>
     934:	26 ed       	ldi	r18, 0xD6	; 214
     936:	36 e5       	ldi	r19, 0x56	; 86
     938:	40 e0       	ldi	r20, 0x00	; 0
     93a:	50 e4       	ldi	r21, 0x40	; 64
     93c:	c7 01       	movw	r24, r14
     93e:	b6 01       	movw	r22, r12
     940:	0e 94 70 12 	call	0x24e0	; 0x24e0 <__mulsf3>
     944:	2e e6       	ldi	r18, 0x6E	; 110
     946:	33 ea       	ldi	r19, 0xA3	; 163
     948:	4b ed       	ldi	r20, 0xDB	; 219
     94a:	50 e4       	ldi	r21, 0x40	; 64
     94c:	0e 94 d5 10 	call	0x21aa	; 0x21aa <__subsf3>
     950:	56 2f       	mov	r21, r22
     952:	47 2f       	mov	r20, r23
     954:	38 2f       	mov	r19, r24
     956:	29 2f       	mov	r18, r25
     958:	0e c0       	rjmp	.+28     	; 0x976 <read_ionpump+0x8a>
     95a:	5a e9       	ldi	r21, 0x9A	; 154
     95c:	49 ef       	ldi	r20, 0xF9	; 249
     95e:	39 e7       	ldi	r19, 0x79	; 121
     960:	24 ec       	ldi	r18, 0xC4	; 196
     962:	09 c0       	rjmp	.+18     	; 0x976 <read_ionpump+0x8a>
     964:	5a e9       	ldi	r21, 0x9A	; 154
     966:	49 ef       	ldi	r20, 0xF9	; 249
     968:	39 e7       	ldi	r19, 0x79	; 121
     96a:	24 ec       	ldi	r18, 0xC4	; 196
     96c:	04 c0       	rjmp	.+8      	; 0x976 <read_ionpump+0x8a>
     96e:	5a e9       	ldi	r21, 0x9A	; 154
     970:	49 ef       	ldi	r20, 0xF9	; 249
     972:	39 e7       	ldi	r19, 0x79	; 121
     974:	24 ec       	ldi	r18, 0xC4	; 196
     976:	65 2f       	mov	r22, r21
     978:	74 2f       	mov	r23, r20
     97a:	83 2f       	mov	r24, r19
     97c:	92 2f       	mov	r25, r18
     97e:	ff 90       	pop	r15
     980:	ef 90       	pop	r14
     982:	df 90       	pop	r13
     984:	cf 90       	pop	r12
     986:	08 95       	ret

00000988 <init_USART>:
     988:	e0 e0       	ldi	r30, 0x00	; 0
     98a:	f4 e0       	ldi	r31, 0x04	; 4
     98c:	81 e0       	ldi	r24, 0x01	; 1
     98e:	85 83       	std	Z+5, r24	; 0x05
     990:	81 83       	std	Z+1, r24	; 0x01
     992:	e0 e0       	ldi	r30, 0x00	; 0
     994:	f8 e0       	ldi	r31, 0x08	; 8
     996:	2d e6       	ldi	r18, 0x6D	; 109
     998:	35 e0       	ldi	r19, 0x05	; 5
     99a:	20 87       	std	Z+8, r18	; 0x08
     99c:	31 87       	std	Z+9, r19	; 0x09
     99e:	95 81       	ldd	r25, Z+5	; 0x05
     9a0:	90 68       	ori	r25, 0x80	; 128
     9a2:	95 83       	std	Z+5, r25	; 0x05
     9a4:	96 81       	ldd	r25, Z+6	; 0x06
     9a6:	90 64       	ori	r25, 0x40	; 64
     9a8:	96 83       	std	Z+6, r25	; 0x06
     9aa:	96 81       	ldd	r25, Z+6	; 0x06
     9ac:	90 68       	ori	r25, 0x80	; 128
     9ae:	96 83       	std	Z+6, r25	; 0x06
     9b0:	10 92 95 2b 	sts	0x2B95, r1	; 0x802b95 <send0_buf+0x80>
     9b4:	10 92 96 2b 	sts	0x2B96, r1	; 0x802b96 <send0_buf+0x81>
     9b8:	80 93 99 2b 	sts	0x2B99, r24	; 0x802b99 <send0_buf+0x84>
     9bc:	10 92 10 2b 	sts	0x2B10, r1	; 0x802b10 <recv0_buf+0x80>
     9c0:	10 92 11 2b 	sts	0x2B11, r1	; 0x802b11 <recv0_buf+0x81>
     9c4:	10 92 90 2a 	sts	0x2A90, r1	; 0x802a90 <recv0_buf>
     9c8:	10 92 14 2b 	sts	0x2B14, r1	; 0x802b14 <recv0_buf+0x84>
     9cc:	e0 e4       	ldi	r30, 0x40	; 64
     9ce:	f4 e0       	ldi	r31, 0x04	; 4
     9d0:	85 83       	std	Z+5, r24	; 0x05
     9d2:	81 83       	std	Z+1, r24	; 0x01
     9d4:	e0 e2       	ldi	r30, 0x20	; 32
     9d6:	f8 e0       	ldi	r31, 0x08	; 8
     9d8:	20 87       	std	Z+8, r18	; 0x08
     9da:	31 87       	std	Z+9, r19	; 0x09
     9dc:	96 81       	ldd	r25, Z+6	; 0x06
     9de:	90 64       	ori	r25, 0x40	; 64
     9e0:	96 83       	std	Z+6, r25	; 0x06
     9e2:	96 81       	ldd	r25, Z+6	; 0x06
     9e4:	90 68       	ori	r25, 0x80	; 128
     9e6:	96 83       	std	Z+6, r25	; 0x06
     9e8:	80 93 28 2d 	sts	0x2D28, r24	; 0x802d28 <send1_buf+0x84>
     9ec:	10 92 8f 2a 	sts	0x2A8F, r1	; 0x802a8f <recv1_buf+0x84>
     9f0:	e0 e2       	ldi	r30, 0x20	; 32
     9f2:	f4 e0       	ldi	r31, 0x04	; 4
     9f4:	85 83       	std	Z+5, r24	; 0x05
     9f6:	81 83       	std	Z+1, r24	; 0x01
     9f8:	e0 e6       	ldi	r30, 0x60	; 96
     9fa:	f8 e0       	ldi	r31, 0x08	; 8
     9fc:	20 87       	std	Z+8, r18	; 0x08
     9fe:	31 87       	std	Z+9, r19	; 0x09
     a00:	96 81       	ldd	r25, Z+6	; 0x06
     a02:	90 64       	ori	r25, 0x40	; 64
     a04:	96 83       	std	Z+6, r25	; 0x06
     a06:	96 81       	ldd	r25, Z+6	; 0x06
     a08:	90 68       	ori	r25, 0x80	; 128
     a0a:	96 83       	std	Z+6, r25	; 0x06
     a0c:	80 93 a3 2c 	sts	0x2CA3, r24	; 0x802ca3 <send3_buf+0x84>
     a10:	10 92 1e 2c 	sts	0x2C1E, r1	; 0x802c1e <recv3_buf+0x84>
     a14:	08 95       	ret

00000a16 <send_USART>:
     a16:	cf 93       	push	r28
     a18:	df 93       	push	r29
     a1a:	81 30       	cpi	r24, 0x01	; 1
     a1c:	39 f0       	breq	.+14     	; 0xa2c <send_USART+0x16>
     a1e:	48 f0       	brcs	.+18     	; 0xa32 <send_USART+0x1c>
     a20:	83 30       	cpi	r24, 0x03	; 3
     a22:	09 f0       	breq	.+2      	; 0xa26 <send_USART+0x10>
     a24:	70 c0       	rjmp	.+224    	; 0xb06 <send_USART+0xf0>
     a26:	41 11       	cpse	r20, r1
     a28:	4c c0       	rjmp	.+152    	; 0xac2 <send_USART+0xac>
     a2a:	68 c0       	rjmp	.+208    	; 0xafc <send_USART+0xe6>
     a2c:	41 11       	cpse	r20, r1
     a2e:	26 c0       	rjmp	.+76     	; 0xa7c <send_USART+0x66>
     a30:	42 c0       	rjmp	.+132    	; 0xab6 <send_USART+0xa0>
     a32:	44 23       	and	r20, r20
     a34:	e9 f0       	breq	.+58     	; 0xa70 <send_USART+0x5a>
     a36:	fb 01       	movw	r30, r22
     a38:	41 50       	subi	r20, 0x01	; 1
     a3a:	50 e0       	ldi	r21, 0x00	; 0
     a3c:	4f 5f       	subi	r20, 0xFF	; 255
     a3e:	5f 4f       	sbci	r21, 0xFF	; 255
     a40:	64 0f       	add	r22, r20
     a42:	75 1f       	adc	r23, r21
     a44:	a5 e9       	ldi	r26, 0x95	; 149
     a46:	bb e2       	ldi	r27, 0x2B	; 43
     a48:	8c 91       	ld	r24, X
     a4a:	90 e0       	ldi	r25, 0x00	; 0
     a4c:	21 91       	ld	r18, Z+
     a4e:	ec 01       	movw	r28, r24
     a50:	cb 5e       	subi	r28, 0xEB	; 235
     a52:	d4 4d       	sbci	r29, 0xD4	; 212
     a54:	28 83       	st	Y, r18
     a56:	01 96       	adiw	r24, 0x01	; 1
     a58:	8f 77       	andi	r24, 0x7F	; 127
     a5a:	90 78       	andi	r25, 0x80	; 128
     a5c:	99 23       	and	r25, r25
     a5e:	24 f4       	brge	.+8      	; 0xa68 <send_USART+0x52>
     a60:	01 97       	sbiw	r24, 0x01	; 1
     a62:	80 68       	ori	r24, 0x80	; 128
     a64:	9f 6f       	ori	r25, 0xFF	; 255
     a66:	01 96       	adiw	r24, 0x01	; 1
     a68:	8c 93       	st	X, r24
     a6a:	6e 17       	cp	r22, r30
     a6c:	7f 07       	cpc	r23, r31
     a6e:	61 f7       	brne	.-40     	; 0xa48 <send_USART+0x32>
     a70:	e0 e0       	ldi	r30, 0x00	; 0
     a72:	f8 e0       	ldi	r31, 0x08	; 8
     a74:	85 81       	ldd	r24, Z+5	; 0x05
     a76:	80 62       	ori	r24, 0x20	; 32
     a78:	85 83       	std	Z+5, r24	; 0x05
     a7a:	45 c0       	rjmp	.+138    	; 0xb06 <send_USART+0xf0>
     a7c:	fb 01       	movw	r30, r22
     a7e:	41 50       	subi	r20, 0x01	; 1
     a80:	50 e0       	ldi	r21, 0x00	; 0
     a82:	4f 5f       	subi	r20, 0xFF	; 255
     a84:	5f 4f       	sbci	r21, 0xFF	; 255
     a86:	64 0f       	add	r22, r20
     a88:	75 1f       	adc	r23, r21
     a8a:	a4 e2       	ldi	r26, 0x24	; 36
     a8c:	bd e2       	ldi	r27, 0x2D	; 45
     a8e:	8c 91       	ld	r24, X
     a90:	90 e0       	ldi	r25, 0x00	; 0
     a92:	21 91       	ld	r18, Z+
     a94:	ec 01       	movw	r28, r24
     a96:	cc 55       	subi	r28, 0x5C	; 92
     a98:	d3 4d       	sbci	r29, 0xD3	; 211
     a9a:	28 83       	st	Y, r18
     a9c:	01 96       	adiw	r24, 0x01	; 1
     a9e:	8f 77       	andi	r24, 0x7F	; 127
     aa0:	90 78       	andi	r25, 0x80	; 128
     aa2:	99 23       	and	r25, r25
     aa4:	24 f4       	brge	.+8      	; 0xaae <send_USART+0x98>
     aa6:	01 97       	sbiw	r24, 0x01	; 1
     aa8:	80 68       	ori	r24, 0x80	; 128
     aaa:	9f 6f       	ori	r25, 0xFF	; 255
     aac:	01 96       	adiw	r24, 0x01	; 1
     aae:	8c 93       	st	X, r24
     ab0:	6e 17       	cp	r22, r30
     ab2:	7f 07       	cpc	r23, r31
     ab4:	61 f7       	brne	.-40     	; 0xa8e <send_USART+0x78>
     ab6:	e0 e2       	ldi	r30, 0x20	; 32
     ab8:	f8 e0       	ldi	r31, 0x08	; 8
     aba:	85 81       	ldd	r24, Z+5	; 0x05
     abc:	80 62       	ori	r24, 0x20	; 32
     abe:	85 83       	std	Z+5, r24	; 0x05
     ac0:	22 c0       	rjmp	.+68     	; 0xb06 <send_USART+0xf0>
     ac2:	fb 01       	movw	r30, r22
     ac4:	41 50       	subi	r20, 0x01	; 1
     ac6:	50 e0       	ldi	r21, 0x00	; 0
     ac8:	4f 5f       	subi	r20, 0xFF	; 255
     aca:	5f 4f       	sbci	r21, 0xFF	; 255
     acc:	64 0f       	add	r22, r20
     ace:	75 1f       	adc	r23, r21
     ad0:	af e9       	ldi	r26, 0x9F	; 159
     ad2:	bc e2       	ldi	r27, 0x2C	; 44
     ad4:	8c 91       	ld	r24, X
     ad6:	90 e0       	ldi	r25, 0x00	; 0
     ad8:	21 91       	ld	r18, Z+
     ada:	ec 01       	movw	r28, r24
     adc:	c1 5e       	subi	r28, 0xE1	; 225
     ade:	d3 4d       	sbci	r29, 0xD3	; 211
     ae0:	28 83       	st	Y, r18
     ae2:	01 96       	adiw	r24, 0x01	; 1
     ae4:	8f 77       	andi	r24, 0x7F	; 127
     ae6:	90 78       	andi	r25, 0x80	; 128
     ae8:	99 23       	and	r25, r25
     aea:	24 f4       	brge	.+8      	; 0xaf4 <send_USART+0xde>
     aec:	01 97       	sbiw	r24, 0x01	; 1
     aee:	80 68       	ori	r24, 0x80	; 128
     af0:	9f 6f       	ori	r25, 0xFF	; 255
     af2:	01 96       	adiw	r24, 0x01	; 1
     af4:	8c 93       	st	X, r24
     af6:	6e 17       	cp	r22, r30
     af8:	7f 07       	cpc	r23, r31
     afa:	61 f7       	brne	.-40     	; 0xad4 <send_USART+0xbe>
     afc:	e0 e6       	ldi	r30, 0x60	; 96
     afe:	f8 e0       	ldi	r31, 0x08	; 8
     b00:	85 81       	ldd	r24, Z+5	; 0x05
     b02:	80 62       	ori	r24, 0x20	; 32
     b04:	85 83       	std	Z+5, r24	; 0x05
     b06:	df 91       	pop	r29
     b08:	cf 91       	pop	r28
     b0a:	08 95       	ret

00000b0c <__vector_17>:
     b0c:	1f 92       	push	r1
     b0e:	0f 92       	push	r0
     b10:	0f b6       	in	r0, 0x3f	; 63
     b12:	0f 92       	push	r0
     b14:	11 24       	eor	r1, r1
     b16:	8f 93       	push	r24
     b18:	9f 93       	push	r25
     b1a:	ef 93       	push	r30
     b1c:	ff 93       	push	r31
     b1e:	80 91 00 08 	lds	r24, 0x0800	; 0x800800 <__TEXT_REGION_LENGTH__+0x7f4800>
     b22:	8d 30       	cpi	r24, 0x0D	; 13
     b24:	51 f4       	brne	.+20     	; 0xb3a <__vector_17+0x2e>
     b26:	81 e0       	ldi	r24, 0x01	; 1
     b28:	80 93 14 2b 	sts	0x2B14, r24	; 0x802b14 <recv0_buf+0x84>
     b2c:	e0 91 10 2b 	lds	r30, 0x2B10	; 0x802b10 <recv0_buf+0x80>
     b30:	f0 e0       	ldi	r31, 0x00	; 0
     b32:	e0 57       	subi	r30, 0x70	; 112
     b34:	f5 4d       	sbci	r31, 0xD5	; 213
     b36:	10 82       	st	Z, r1
     b38:	06 c0       	rjmp	.+12     	; 0xb46 <__vector_17+0x3a>
     b3a:	e0 91 10 2b 	lds	r30, 0x2B10	; 0x802b10 <recv0_buf+0x80>
     b3e:	f0 e0       	ldi	r31, 0x00	; 0
     b40:	e0 57       	subi	r30, 0x70	; 112
     b42:	f5 4d       	sbci	r31, 0xD5	; 213
     b44:	80 83       	st	Z, r24
     b46:	e0 e1       	ldi	r30, 0x10	; 16
     b48:	fb e2       	ldi	r31, 0x2B	; 43
     b4a:	80 81       	ld	r24, Z
     b4c:	90 e0       	ldi	r25, 0x00	; 0
     b4e:	01 96       	adiw	r24, 0x01	; 1
     b50:	8f 77       	andi	r24, 0x7F	; 127
     b52:	90 78       	andi	r25, 0x80	; 128
     b54:	99 23       	and	r25, r25
     b56:	24 f4       	brge	.+8      	; 0xb60 <__vector_17+0x54>
     b58:	01 97       	sbiw	r24, 0x01	; 1
     b5a:	80 68       	ori	r24, 0x80	; 128
     b5c:	9f 6f       	ori	r25, 0xFF	; 255
     b5e:	01 96       	adiw	r24, 0x01	; 1
     b60:	80 83       	st	Z, r24
     b62:	ff 91       	pop	r31
     b64:	ef 91       	pop	r30
     b66:	9f 91       	pop	r25
     b68:	8f 91       	pop	r24
     b6a:	0f 90       	pop	r0
     b6c:	0f be       	out	0x3f, r0	; 63
     b6e:	0f 90       	pop	r0
     b70:	1f 90       	pop	r1
     b72:	18 95       	reti

00000b74 <__vector_18>:
     b74:	1f 92       	push	r1
     b76:	0f 92       	push	r0
     b78:	0f b6       	in	r0, 0x3f	; 63
     b7a:	0f 92       	push	r0
     b7c:	11 24       	eor	r1, r1
     b7e:	8f 93       	push	r24
     b80:	9f 93       	push	r25
     b82:	ef 93       	push	r30
     b84:	ff 93       	push	r31
     b86:	e0 e0       	ldi	r30, 0x00	; 0
     b88:	f8 e0       	ldi	r31, 0x08	; 8
     b8a:	85 81       	ldd	r24, Z+5	; 0x05
     b8c:	8f 7d       	andi	r24, 0xDF	; 223
     b8e:	85 83       	std	Z+5, r24	; 0x05
     b90:	e0 91 96 2b 	lds	r30, 0x2B96	; 0x802b96 <send0_buf+0x81>
     b94:	80 91 95 2b 	lds	r24, 0x2B95	; 0x802b95 <send0_buf+0x80>
     b98:	8e 17       	cp	r24, r30
     b9a:	81 f0       	breq	.+32     	; 0xbbc <__vector_18+0x48>
     b9c:	81 e0       	ldi	r24, 0x01	; 1
     b9e:	8e 0f       	add	r24, r30
     ba0:	f0 e0       	ldi	r31, 0x00	; 0
     ba2:	eb 5e       	subi	r30, 0xEB	; 235
     ba4:	f4 4d       	sbci	r31, 0xD4	; 212
     ba6:	90 81       	ld	r25, Z
     ba8:	e0 e0       	ldi	r30, 0x00	; 0
     baa:	f8 e0       	ldi	r31, 0x08	; 8
     bac:	92 83       	std	Z+2, r25	; 0x02
     bae:	8f 77       	andi	r24, 0x7F	; 127
     bb0:	80 93 96 2b 	sts	0x2B96, r24	; 0x802b96 <send0_buf+0x81>
     bb4:	85 81       	ldd	r24, Z+5	; 0x05
     bb6:	80 62       	ori	r24, 0x20	; 32
     bb8:	85 83       	std	Z+5, r24	; 0x05
     bba:	03 c0       	rjmp	.+6      	; 0xbc2 <__vector_18+0x4e>
     bbc:	81 e0       	ldi	r24, 0x01	; 1
     bbe:	80 93 99 2b 	sts	0x2B99, r24	; 0x802b99 <send0_buf+0x84>
     bc2:	ff 91       	pop	r31
     bc4:	ef 91       	pop	r30
     bc6:	9f 91       	pop	r25
     bc8:	8f 91       	pop	r24
     bca:	0f 90       	pop	r0
     bcc:	0f be       	out	0x3f, r0	; 63
     bce:	0f 90       	pop	r0
     bd0:	1f 90       	pop	r1
     bd2:	18 95       	reti

00000bd4 <__vector_26>:
     bd4:	1f 92       	push	r1
     bd6:	0f 92       	push	r0
     bd8:	0f b6       	in	r0, 0x3f	; 63
     bda:	0f 92       	push	r0
     bdc:	11 24       	eor	r1, r1
     bde:	8f 93       	push	r24
     be0:	9f 93       	push	r25
     be2:	af 93       	push	r26
     be4:	bf 93       	push	r27
     be6:	ef 93       	push	r30
     be8:	ff 93       	push	r31
     bea:	80 91 20 08 	lds	r24, 0x0820	; 0x800820 <__TEXT_REGION_LENGTH__+0x7f4820>
     bee:	8d 30       	cpi	r24, 0x0D	; 13
     bf0:	21 f0       	breq	.+8      	; 0xbfa <__vector_26+0x26>
     bf2:	e0 91 8e 2a 	lds	r30, 0x2A8E	; 0x802a8e <recv1_buf+0x83>
     bf6:	ef 37       	cpi	r30, 0x7F	; 127
     bf8:	78 f0       	brcs	.+30     	; 0xc18 <__vector_26+0x44>
     bfa:	81 e0       	ldi	r24, 0x01	; 1
     bfc:	80 93 8f 2a 	sts	0x2A8F, r24	; 0x802a8f <recv1_buf+0x84>
     c00:	ae e8       	ldi	r26, 0x8E	; 142
     c02:	ba e2       	ldi	r27, 0x2A	; 42
     c04:	8c 91       	ld	r24, X
     c06:	e8 2f       	mov	r30, r24
     c08:	f0 e0       	ldi	r31, 0x00	; 0
     c0a:	e5 5f       	subi	r30, 0xF5	; 245
     c0c:	f5 4d       	sbci	r31, 0xD5	; 213
     c0e:	10 82       	st	Z, r1
     c10:	80 93 8d 2a 	sts	0x2A8D, r24	; 0x802a8d <recv1_buf+0x82>
     c14:	1c 92       	st	X, r1
     c16:	08 c0       	rjmp	.+16     	; 0xc28 <__vector_26+0x54>
     c18:	91 e0       	ldi	r25, 0x01	; 1
     c1a:	9e 0f       	add	r25, r30
     c1c:	90 93 8e 2a 	sts	0x2A8E, r25	; 0x802a8e <recv1_buf+0x83>
     c20:	f0 e0       	ldi	r31, 0x00	; 0
     c22:	e5 5f       	subi	r30, 0xF5	; 245
     c24:	f5 4d       	sbci	r31, 0xD5	; 213
     c26:	80 83       	st	Z, r24
     c28:	ff 91       	pop	r31
     c2a:	ef 91       	pop	r30
     c2c:	bf 91       	pop	r27
     c2e:	af 91       	pop	r26
     c30:	9f 91       	pop	r25
     c32:	8f 91       	pop	r24
     c34:	0f 90       	pop	r0
     c36:	0f be       	out	0x3f, r0	; 63
     c38:	0f 90       	pop	r0
     c3a:	1f 90       	pop	r1
     c3c:	18 95       	reti

00000c3e <__vector_27>:
     c3e:	1f 92       	push	r1
     c40:	0f 92       	push	r0
     c42:	0f b6       	in	r0, 0x3f	; 63
     c44:	0f 92       	push	r0
     c46:	11 24       	eor	r1, r1
     c48:	8f 93       	push	r24
     c4a:	9f 93       	push	r25
     c4c:	af 93       	push	r26
     c4e:	bf 93       	push	r27
     c50:	ef 93       	push	r30
     c52:	ff 93       	push	r31
     c54:	a7 e2       	ldi	r26, 0x27	; 39
     c56:	bd e2       	ldi	r27, 0x2D	; 45
     c58:	ec 91       	ld	r30, X
     c5a:	81 e0       	ldi	r24, 0x01	; 1
     c5c:	8e 0f       	add	r24, r30
     c5e:	8c 93       	st	X, r24
     c60:	f0 e0       	ldi	r31, 0x00	; 0
     c62:	ec 55       	subi	r30, 0x5C	; 92
     c64:	f3 4d       	sbci	r31, 0xD3	; 211
     c66:	90 81       	ld	r25, Z
     c68:	90 93 22 08 	sts	0x0822, r25	; 0x800822 <__TEXT_REGION_LENGTH__+0x7f4822>
     c6c:	90 91 26 2d 	lds	r25, 0x2D26	; 0x802d26 <send1_buf+0x82>
     c70:	89 17       	cp	r24, r25
     c72:	40 f0       	brcs	.+16     	; 0xc84 <__vector_27+0x46>
     c74:	e0 e2       	ldi	r30, 0x20	; 32
     c76:	f8 e0       	ldi	r31, 0x08	; 8
     c78:	85 81       	ldd	r24, Z+5	; 0x05
     c7a:	8f 7d       	andi	r24, 0xDF	; 223
     c7c:	85 83       	std	Z+5, r24	; 0x05
     c7e:	81 e0       	ldi	r24, 0x01	; 1
     c80:	80 93 28 2d 	sts	0x2D28, r24	; 0x802d28 <send1_buf+0x84>
     c84:	ff 91       	pop	r31
     c86:	ef 91       	pop	r30
     c88:	bf 91       	pop	r27
     c8a:	af 91       	pop	r26
     c8c:	9f 91       	pop	r25
     c8e:	8f 91       	pop	r24
     c90:	0f 90       	pop	r0
     c92:	0f be       	out	0x3f, r0	; 63
     c94:	0f 90       	pop	r0
     c96:	1f 90       	pop	r1
     c98:	18 95       	reti

00000c9a <__vector_37>:
     c9a:	1f 92       	push	r1
     c9c:	0f 92       	push	r0
     c9e:	0f b6       	in	r0, 0x3f	; 63
     ca0:	0f 92       	push	r0
     ca2:	11 24       	eor	r1, r1
     ca4:	8f 93       	push	r24
     ca6:	9f 93       	push	r25
     ca8:	af 93       	push	r26
     caa:	bf 93       	push	r27
     cac:	ef 93       	push	r30
     cae:	ff 93       	push	r31
     cb0:	80 91 60 08 	lds	r24, 0x0860	; 0x800860 <__TEXT_REGION_LENGTH__+0x7f4860>
     cb4:	8d 30       	cpi	r24, 0x0D	; 13
     cb6:	21 f0       	breq	.+8      	; 0xcc0 <__vector_37+0x26>
     cb8:	e0 91 1d 2c 	lds	r30, 0x2C1D	; 0x802c1d <recv3_buf+0x83>
     cbc:	ef 37       	cpi	r30, 0x7F	; 127
     cbe:	78 f0       	brcs	.+30     	; 0xcde <__vector_37+0x44>
     cc0:	81 e0       	ldi	r24, 0x01	; 1
     cc2:	80 93 1e 2c 	sts	0x2C1E, r24	; 0x802c1e <recv3_buf+0x84>
     cc6:	ad e1       	ldi	r26, 0x1D	; 29
     cc8:	bc e2       	ldi	r27, 0x2C	; 44
     cca:	8c 91       	ld	r24, X
     ccc:	e8 2f       	mov	r30, r24
     cce:	f0 e0       	ldi	r31, 0x00	; 0
     cd0:	e6 56       	subi	r30, 0x66	; 102
     cd2:	f4 4d       	sbci	r31, 0xD4	; 212
     cd4:	10 82       	st	Z, r1
     cd6:	80 93 1c 2c 	sts	0x2C1C, r24	; 0x802c1c <recv3_buf+0x82>
     cda:	1c 92       	st	X, r1
     cdc:	08 c0       	rjmp	.+16     	; 0xcee <__vector_37+0x54>
     cde:	91 e0       	ldi	r25, 0x01	; 1
     ce0:	9e 0f       	add	r25, r30
     ce2:	90 93 1d 2c 	sts	0x2C1D, r25	; 0x802c1d <recv3_buf+0x83>
     ce6:	f0 e0       	ldi	r31, 0x00	; 0
     ce8:	e6 56       	subi	r30, 0x66	; 102
     cea:	f4 4d       	sbci	r31, 0xD4	; 212
     cec:	80 83       	st	Z, r24
     cee:	ff 91       	pop	r31
     cf0:	ef 91       	pop	r30
     cf2:	bf 91       	pop	r27
     cf4:	af 91       	pop	r26
     cf6:	9f 91       	pop	r25
     cf8:	8f 91       	pop	r24
     cfa:	0f 90       	pop	r0
     cfc:	0f be       	out	0x3f, r0	; 63
     cfe:	0f 90       	pop	r0
     d00:	1f 90       	pop	r1
     d02:	18 95       	reti

00000d04 <__vector_38>:
     d04:	1f 92       	push	r1
     d06:	0f 92       	push	r0
     d08:	0f b6       	in	r0, 0x3f	; 63
     d0a:	0f 92       	push	r0
     d0c:	11 24       	eor	r1, r1
     d0e:	8f 93       	push	r24
     d10:	9f 93       	push	r25
     d12:	af 93       	push	r26
     d14:	bf 93       	push	r27
     d16:	ef 93       	push	r30
     d18:	ff 93       	push	r31
     d1a:	a2 ea       	ldi	r26, 0xA2	; 162
     d1c:	bc e2       	ldi	r27, 0x2C	; 44
     d1e:	ec 91       	ld	r30, X
     d20:	81 e0       	ldi	r24, 0x01	; 1
     d22:	8e 0f       	add	r24, r30
     d24:	8c 93       	st	X, r24
     d26:	f0 e0       	ldi	r31, 0x00	; 0
     d28:	e1 5e       	subi	r30, 0xE1	; 225
     d2a:	f3 4d       	sbci	r31, 0xD3	; 211
     d2c:	90 81       	ld	r25, Z
     d2e:	90 93 62 08 	sts	0x0862, r25	; 0x800862 <__TEXT_REGION_LENGTH__+0x7f4862>
     d32:	90 91 a1 2c 	lds	r25, 0x2CA1	; 0x802ca1 <send3_buf+0x82>
     d36:	89 17       	cp	r24, r25
     d38:	40 f0       	brcs	.+16     	; 0xd4a <__vector_38+0x46>
     d3a:	e0 e6       	ldi	r30, 0x60	; 96
     d3c:	f8 e0       	ldi	r31, 0x08	; 8
     d3e:	85 81       	ldd	r24, Z+5	; 0x05
     d40:	8f 7d       	andi	r24, 0xDF	; 223
     d42:	85 83       	std	Z+5, r24	; 0x05
     d44:	81 e0       	ldi	r24, 0x01	; 1
     d46:	80 93 a3 2c 	sts	0x2CA3, r24	; 0x802ca3 <send3_buf+0x84>
     d4a:	ff 91       	pop	r31
     d4c:	ef 91       	pop	r30
     d4e:	bf 91       	pop	r27
     d50:	af 91       	pop	r26
     d52:	9f 91       	pop	r25
     d54:	8f 91       	pop	r24
     d56:	0f 90       	pop	r0
     d58:	0f be       	out	0x3f, r0	; 63
     d5a:	0f 90       	pop	r0
     d5c:	1f 90       	pop	r1
     d5e:	18 95       	reti

00000d60 <read_FRAM>:
     d60:	af 92       	push	r10
     d62:	bf 92       	push	r11
     d64:	cf 92       	push	r12
     d66:	df 92       	push	r13
     d68:	ef 92       	push	r14
     d6a:	ff 92       	push	r15
     d6c:	0f 93       	push	r16
     d6e:	1f 93       	push	r17
     d70:	cf 93       	push	r28
     d72:	df 93       	push	r29
     d74:	c8 2f       	mov	r28, r24
     d76:	e6 2e       	mov	r14, r22
     d78:	d7 2f       	mov	r29, r23
     d7a:	8a 01       	movw	r16, r20
     d7c:	f2 2e       	mov	r15, r18
     d7e:	60 e0       	ldi	r22, 0x00	; 0
     d80:	0e 94 72 01 	call	0x2e4	; 0x2e4 <start_TWI>
     d84:	81 11       	cpse	r24, r1
     d86:	33 c0       	rjmp	.+102    	; 0xdee <read_FRAM+0x8e>
     d88:	8d 2f       	mov	r24, r29
     d8a:	0e 94 96 01 	call	0x32c	; 0x32c <write_TWI>
     d8e:	81 11       	cpse	r24, r1
     d90:	2e c0       	rjmp	.+92     	; 0xdee <read_FRAM+0x8e>
     d92:	8e 2d       	mov	r24, r14
     d94:	0e 94 96 01 	call	0x32c	; 0x32c <write_TWI>
     d98:	81 11       	cpse	r24, r1
     d9a:	29 c0       	rjmp	.+82     	; 0xdee <read_FRAM+0x8e>
     d9c:	61 e0       	ldi	r22, 0x01	; 1
     d9e:	8c 2f       	mov	r24, r28
     da0:	0e 94 72 01 	call	0x2e4	; 0x2e4 <start_TWI>
     da4:	81 11       	cpse	r24, r1
     da6:	23 c0       	rjmp	.+70     	; 0xdee <read_FRAM+0x8e>
     da8:	af 2c       	mov	r10, r15
     daa:	b1 2c       	mov	r11, r1
     dac:	81 e0       	ldi	r24, 0x01	; 1
     dae:	a8 1a       	sub	r10, r24
     db0:	b1 08       	sbc	r11, r1
     db2:	1a 14       	cp	r1, r10
     db4:	1b 04       	cpc	r1, r11
     db6:	74 f4       	brge	.+28     	; 0xdd4 <read_FRAM+0x74>
     db8:	c0 e0       	ldi	r28, 0x00	; 0
     dba:	68 01       	movw	r12, r16
     dbc:	cc 0e       	add	r12, r28
     dbe:	d1 1c       	adc	r13, r1
     dc0:	0e 94 4d 01 	call	0x29a	; 0x29a <read_TWI>
     dc4:	f6 01       	movw	r30, r12
     dc6:	80 83       	st	Z, r24
     dc8:	cf 5f       	subi	r28, 0xFF	; 255
     dca:	8c 2f       	mov	r24, r28
     dcc:	90 e0       	ldi	r25, 0x00	; 0
     dce:	8a 15       	cp	r24, r10
     dd0:	9b 05       	cpc	r25, r11
     dd2:	9c f3       	brlt	.-26     	; 0xdba <read_FRAM+0x5a>
     dd4:	8f 2d       	mov	r24, r15
     dd6:	90 e0       	ldi	r25, 0x00	; 0
     dd8:	01 97       	sbiw	r24, 0x01	; 1
     dda:	e8 01       	movw	r28, r16
     ddc:	c8 0f       	add	r28, r24
     dde:	d9 1f       	adc	r29, r25
     de0:	0e 94 61 01 	call	0x2c2	; 0x2c2 <readlast_TWI>
     de4:	88 83       	st	Y, r24
     de6:	87 e0       	ldi	r24, 0x07	; 7
     de8:	80 93 a4 08 	sts	0x08A4, r24	; 0x8008a4 <__TEXT_REGION_LENGTH__+0x7f48a4>
     dec:	80 e0       	ldi	r24, 0x00	; 0
     dee:	df 91       	pop	r29
     df0:	cf 91       	pop	r28
     df2:	1f 91       	pop	r17
     df4:	0f 91       	pop	r16
     df6:	ff 90       	pop	r15
     df8:	ef 90       	pop	r14
     dfa:	df 90       	pop	r13
     dfc:	cf 90       	pop	r12
     dfe:	bf 90       	pop	r11
     e00:	af 90       	pop	r10
     e02:	08 95       	ret

00000e04 <write_FRAM>:
     e04:	ef 92       	push	r14
     e06:	ff 92       	push	r15
     e08:	0f 93       	push	r16
     e0a:	1f 93       	push	r17
     e0c:	cf 93       	push	r28
     e0e:	df 93       	push	r29
     e10:	d6 2f       	mov	r29, r22
     e12:	c7 2f       	mov	r28, r23
     e14:	7a 01       	movw	r14, r20
     e16:	02 2f       	mov	r16, r18
     e18:	60 e0       	ldi	r22, 0x00	; 0
     e1a:	0e 94 72 01 	call	0x2e4	; 0x2e4 <start_TWI>
     e1e:	81 11       	cpse	r24, r1
     e20:	1f c0       	rjmp	.+62     	; 0xe60 <write_FRAM+0x5c>
     e22:	8c 2f       	mov	r24, r28
     e24:	0e 94 96 01 	call	0x32c	; 0x32c <write_TWI>
     e28:	81 11       	cpse	r24, r1
     e2a:	1a c0       	rjmp	.+52     	; 0xe60 <write_FRAM+0x5c>
     e2c:	8d 2f       	mov	r24, r29
     e2e:	0e 94 96 01 	call	0x32c	; 0x32c <write_TWI>
     e32:	81 11       	cpse	r24, r1
     e34:	15 c0       	rjmp	.+42     	; 0xe60 <write_FRAM+0x5c>
     e36:	00 23       	and	r16, r16
     e38:	79 f0       	breq	.+30     	; 0xe58 <write_FRAM+0x54>
     e3a:	e7 01       	movw	r28, r14
     e3c:	01 50       	subi	r16, 0x01	; 1
     e3e:	10 e0       	ldi	r17, 0x00	; 0
     e40:	0f 5f       	subi	r16, 0xFF	; 255
     e42:	1f 4f       	sbci	r17, 0xFF	; 255
     e44:	0e 0d       	add	r16, r14
     e46:	1f 1d       	adc	r17, r15
     e48:	89 91       	ld	r24, Y+
     e4a:	0e 94 96 01 	call	0x32c	; 0x32c <write_TWI>
     e4e:	81 11       	cpse	r24, r1
     e50:	07 c0       	rjmp	.+14     	; 0xe60 <write_FRAM+0x5c>
     e52:	c0 17       	cp	r28, r16
     e54:	d1 07       	cpc	r29, r17
     e56:	c1 f7       	brne	.-16     	; 0xe48 <write_FRAM+0x44>
     e58:	87 e0       	ldi	r24, 0x07	; 7
     e5a:	80 93 a4 08 	sts	0x08A4, r24	; 0x8008a4 <__TEXT_REGION_LENGTH__+0x7f48a4>
     e5e:	80 e0       	ldi	r24, 0x00	; 0
     e60:	df 91       	pop	r29
     e62:	cf 91       	pop	r28
     e64:	1f 91       	pop	r17
     e66:	0f 91       	pop	r16
     e68:	ff 90       	pop	r15
     e6a:	ef 90       	pop	r14
     e6c:	08 95       	ret

00000e6e <convert_ds2iso>:
     e6e:	fb 01       	movw	r30, r22
     e70:	20 81       	ld	r18, Z
     e72:	1f 92       	push	r1
     e74:	2f 93       	push	r18
     e76:	21 81       	ldd	r18, Z+1	; 0x01
     e78:	1f 92       	push	r1
     e7a:	2f 93       	push	r18
     e7c:	22 81       	ldd	r18, Z+2	; 0x02
     e7e:	1f 92       	push	r1
     e80:	2f 93       	push	r18
     e82:	24 81       	ldd	r18, Z+4	; 0x04
     e84:	1f 92       	push	r1
     e86:	2f 93       	push	r18
     e88:	25 81       	ldd	r18, Z+5	; 0x05
     e8a:	1f 92       	push	r1
     e8c:	2f 93       	push	r18
     e8e:	26 81       	ldd	r18, Z+6	; 0x06
     e90:	1f 92       	push	r1
     e92:	2f 93       	push	r18
     e94:	2a e6       	ldi	r18, 0x6A	; 106
     e96:	31 e7       	ldi	r19, 0x71	; 113
     e98:	3f 93       	push	r19
     e9a:	2f 93       	push	r18
     e9c:	9f 93       	push	r25
     e9e:	8f 93       	push	r24
     ea0:	0e 94 ef 17 	call	0x2fde	; 0x2fde <sprintf>
     ea4:	8d b7       	in	r24, 0x3d	; 61
     ea6:	9e b7       	in	r25, 0x3e	; 62
     ea8:	40 96       	adiw	r24, 0x10	; 16
     eaa:	8d bf       	out	0x3d, r24	; 61
     eac:	9e bf       	out	0x3e, r25	; 62
     eae:	08 95       	ret

00000eb0 <convert_iso2ds>:
     eb0:	dc 01       	movw	r26, r24
     eb2:	fb 01       	movw	r30, r22
     eb4:	81 89       	ldd	r24, Z+17	; 0x11
     eb6:	98 2f       	mov	r25, r24
     eb8:	92 95       	swap	r25
     eba:	90 7f       	andi	r25, 0xF0	; 240
     ebc:	82 89       	ldd	r24, Z+18	; 0x12
     ebe:	80 53       	subi	r24, 0x30	; 48
     ec0:	89 2b       	or	r24, r25
     ec2:	8c 93       	st	X, r24
     ec4:	86 85       	ldd	r24, Z+14	; 0x0e
     ec6:	98 2f       	mov	r25, r24
     ec8:	92 95       	swap	r25
     eca:	90 7f       	andi	r25, 0xF0	; 240
     ecc:	87 85       	ldd	r24, Z+15	; 0x0f
     ece:	80 53       	subi	r24, 0x30	; 48
     ed0:	89 2b       	or	r24, r25
     ed2:	11 96       	adiw	r26, 0x01	; 1
     ed4:	8c 93       	st	X, r24
     ed6:	11 97       	sbiw	r26, 0x01	; 1
     ed8:	83 85       	ldd	r24, Z+11	; 0x0b
     eda:	98 2f       	mov	r25, r24
     edc:	92 95       	swap	r25
     ede:	90 7f       	andi	r25, 0xF0	; 240
     ee0:	84 85       	ldd	r24, Z+12	; 0x0c
     ee2:	80 53       	subi	r24, 0x30	; 48
     ee4:	89 2b       	or	r24, r25
     ee6:	12 96       	adiw	r26, 0x02	; 2
     ee8:	8c 93       	st	X, r24
     eea:	12 97       	sbiw	r26, 0x02	; 2
     eec:	81 e0       	ldi	r24, 0x01	; 1
     eee:	13 96       	adiw	r26, 0x03	; 3
     ef0:	8c 93       	st	X, r24
     ef2:	13 97       	sbiw	r26, 0x03	; 3
     ef4:	80 85       	ldd	r24, Z+8	; 0x08
     ef6:	98 2f       	mov	r25, r24
     ef8:	92 95       	swap	r25
     efa:	90 7f       	andi	r25, 0xF0	; 240
     efc:	81 85       	ldd	r24, Z+9	; 0x09
     efe:	80 53       	subi	r24, 0x30	; 48
     f00:	89 2b       	or	r24, r25
     f02:	14 96       	adiw	r26, 0x04	; 4
     f04:	8c 93       	st	X, r24
     f06:	14 97       	sbiw	r26, 0x04	; 4
     f08:	85 81       	ldd	r24, Z+5	; 0x05
     f0a:	98 2f       	mov	r25, r24
     f0c:	92 95       	swap	r25
     f0e:	90 7f       	andi	r25, 0xF0	; 240
     f10:	86 81       	ldd	r24, Z+6	; 0x06
     f12:	80 53       	subi	r24, 0x30	; 48
     f14:	89 2b       	or	r24, r25
     f16:	15 96       	adiw	r26, 0x05	; 5
     f18:	8c 93       	st	X, r24
     f1a:	15 97       	sbiw	r26, 0x05	; 5
     f1c:	82 81       	ldd	r24, Z+2	; 0x02
     f1e:	98 2f       	mov	r25, r24
     f20:	92 95       	swap	r25
     f22:	90 7f       	andi	r25, 0xF0	; 240
     f24:	83 81       	ldd	r24, Z+3	; 0x03
     f26:	80 53       	subi	r24, 0x30	; 48
     f28:	89 2b       	or	r24, r25
     f2a:	16 96       	adiw	r26, 0x06	; 6
     f2c:	8c 93       	st	X, r24
     f2e:	08 95       	ret

00000f30 <read_DS3231>:
     f30:	ef 92       	push	r14
     f32:	ff 92       	push	r15
     f34:	0f 93       	push	r16
     f36:	1f 93       	push	r17
     f38:	cf 93       	push	r28
     f3a:	df 93       	push	r29
     f3c:	7b 01       	movw	r14, r22
     f3e:	60 e0       	ldi	r22, 0x00	; 0
     f40:	0e 94 72 01 	call	0x2e4	; 0x2e4 <start_TWI>
     f44:	88 23       	and	r24, r24
     f46:	21 f0       	breq	.+8      	; 0xf50 <read_DS3231+0x20>
     f48:	97 e0       	ldi	r25, 0x07	; 7
     f4a:	90 93 a4 08 	sts	0x08A4, r25	; 0x8008a4 <__TEXT_REGION_LENGTH__+0x7f48a4>
     f4e:	25 c0       	rjmp	.+74     	; 0xf9a <read_DS3231+0x6a>
     f50:	80 e0       	ldi	r24, 0x00	; 0
     f52:	0e 94 96 01 	call	0x32c	; 0x32c <write_TWI>
     f56:	88 23       	and	r24, r24
     f58:	21 f0       	breq	.+8      	; 0xf62 <read_DS3231+0x32>
     f5a:	97 e0       	ldi	r25, 0x07	; 7
     f5c:	90 93 a4 08 	sts	0x08A4, r25	; 0x8008a4 <__TEXT_REGION_LENGTH__+0x7f48a4>
     f60:	1c c0       	rjmp	.+56     	; 0xf9a <read_DS3231+0x6a>
     f62:	61 e0       	ldi	r22, 0x01	; 1
     f64:	80 ed       	ldi	r24, 0xD0	; 208
     f66:	0e 94 72 01 	call	0x2e4	; 0x2e4 <start_TWI>
     f6a:	88 23       	and	r24, r24
     f6c:	21 f0       	breq	.+8      	; 0xf76 <read_DS3231+0x46>
     f6e:	97 e0       	ldi	r25, 0x07	; 7
     f70:	90 93 a4 08 	sts	0x08A4, r25	; 0x8008a4 <__TEXT_REGION_LENGTH__+0x7f48a4>
     f74:	12 c0       	rjmp	.+36     	; 0xf9a <read_DS3231+0x6a>
     f76:	e7 01       	movw	r28, r14
     f78:	87 01       	movw	r16, r14
     f7a:	0a 5f       	subi	r16, 0xFA	; 250
     f7c:	1f 4f       	sbci	r17, 0xFF	; 255
     f7e:	0e 94 4d 01 	call	0x29a	; 0x29a <read_TWI>
     f82:	89 93       	st	Y+, r24
     f84:	c0 17       	cp	r28, r16
     f86:	d1 07       	cpc	r29, r17
     f88:	d1 f7       	brne	.-12     	; 0xf7e <read_DS3231+0x4e>
     f8a:	0e 94 61 01 	call	0x2c2	; 0x2c2 <readlast_TWI>
     f8e:	f7 01       	movw	r30, r14
     f90:	86 83       	std	Z+6, r24	; 0x06
     f92:	87 e0       	ldi	r24, 0x07	; 7
     f94:	80 93 a4 08 	sts	0x08A4, r24	; 0x8008a4 <__TEXT_REGION_LENGTH__+0x7f48a4>
     f98:	80 e0       	ldi	r24, 0x00	; 0
     f9a:	df 91       	pop	r29
     f9c:	cf 91       	pop	r28
     f9e:	1f 91       	pop	r17
     fa0:	0f 91       	pop	r16
     fa2:	ff 90       	pop	r15
     fa4:	ef 90       	pop	r14
     fa6:	08 95       	ret

00000fa8 <get_time>:
     fa8:	0f 93       	push	r16
     faa:	1f 93       	push	r17
     fac:	cf 93       	push	r28
     fae:	df 93       	push	r29
     fb0:	cd b7       	in	r28, 0x3d	; 61
     fb2:	de b7       	in	r29, 0x3e	; 62
     fb4:	27 97       	sbiw	r28, 0x07	; 7
     fb6:	cd bf       	out	0x3d, r28	; 61
     fb8:	de bf       	out	0x3e, r29	; 62
     fba:	8c 01       	movw	r16, r24
     fbc:	be 01       	movw	r22, r28
     fbe:	6f 5f       	subi	r22, 0xFF	; 255
     fc0:	7f 4f       	sbci	r23, 0xFF	; 255
     fc2:	80 ed       	ldi	r24, 0xD0	; 208
     fc4:	0e 94 98 07 	call	0xf30	; 0xf30 <read_DS3231>
     fc8:	88 23       	and	r24, r24
     fca:	49 f0       	breq	.+18     	; 0xfde <get_time+0x36>
     fcc:	92 e1       	ldi	r25, 0x12	; 18
     fce:	ea e8       	ldi	r30, 0x8A	; 138
     fd0:	f1 e7       	ldi	r31, 0x71	; 113
     fd2:	d8 01       	movw	r26, r16
     fd4:	01 90       	ld	r0, Z+
     fd6:	0d 92       	st	X+, r0
     fd8:	9a 95       	dec	r25
     fda:	e1 f7       	brne	.-8      	; 0xfd4 <get_time+0x2c>
     fdc:	07 c0       	rjmp	.+14     	; 0xfec <get_time+0x44>
     fde:	be 01       	movw	r22, r28
     fe0:	6f 5f       	subi	r22, 0xFF	; 255
     fe2:	7f 4f       	sbci	r23, 0xFF	; 255
     fe4:	c8 01       	movw	r24, r16
     fe6:	0e 94 37 07 	call	0xe6e	; 0xe6e <convert_ds2iso>
     fea:	80 e0       	ldi	r24, 0x00	; 0
     fec:	27 96       	adiw	r28, 0x07	; 7
     fee:	cd bf       	out	0x3d, r28	; 61
     ff0:	de bf       	out	0x3e, r29	; 62
     ff2:	df 91       	pop	r29
     ff4:	cf 91       	pop	r28
     ff6:	1f 91       	pop	r17
     ff8:	0f 91       	pop	r16
     ffa:	08 95       	ret

00000ffc <write_DS3231>:
     ffc:	0f 93       	push	r16
     ffe:	1f 93       	push	r17
    1000:	cf 93       	push	r28
    1002:	df 93       	push	r29
    1004:	8b 01       	movw	r16, r22
    1006:	60 e0       	ldi	r22, 0x00	; 0
    1008:	0e 94 72 01 	call	0x2e4	; 0x2e4 <start_TWI>
    100c:	88 23       	and	r24, r24
    100e:	21 f0       	breq	.+8      	; 0x1018 <write_DS3231+0x1c>
    1010:	97 e0       	ldi	r25, 0x07	; 7
    1012:	90 93 a4 08 	sts	0x08A4, r25	; 0x8008a4 <__TEXT_REGION_LENGTH__+0x7f48a4>
    1016:	1c c0       	rjmp	.+56     	; 0x1050 <write_DS3231+0x54>
    1018:	80 e0       	ldi	r24, 0x00	; 0
    101a:	0e 94 96 01 	call	0x32c	; 0x32c <write_TWI>
    101e:	88 23       	and	r24, r24
    1020:	21 f0       	breq	.+8      	; 0x102a <write_DS3231+0x2e>
    1022:	97 e0       	ldi	r25, 0x07	; 7
    1024:	90 93 a4 08 	sts	0x08A4, r25	; 0x8008a4 <__TEXT_REGION_LENGTH__+0x7f48a4>
    1028:	13 c0       	rjmp	.+38     	; 0x1050 <write_DS3231+0x54>
    102a:	e8 01       	movw	r28, r16
    102c:	09 5f       	subi	r16, 0xF9	; 249
    102e:	1f 4f       	sbci	r17, 0xFF	; 255
    1030:	89 91       	ld	r24, Y+
    1032:	0e 94 96 01 	call	0x32c	; 0x32c <write_TWI>
    1036:	88 23       	and	r24, r24
    1038:	21 f0       	breq	.+8      	; 0x1042 <write_DS3231+0x46>
    103a:	97 e0       	ldi	r25, 0x07	; 7
    103c:	90 93 a4 08 	sts	0x08A4, r25	; 0x8008a4 <__TEXT_REGION_LENGTH__+0x7f48a4>
    1040:	07 c0       	rjmp	.+14     	; 0x1050 <write_DS3231+0x54>
    1042:	0c 17       	cp	r16, r28
    1044:	1d 07       	cpc	r17, r29
    1046:	a1 f7       	brne	.-24     	; 0x1030 <write_DS3231+0x34>
    1048:	87 e0       	ldi	r24, 0x07	; 7
    104a:	80 93 a4 08 	sts	0x08A4, r24	; 0x8008a4 <__TEXT_REGION_LENGTH__+0x7f48a4>
    104e:	80 e0       	ldi	r24, 0x00	; 0
    1050:	df 91       	pop	r29
    1052:	cf 91       	pop	r28
    1054:	1f 91       	pop	r17
    1056:	0f 91       	pop	r16
    1058:	08 95       	ret

0000105a <put_time>:
    105a:	cf 93       	push	r28
    105c:	df 93       	push	r29
    105e:	cd b7       	in	r28, 0x3d	; 61
    1060:	de b7       	in	r29, 0x3e	; 62
    1062:	27 97       	sbiw	r28, 0x07	; 7
    1064:	cd bf       	out	0x3d, r28	; 61
    1066:	de bf       	out	0x3e, r29	; 62
    1068:	bc 01       	movw	r22, r24
    106a:	ce 01       	movw	r24, r28
    106c:	01 96       	adiw	r24, 0x01	; 1
    106e:	0e 94 58 07 	call	0xeb0	; 0xeb0 <convert_iso2ds>
    1072:	be 01       	movw	r22, r28
    1074:	6f 5f       	subi	r22, 0xFF	; 255
    1076:	7f 4f       	sbci	r23, 0xFF	; 255
    1078:	80 ed       	ldi	r24, 0xD0	; 208
    107a:	0e 94 fe 07 	call	0xffc	; 0xffc <write_DS3231>
    107e:	27 96       	adiw	r28, 0x07	; 7
    1080:	cd bf       	out	0x3d, r28	; 61
    1082:	de bf       	out	0x3e, r29	; 62
    1084:	df 91       	pop	r29
    1086:	cf 91       	pop	r28
    1088:	08 95       	ret

0000108a <read_MMA8451>:
    108a:	ef 92       	push	r14
    108c:	ff 92       	push	r15
    108e:	0f 93       	push	r16
    1090:	1f 93       	push	r17
    1092:	cf 93       	push	r28
    1094:	df 93       	push	r29
    1096:	c8 2f       	mov	r28, r24
    1098:	d6 2f       	mov	r29, r22
    109a:	8a 01       	movw	r16, r20
    109c:	f2 2e       	mov	r15, r18
    109e:	60 e0       	ldi	r22, 0x00	; 0
    10a0:	0e 94 72 01 	call	0x2e4	; 0x2e4 <start_TWI>
    10a4:	81 11       	cpse	r24, r1
    10a6:	26 c0       	rjmp	.+76     	; 0x10f4 <read_MMA8451+0x6a>
    10a8:	8d 2f       	mov	r24, r29
    10aa:	0e 94 96 01 	call	0x32c	; 0x32c <write_TWI>
    10ae:	81 11       	cpse	r24, r1
    10b0:	21 c0       	rjmp	.+66     	; 0x10f4 <read_MMA8451+0x6a>
    10b2:	61 e0       	ldi	r22, 0x01	; 1
    10b4:	8c 2f       	mov	r24, r28
    10b6:	0e 94 72 01 	call	0x2e4	; 0x2e4 <start_TWI>
    10ba:	81 11       	cpse	r24, r1
    10bc:	1b c0       	rjmp	.+54     	; 0x10f4 <read_MMA8451+0x6a>
    10be:	81 e0       	ldi	r24, 0x01	; 1
    10c0:	8f 15       	cp	r24, r15
    10c2:	80 f4       	brcc	.+32     	; 0x10e4 <read_MMA8451+0x5a>
    10c4:	e8 01       	movw	r28, r16
    10c6:	fa 94       	dec	r15
    10c8:	fa 94       	dec	r15
    10ca:	2f 2d       	mov	r18, r15
    10cc:	30 e0       	ldi	r19, 0x00	; 0
    10ce:	2f 5f       	subi	r18, 0xFF	; 255
    10d0:	3f 4f       	sbci	r19, 0xFF	; 255
    10d2:	02 0f       	add	r16, r18
    10d4:	13 1f       	adc	r17, r19
    10d6:	78 01       	movw	r14, r16
    10d8:	0e 94 4d 01 	call	0x29a	; 0x29a <read_TWI>
    10dc:	89 93       	st	Y+, r24
    10de:	ce 15       	cp	r28, r14
    10e0:	df 05       	cpc	r29, r15
    10e2:	d1 f7       	brne	.-12     	; 0x10d8 <read_MMA8451+0x4e>
    10e4:	0e 94 61 01 	call	0x2c2	; 0x2c2 <readlast_TWI>
    10e8:	f8 01       	movw	r30, r16
    10ea:	80 83       	st	Z, r24
    10ec:	87 e0       	ldi	r24, 0x07	; 7
    10ee:	80 93 a4 08 	sts	0x08A4, r24	; 0x8008a4 <__TEXT_REGION_LENGTH__+0x7f48a4>
    10f2:	80 e0       	ldi	r24, 0x00	; 0
    10f4:	df 91       	pop	r29
    10f6:	cf 91       	pop	r28
    10f8:	1f 91       	pop	r17
    10fa:	0f 91       	pop	r16
    10fc:	ff 90       	pop	r15
    10fe:	ef 90       	pop	r14
    1100:	08 95       	ret

00001102 <get_orientation>:
    1102:	cf 92       	push	r12
    1104:	df 92       	push	r13
    1106:	ef 92       	push	r14
    1108:	ff 92       	push	r15
    110a:	0f 93       	push	r16
    110c:	1f 93       	push	r17
    110e:	cf 93       	push	r28
    1110:	df 93       	push	r29
    1112:	cd b7       	in	r28, 0x3d	; 61
    1114:	de b7       	in	r29, 0x3e	; 62
    1116:	26 97       	sbiw	r28, 0x06	; 6
    1118:	cd bf       	out	0x3d, r28	; 61
    111a:	de bf       	out	0x3e, r29	; 62
    111c:	6b 01       	movw	r12, r22
    111e:	7a 01       	movw	r14, r20
    1120:	89 01       	movw	r16, r18
    1122:	4a e9       	ldi	r20, 0x9A	; 154
    1124:	5f e3       	ldi	r21, 0x3F	; 63
    1126:	6c e1       	ldi	r22, 0x1C	; 28
    1128:	76 ec       	ldi	r23, 0xC6	; 198
    112a:	f9 01       	movw	r30, r18
    112c:	40 83       	st	Z, r20
    112e:	51 83       	std	Z+1, r21	; 0x01
    1130:	62 83       	std	Z+2, r22	; 0x02
    1132:	73 83       	std	Z+3, r23	; 0x03
    1134:	f7 01       	movw	r30, r14
    1136:	40 83       	st	Z, r20
    1138:	51 83       	std	Z+1, r21	; 0x01
    113a:	62 83       	std	Z+2, r22	; 0x02
    113c:	73 83       	std	Z+3, r23	; 0x03
    113e:	f6 01       	movw	r30, r12
    1140:	40 83       	st	Z, r20
    1142:	51 83       	std	Z+1, r21	; 0x01
    1144:	62 83       	std	Z+2, r22	; 0x02
    1146:	73 83       	std	Z+3, r23	; 0x03
    1148:	26 e0       	ldi	r18, 0x06	; 6
    114a:	ae 01       	movw	r20, r28
    114c:	4f 5f       	subi	r20, 0xFF	; 255
    114e:	5f 4f       	sbci	r21, 0xFF	; 255
    1150:	61 e0       	ldi	r22, 0x01	; 1
    1152:	0e 94 45 08 	call	0x108a	; 0x108a <read_MMA8451>
    1156:	89 81       	ldd	r24, Y+1	; 0x01
    1158:	90 e0       	ldi	r25, 0x00	; 0
    115a:	98 2f       	mov	r25, r24
    115c:	88 27       	eor	r24, r24
    115e:	2a 81       	ldd	r18, Y+2	; 0x02
    1160:	82 2b       	or	r24, r18
    1162:	bc 01       	movw	r22, r24
    1164:	77 23       	and	r23, r23
    1166:	14 f4       	brge	.+4      	; 0x116c <get_orientation+0x6a>
    1168:	6d 5f       	subi	r22, 0xFD	; 253
    116a:	7f 4f       	sbci	r23, 0xFF	; 255
    116c:	75 95       	asr	r23
    116e:	67 95       	ror	r22
    1170:	75 95       	asr	r23
    1172:	67 95       	ror	r22
    1174:	07 2e       	mov	r0, r23
    1176:	00 0c       	add	r0, r0
    1178:	88 0b       	sbc	r24, r24
    117a:	99 0b       	sbc	r25, r25
    117c:	0e 94 bb 11 	call	0x2376	; 0x2376 <__floatsisf>
    1180:	26 e6       	ldi	r18, 0x66	; 102
    1182:	36 e2       	ldi	r19, 0x26	; 38
    1184:	45 e7       	ldi	r20, 0x75	; 117
    1186:	5e e3       	ldi	r21, 0x3E	; 62
    1188:	0e 94 70 12 	call	0x24e0	; 0x24e0 <__mulsf3>
    118c:	f6 01       	movw	r30, r12
    118e:	60 83       	st	Z, r22
    1190:	71 83       	std	Z+1, r23	; 0x01
    1192:	82 83       	std	Z+2, r24	; 0x02
    1194:	93 83       	std	Z+3, r25	; 0x03
    1196:	8b 81       	ldd	r24, Y+3	; 0x03
    1198:	90 e0       	ldi	r25, 0x00	; 0
    119a:	98 2f       	mov	r25, r24
    119c:	88 27       	eor	r24, r24
    119e:	2c 81       	ldd	r18, Y+4	; 0x04
    11a0:	82 2b       	or	r24, r18
    11a2:	bc 01       	movw	r22, r24
    11a4:	77 23       	and	r23, r23
    11a6:	14 f4       	brge	.+4      	; 0x11ac <get_orientation+0xaa>
    11a8:	6d 5f       	subi	r22, 0xFD	; 253
    11aa:	7f 4f       	sbci	r23, 0xFF	; 255
    11ac:	75 95       	asr	r23
    11ae:	67 95       	ror	r22
    11b0:	75 95       	asr	r23
    11b2:	67 95       	ror	r22
    11b4:	07 2e       	mov	r0, r23
    11b6:	00 0c       	add	r0, r0
    11b8:	88 0b       	sbc	r24, r24
    11ba:	99 0b       	sbc	r25, r25
    11bc:	0e 94 bb 11 	call	0x2376	; 0x2376 <__floatsisf>
    11c0:	26 e6       	ldi	r18, 0x66	; 102
    11c2:	36 e2       	ldi	r19, 0x26	; 38
    11c4:	45 e7       	ldi	r20, 0x75	; 117
    11c6:	5e e3       	ldi	r21, 0x3E	; 62
    11c8:	0e 94 70 12 	call	0x24e0	; 0x24e0 <__mulsf3>
    11cc:	f7 01       	movw	r30, r14
    11ce:	60 83       	st	Z, r22
    11d0:	71 83       	std	Z+1, r23	; 0x01
    11d2:	82 83       	std	Z+2, r24	; 0x02
    11d4:	93 83       	std	Z+3, r25	; 0x03
    11d6:	8d 81       	ldd	r24, Y+5	; 0x05
    11d8:	90 e0       	ldi	r25, 0x00	; 0
    11da:	98 2f       	mov	r25, r24
    11dc:	88 27       	eor	r24, r24
    11de:	2e 81       	ldd	r18, Y+6	; 0x06
    11e0:	82 2b       	or	r24, r18
    11e2:	bc 01       	movw	r22, r24
    11e4:	77 23       	and	r23, r23
    11e6:	14 f4       	brge	.+4      	; 0x11ec <get_orientation+0xea>
    11e8:	6d 5f       	subi	r22, 0xFD	; 253
    11ea:	7f 4f       	sbci	r23, 0xFF	; 255
    11ec:	75 95       	asr	r23
    11ee:	67 95       	ror	r22
    11f0:	75 95       	asr	r23
    11f2:	67 95       	ror	r22
    11f4:	07 2e       	mov	r0, r23
    11f6:	00 0c       	add	r0, r0
    11f8:	88 0b       	sbc	r24, r24
    11fa:	99 0b       	sbc	r25, r25
    11fc:	0e 94 bb 11 	call	0x2376	; 0x2376 <__floatsisf>
    1200:	26 e6       	ldi	r18, 0x66	; 102
    1202:	36 e2       	ldi	r19, 0x26	; 38
    1204:	45 e7       	ldi	r20, 0x75	; 117
    1206:	5e e3       	ldi	r21, 0x3E	; 62
    1208:	0e 94 70 12 	call	0x24e0	; 0x24e0 <__mulsf3>
    120c:	f8 01       	movw	r30, r16
    120e:	60 83       	st	Z, r22
    1210:	71 83       	std	Z+1, r23	; 0x01
    1212:	82 83       	std	Z+2, r24	; 0x02
    1214:	93 83       	std	Z+3, r25	; 0x03
    1216:	80 e0       	ldi	r24, 0x00	; 0
    1218:	26 96       	adiw	r28, 0x06	; 6
    121a:	cd bf       	out	0x3d, r28	; 61
    121c:	de bf       	out	0x3e, r29	; 62
    121e:	df 91       	pop	r29
    1220:	cf 91       	pop	r28
    1222:	1f 91       	pop	r17
    1224:	0f 91       	pop	r16
    1226:	ff 90       	pop	r15
    1228:	ef 90       	pop	r14
    122a:	df 90       	pop	r13
    122c:	cf 90       	pop	r12
    122e:	08 95       	ret

00001230 <write_MMA8451>:
    1230:	cf 93       	push	r28
    1232:	df 93       	push	r29
    1234:	c6 2f       	mov	r28, r22
    1236:	d4 2f       	mov	r29, r20
    1238:	60 e0       	ldi	r22, 0x00	; 0
    123a:	0e 94 72 01 	call	0x2e4	; 0x2e4 <start_TWI>
    123e:	88 23       	and	r24, r24
    1240:	21 f0       	breq	.+8      	; 0x124a <write_MMA8451+0x1a>
    1242:	97 e0       	ldi	r25, 0x07	; 7
    1244:	90 93 a4 08 	sts	0x08A4, r25	; 0x8008a4 <__TEXT_REGION_LENGTH__+0x7f48a4>
    1248:	16 c0       	rjmp	.+44     	; 0x1276 <write_MMA8451+0x46>
    124a:	8c 2f       	mov	r24, r28
    124c:	0e 94 96 01 	call	0x32c	; 0x32c <write_TWI>
    1250:	88 23       	and	r24, r24
    1252:	21 f0       	breq	.+8      	; 0x125c <write_MMA8451+0x2c>
    1254:	97 e0       	ldi	r25, 0x07	; 7
    1256:	90 93 a4 08 	sts	0x08A4, r25	; 0x8008a4 <__TEXT_REGION_LENGTH__+0x7f48a4>
    125a:	0d c0       	rjmp	.+26     	; 0x1276 <write_MMA8451+0x46>
    125c:	8d 2f       	mov	r24, r29
    125e:	0e 94 96 01 	call	0x32c	; 0x32c <write_TWI>
    1262:	88 23       	and	r24, r24
    1264:	21 f0       	breq	.+8      	; 0x126e <write_MMA8451+0x3e>
    1266:	97 e0       	ldi	r25, 0x07	; 7
    1268:	90 93 a4 08 	sts	0x08A4, r25	; 0x8008a4 <__TEXT_REGION_LENGTH__+0x7f48a4>
    126c:	04 c0       	rjmp	.+8      	; 0x1276 <write_MMA8451+0x46>
    126e:	87 e0       	ldi	r24, 0x07	; 7
    1270:	80 93 a4 08 	sts	0x08A4, r24	; 0x8008a4 <__TEXT_REGION_LENGTH__+0x7f48a4>
    1274:	80 e0       	ldi	r24, 0x00	; 0
    1276:	df 91       	pop	r29
    1278:	cf 91       	pop	r28
    127a:	08 95       	ret

0000127c <init_MMA8451>:
    127c:	cf 93       	push	r28
    127e:	df 93       	push	r29
    1280:	1f 92       	push	r1
    1282:	cd b7       	in	r28, 0x3d	; 61
    1284:	de b7       	in	r29, 0x3e	; 62
    1286:	40 e4       	ldi	r20, 0x40	; 64
    1288:	6b e2       	ldi	r22, 0x2B	; 43
    128a:	8a e3       	ldi	r24, 0x3A	; 58
    128c:	0e 94 18 09 	call	0x1230	; 0x1230 <write_MMA8451>
    1290:	21 e0       	ldi	r18, 0x01	; 1
    1292:	ae 01       	movw	r20, r28
    1294:	4f 5f       	subi	r20, 0xFF	; 255
    1296:	5f 4f       	sbci	r21, 0xFF	; 255
    1298:	6b e2       	ldi	r22, 0x2B	; 43
    129a:	8a e3       	ldi	r24, 0x3A	; 58
    129c:	0e 94 45 08 	call	0x108a	; 0x108a <read_MMA8451>
    12a0:	89 81       	ldd	r24, Y+1	; 0x01
    12a2:	86 ff       	sbrs	r24, 6
    12a4:	0b c0       	rjmp	.+22     	; 0x12bc <init_MMA8451+0x40>
    12a6:	21 e0       	ldi	r18, 0x01	; 1
    12a8:	ae 01       	movw	r20, r28
    12aa:	4f 5f       	subi	r20, 0xFF	; 255
    12ac:	5f 4f       	sbci	r21, 0xFF	; 255
    12ae:	6b e2       	ldi	r22, 0x2B	; 43
    12b0:	8a e3       	ldi	r24, 0x3A	; 58
    12b2:	0e 94 45 08 	call	0x108a	; 0x108a <read_MMA8451>
    12b6:	89 81       	ldd	r24, Y+1	; 0x01
    12b8:	86 fd       	sbrc	r24, 6
    12ba:	f5 cf       	rjmp	.-22     	; 0x12a6 <init_MMA8451+0x2a>
    12bc:	40 ec       	ldi	r20, 0xC0	; 192
    12be:	6f e0       	ldi	r22, 0x0F	; 15
    12c0:	8a e3       	ldi	r24, 0x3A	; 58
    12c2:	0e 94 18 09 	call	0x1230	; 0x1230 <write_MMA8451>
    12c6:	42 e0       	ldi	r20, 0x02	; 2
    12c8:	6b e2       	ldi	r22, 0x2B	; 43
    12ca:	8a e3       	ldi	r24, 0x3A	; 58
    12cc:	0e 94 18 09 	call	0x1230	; 0x1230 <write_MMA8451>
    12d0:	4d e3       	ldi	r20, 0x3D	; 61
    12d2:	6a e2       	ldi	r22, 0x2A	; 42
    12d4:	8a e3       	ldi	r24, 0x3A	; 58
    12d6:	0e 94 18 09 	call	0x1230	; 0x1230 <write_MMA8451>
    12da:	89 81       	ldd	r24, Y+1	; 0x01
    12dc:	0f 90       	pop	r0
    12de:	df 91       	pop	r29
    12e0:	cf 91       	pop	r28
    12e2:	08 95       	ret

000012e4 <checksum_NMEA>:
    12e4:	ef 92       	push	r14
    12e6:	ff 92       	push	r15
    12e8:	0f 93       	push	r16
    12ea:	1f 93       	push	r17
    12ec:	cf 93       	push	r28
    12ee:	df 93       	push	r29
    12f0:	cd b7       	in	r28, 0x3d	; 61
    12f2:	de b7       	in	r29, 0x3e	; 62
    12f4:	2e 97       	sbiw	r28, 0x0e	; 14
    12f6:	cd bf       	out	0x3d, r28	; 61
    12f8:	de bf       	out	0x3e, r29	; 62
    12fa:	8c 01       	movw	r16, r24
    12fc:	88 e0       	ldi	r24, 0x08	; 8
    12fe:	ec e9       	ldi	r30, 0x9C	; 156
    1300:	f1 e7       	ldi	r31, 0x71	; 113
    1302:	de 01       	movw	r26, r28
    1304:	11 96       	adiw	r26, 0x01	; 1
    1306:	01 90       	ld	r0, Z+
    1308:	0d 92       	st	X+, r0
    130a:	8a 95       	dec	r24
    130c:	e1 f7       	brne	.-8      	; 0x1306 <checksum_NMEA+0x22>
    130e:	f8 01       	movw	r30, r16
    1310:	01 90       	ld	r0, Z+
    1312:	00 20       	and	r0, r0
    1314:	e9 f7       	brne	.-6      	; 0x1310 <checksum_NMEA+0x2c>
    1316:	31 97       	sbiw	r30, 0x01	; 1
    1318:	3e 2f       	mov	r19, r30
    131a:	30 1b       	sub	r19, r16
    131c:	32 30       	cpi	r19, 0x02	; 2
    131e:	50 f0       	brcs	.+20     	; 0x1334 <checksum_NMEA+0x50>
    1320:	f8 01       	movw	r30, r16
    1322:	31 96       	adiw	r30, 0x01	; 1
    1324:	90 e0       	ldi	r25, 0x00	; 0
    1326:	81 e0       	ldi	r24, 0x01	; 1
    1328:	21 91       	ld	r18, Z+
    132a:	92 27       	eor	r25, r18
    132c:	8f 5f       	subi	r24, 0xFF	; 255
    132e:	38 13       	cpse	r19, r24
    1330:	fb cf       	rjmp	.-10     	; 0x1328 <checksum_NMEA+0x44>
    1332:	01 c0       	rjmp	.+2      	; 0x1336 <checksum_NMEA+0x52>
    1334:	90 e0       	ldi	r25, 0x00	; 0
    1336:	1f 92       	push	r1
    1338:	9f 93       	push	r25
    133a:	ce 01       	movw	r24, r28
    133c:	01 96       	adiw	r24, 0x01	; 1
    133e:	9f 93       	push	r25
    1340:	8f 93       	push	r24
    1342:	7e 01       	movw	r14, r28
    1344:	89 e0       	ldi	r24, 0x09	; 9
    1346:	e8 0e       	add	r14, r24
    1348:	f1 1c       	adc	r15, r1
    134a:	ff 92       	push	r15
    134c:	ef 92       	push	r14
    134e:	0e 94 ef 17 	call	0x2fde	; 0x2fde <sprintf>
    1352:	b7 01       	movw	r22, r14
    1354:	c8 01       	movw	r24, r16
    1356:	0e 94 96 17 	call	0x2f2c	; 0x2f2c <strcat>
    135a:	0f 90       	pop	r0
    135c:	0f 90       	pop	r0
    135e:	0f 90       	pop	r0
    1360:	0f 90       	pop	r0
    1362:	0f 90       	pop	r0
    1364:	0f 90       	pop	r0
    1366:	2e 96       	adiw	r28, 0x0e	; 14
    1368:	cd bf       	out	0x3d, r28	; 61
    136a:	de bf       	out	0x3e, r29	; 62
    136c:	df 91       	pop	r29
    136e:	cf 91       	pop	r28
    1370:	1f 91       	pop	r17
    1372:	0f 91       	pop	r16
    1374:	ff 90       	pop	r15
    1376:	ef 90       	pop	r14
    1378:	08 95       	ret

0000137a <format_ERR>:
    137a:	ef 92       	push	r14
    137c:	ff 92       	push	r15
    137e:	0f 93       	push	r16
    1380:	1f 93       	push	r17
    1382:	cf 93       	push	r28
    1384:	df 93       	push	r29
    1386:	cd b7       	in	r28, 0x3d	; 61
    1388:	de b7       	in	r29, 0x3e	; 62
    138a:	28 97       	sbiw	r28, 0x08	; 8
    138c:	cd bf       	out	0x3d, r28	; 61
    138e:	de bf       	out	0x3e, r29	; 62
    1390:	08 2f       	mov	r16, r24
    1392:	19 2f       	mov	r17, r25
    1394:	88 e0       	ldi	r24, 0x08	; 8
    1396:	e4 ea       	ldi	r30, 0xA4	; 164
    1398:	f1 e7       	ldi	r31, 0x71	; 113
    139a:	9e 01       	movw	r18, r28
    139c:	2f 5f       	subi	r18, 0xFF	; 255
    139e:	3f 4f       	sbci	r19, 0xFF	; 255
    13a0:	79 01       	movw	r14, r18
    13a2:	d9 01       	movw	r26, r18
    13a4:	01 90       	ld	r0, Z+
    13a6:	0d 92       	st	X+, r0
    13a8:	8a 95       	dec	r24
    13aa:	e1 f7       	brne	.-8      	; 0x13a4 <format_ERR+0x2a>
    13ac:	0e 94 36 01 	call	0x26c	; 0x26c <get_specID>
    13b0:	1f 92       	push	r1
    13b2:	8f 93       	push	r24
    13b4:	ff 92       	push	r15
    13b6:	ef 92       	push	r14
    13b8:	1f 93       	push	r17
    13ba:	0f 93       	push	r16
    13bc:	0e 94 ef 17 	call	0x2fde	; 0x2fde <sprintf>
    13c0:	80 2f       	mov	r24, r16
    13c2:	91 2f       	mov	r25, r17
    13c4:	0e 94 72 09 	call	0x12e4	; 0x12e4 <checksum_NMEA>
    13c8:	0f 90       	pop	r0
    13ca:	0f 90       	pop	r0
    13cc:	0f 90       	pop	r0
    13ce:	0f 90       	pop	r0
    13d0:	0f 90       	pop	r0
    13d2:	0f 90       	pop	r0
    13d4:	28 96       	adiw	r28, 0x08	; 8
    13d6:	cd bf       	out	0x3d, r28	; 61
    13d8:	de bf       	out	0x3e, r29	; 62
    13da:	df 91       	pop	r29
    13dc:	cf 91       	pop	r28
    13de:	1f 91       	pop	r17
    13e0:	0f 91       	pop	r16
    13e2:	ff 90       	pop	r15
    13e4:	ef 90       	pop	r14
    13e6:	08 95       	ret

000013e8 <write_OLED>:
    13e8:	cf 93       	push	r28
    13ea:	df 93       	push	r29
    13ec:	d6 2f       	mov	r29, r22
    13ee:	c4 2f       	mov	r28, r20
    13f0:	60 e0       	ldi	r22, 0x00	; 0
    13f2:	0e 94 72 01 	call	0x2e4	; 0x2e4 <start_TWI>
    13f6:	8d 2f       	mov	r24, r29
    13f8:	0e 94 96 01 	call	0x32c	; 0x32c <write_TWI>
    13fc:	8c 2f       	mov	r24, r28
    13fe:	0e 94 96 01 	call	0x32c	; 0x32c <write_TWI>
    1402:	87 e0       	ldi	r24, 0x07	; 7
    1404:	80 93 a4 08 	sts	0x08A4, r24	; 0x8008a4 <__TEXT_REGION_LENGTH__+0x7f48a4>
    1408:	df 91       	pop	r29
    140a:	cf 91       	pop	r28
    140c:	08 95       	ret

0000140e <init_OLED>:
    140e:	cf 93       	push	r28
    1410:	81 11       	cpse	r24, r1
    1412:	0d c0       	rjmp	.+26     	; 0x142e <init_OLED+0x20>
    1414:	e0 e8       	ldi	r30, 0x80	; 128
    1416:	f4 e0       	ldi	r31, 0x04	; 4
    1418:	81 e0       	ldi	r24, 0x01	; 1
    141a:	86 83       	std	Z+6, r24	; 0x06
    141c:	81 83       	std	Z+1, r24	; 0x01
    141e:	a1 e4       	ldi	r26, 0x41	; 65
    1420:	b3 e0       	ldi	r27, 0x03	; 3
    1422:	11 97       	sbiw	r26, 0x01	; 1
    1424:	f1 f7       	brne	.-4      	; 0x1422 <init_OLED+0x14>
    1426:	00 00       	nop
    1428:	85 83       	std	Z+5, r24	; 0x05
    142a:	c8 e7       	ldi	r28, 0x78	; 120
    142c:	0c c0       	rjmp	.+24     	; 0x1446 <init_OLED+0x38>
    142e:	e0 e8       	ldi	r30, 0x80	; 128
    1430:	f4 e0       	ldi	r31, 0x04	; 4
    1432:	82 e0       	ldi	r24, 0x02	; 2
    1434:	86 83       	std	Z+6, r24	; 0x06
    1436:	81 83       	std	Z+1, r24	; 0x01
    1438:	a1 e4       	ldi	r26, 0x41	; 65
    143a:	b3 e0       	ldi	r27, 0x03	; 3
    143c:	11 97       	sbiw	r26, 0x01	; 1
    143e:	f1 f7       	brne	.-4      	; 0x143c <init_OLED+0x2e>
    1440:	00 00       	nop
    1442:	85 83       	std	Z+5, r24	; 0x05
    1444:	ca e7       	ldi	r28, 0x7A	; 122
    1446:	4a e2       	ldi	r20, 0x2A	; 42
    1448:	60 e0       	ldi	r22, 0x00	; 0
    144a:	8c 2f       	mov	r24, r28
    144c:	0e 94 f4 09 	call	0x13e8	; 0x13e8 <write_OLED>
    1450:	41 e7       	ldi	r20, 0x71	; 113
    1452:	60 e0       	ldi	r22, 0x00	; 0
    1454:	8c 2f       	mov	r24, r28
    1456:	0e 94 f4 09 	call	0x13e8	; 0x13e8 <write_OLED>
    145a:	4c e5       	ldi	r20, 0x5C	; 92
    145c:	60 e4       	ldi	r22, 0x40	; 64
    145e:	8c 2f       	mov	r24, r28
    1460:	0e 94 f4 09 	call	0x13e8	; 0x13e8 <write_OLED>
    1464:	48 e2       	ldi	r20, 0x28	; 40
    1466:	60 e0       	ldi	r22, 0x00	; 0
    1468:	8c 2f       	mov	r24, r28
    146a:	0e 94 f4 09 	call	0x13e8	; 0x13e8 <write_OLED>
    146e:	48 e0       	ldi	r20, 0x08	; 8
    1470:	60 e0       	ldi	r22, 0x00	; 0
    1472:	8c 2f       	mov	r24, r28
    1474:	0e 94 f4 09 	call	0x13e8	; 0x13e8 <write_OLED>
    1478:	4a e2       	ldi	r20, 0x2A	; 42
    147a:	60 e0       	ldi	r22, 0x00	; 0
    147c:	8c 2f       	mov	r24, r28
    147e:	0e 94 f4 09 	call	0x13e8	; 0x13e8 <write_OLED>
    1482:	49 e7       	ldi	r20, 0x79	; 121
    1484:	60 e0       	ldi	r22, 0x00	; 0
    1486:	8c 2f       	mov	r24, r28
    1488:	0e 94 f4 09 	call	0x13e8	; 0x13e8 <write_OLED>
    148c:	45 ed       	ldi	r20, 0xD5	; 213
    148e:	60 e0       	ldi	r22, 0x00	; 0
    1490:	8c 2f       	mov	r24, r28
    1492:	0e 94 f4 09 	call	0x13e8	; 0x13e8 <write_OLED>
    1496:	40 e7       	ldi	r20, 0x70	; 112
    1498:	60 e0       	ldi	r22, 0x00	; 0
    149a:	8c 2f       	mov	r24, r28
    149c:	0e 94 f4 09 	call	0x13e8	; 0x13e8 <write_OLED>
    14a0:	48 e7       	ldi	r20, 0x78	; 120
    14a2:	60 e0       	ldi	r22, 0x00	; 0
    14a4:	8c 2f       	mov	r24, r28
    14a6:	0e 94 f4 09 	call	0x13e8	; 0x13e8 <write_OLED>
    14aa:	48 e0       	ldi	r20, 0x08	; 8
    14ac:	60 e0       	ldi	r22, 0x00	; 0
    14ae:	8c 2f       	mov	r24, r28
    14b0:	0e 94 f4 09 	call	0x13e8	; 0x13e8 <write_OLED>
    14b4:	46 e0       	ldi	r20, 0x06	; 6
    14b6:	60 e0       	ldi	r22, 0x00	; 0
    14b8:	8c 2f       	mov	r24, r28
    14ba:	0e 94 f4 09 	call	0x13e8	; 0x13e8 <write_OLED>
    14be:	42 e7       	ldi	r20, 0x72	; 114
    14c0:	60 e0       	ldi	r22, 0x00	; 0
    14c2:	8c 2f       	mov	r24, r28
    14c4:	0e 94 f4 09 	call	0x13e8	; 0x13e8 <write_OLED>
    14c8:	40 e0       	ldi	r20, 0x00	; 0
    14ca:	60 e4       	ldi	r22, 0x40	; 64
    14cc:	8c 2f       	mov	r24, r28
    14ce:	0e 94 f4 09 	call	0x13e8	; 0x13e8 <write_OLED>
    14d2:	4a e2       	ldi	r20, 0x2A	; 42
    14d4:	60 e0       	ldi	r22, 0x00	; 0
    14d6:	8c 2f       	mov	r24, r28
    14d8:	0e 94 f4 09 	call	0x13e8	; 0x13e8 <write_OLED>
    14dc:	49 e7       	ldi	r20, 0x79	; 121
    14de:	60 e0       	ldi	r22, 0x00	; 0
    14e0:	8c 2f       	mov	r24, r28
    14e2:	0e 94 f4 09 	call	0x13e8	; 0x13e8 <write_OLED>
    14e6:	4a ed       	ldi	r20, 0xDA	; 218
    14e8:	60 e0       	ldi	r22, 0x00	; 0
    14ea:	8c 2f       	mov	r24, r28
    14ec:	0e 94 f4 09 	call	0x13e8	; 0x13e8 <write_OLED>
    14f0:	40 e0       	ldi	r20, 0x00	; 0
    14f2:	60 e0       	ldi	r22, 0x00	; 0
    14f4:	8c 2f       	mov	r24, r28
    14f6:	0e 94 f4 09 	call	0x13e8	; 0x13e8 <write_OLED>
    14fa:	4c ed       	ldi	r20, 0xDC	; 220
    14fc:	60 e0       	ldi	r22, 0x00	; 0
    14fe:	8c 2f       	mov	r24, r28
    1500:	0e 94 f4 09 	call	0x13e8	; 0x13e8 <write_OLED>
    1504:	40 e0       	ldi	r20, 0x00	; 0
    1506:	60 e0       	ldi	r22, 0x00	; 0
    1508:	8c 2f       	mov	r24, r28
    150a:	0e 94 f4 09 	call	0x13e8	; 0x13e8 <write_OLED>
    150e:	41 e8       	ldi	r20, 0x81	; 129
    1510:	60 e0       	ldi	r22, 0x00	; 0
    1512:	8c 2f       	mov	r24, r28
    1514:	0e 94 f4 09 	call	0x13e8	; 0x13e8 <write_OLED>
    1518:	4f e7       	ldi	r20, 0x7F	; 127
    151a:	60 e0       	ldi	r22, 0x00	; 0
    151c:	8c 2f       	mov	r24, r28
    151e:	0e 94 f4 09 	call	0x13e8	; 0x13e8 <write_OLED>
    1522:	49 ed       	ldi	r20, 0xD9	; 217
    1524:	60 e0       	ldi	r22, 0x00	; 0
    1526:	8c 2f       	mov	r24, r28
    1528:	0e 94 f4 09 	call	0x13e8	; 0x13e8 <write_OLED>
    152c:	41 ef       	ldi	r20, 0xF1	; 241
    152e:	60 e0       	ldi	r22, 0x00	; 0
    1530:	8c 2f       	mov	r24, r28
    1532:	0e 94 f4 09 	call	0x13e8	; 0x13e8 <write_OLED>
    1536:	4b ed       	ldi	r20, 0xDB	; 219
    1538:	60 e0       	ldi	r22, 0x00	; 0
    153a:	8c 2f       	mov	r24, r28
    153c:	0e 94 f4 09 	call	0x13e8	; 0x13e8 <write_OLED>
    1540:	40 e4       	ldi	r20, 0x40	; 64
    1542:	60 e0       	ldi	r22, 0x00	; 0
    1544:	8c 2f       	mov	r24, r28
    1546:	0e 94 f4 09 	call	0x13e8	; 0x13e8 <write_OLED>
    154a:	48 e7       	ldi	r20, 0x78	; 120
    154c:	60 e0       	ldi	r22, 0x00	; 0
    154e:	8c 2f       	mov	r24, r28
    1550:	0e 94 f4 09 	call	0x13e8	; 0x13e8 <write_OLED>
    1554:	48 e2       	ldi	r20, 0x28	; 40
    1556:	60 e0       	ldi	r22, 0x00	; 0
    1558:	8c 2f       	mov	r24, r28
    155a:	0e 94 f4 09 	call	0x13e8	; 0x13e8 <write_OLED>
    155e:	41 e0       	ldi	r20, 0x01	; 1
    1560:	60 e0       	ldi	r22, 0x00	; 0
    1562:	8c 2f       	mov	r24, r28
    1564:	0e 94 f4 09 	call	0x13e8	; 0x13e8 <write_OLED>
    1568:	40 e8       	ldi	r20, 0x80	; 128
    156a:	60 e0       	ldi	r22, 0x00	; 0
    156c:	8c 2f       	mov	r24, r28
    156e:	0e 94 f4 09 	call	0x13e8	; 0x13e8 <write_OLED>
    1572:	4c e0       	ldi	r20, 0x0C	; 12
    1574:	60 e0       	ldi	r22, 0x00	; 0
    1576:	8c 2f       	mov	r24, r28
    1578:	0e 94 f4 09 	call	0x13e8	; 0x13e8 <write_OLED>
    157c:	ba e6       	ldi	r27, 0x6A	; 106
    157e:	24 e0       	ldi	r18, 0x04	; 4
    1580:	81 e0       	ldi	r24, 0x01	; 1
    1582:	b1 50       	subi	r27, 0x01	; 1
    1584:	20 40       	sbci	r18, 0x00	; 0
    1586:	80 40       	sbci	r24, 0x00	; 0
    1588:	e1 f7       	brne	.-8      	; 0x1582 <init_OLED+0x174>
    158a:	00 c0       	rjmp	.+0      	; 0x158c <init_OLED+0x17e>
    158c:	cf 91       	pop	r28
    158e:	08 95       	ret

00001590 <get_BOOTTIME>:
void update_VERSION(void);

void get_BOOTTIME(char *boottime)
{

	eeprom_read_block((void *)boottime, (const void *)BOOTTIMEADDR, BOOTTIMESIZE);
    1590:	45 e1       	ldi	r20, 0x15	; 21
    1592:	50 e0       	ldi	r21, 0x00	; 0
    1594:	6b e0       	ldi	r22, 0x0B	; 11
    1596:	70 e0       	ldi	r23, 0x00	; 0
    1598:	0e 94 6f 18 	call	0x30de	; 0x30de <eeprom_read_block>
    159c:	08 95       	ret

0000159e <get_VERSION>:
}

void get_VERSION(char *version)
{

	eeprom_read_block((void *)version, (const void *)VERSIONADDR, VERSIONSIZE);
    159e:	4b e0       	ldi	r20, 0x0B	; 11
    15a0:	50 e0       	ldi	r21, 0x00	; 0
    15a2:	60 e0       	ldi	r22, 0x00	; 0
    15a4:	70 e0       	ldi	r23, 0x00	; 0
    15a6:	0e 94 6f 18 	call	0x30de	; 0x30de <eeprom_read_block>
    15aa:	08 95       	ret

000015ac <update_BOOTTIME>:
	update_VERSION();

}

void update_BOOTTIME(void)
{
    15ac:	cf 93       	push	r28
    15ae:	df 93       	push	r29
    15b0:	cd b7       	in	r28, 0x3d	; 61
    15b2:	de b7       	in	r29, 0x3e	; 62
    15b4:	65 97       	sbiw	r28, 0x15	; 21
    15b6:	cd bf       	out	0x3d, r28	; 61
    15b8:	de bf       	out	0x3e, r29	; 62

	char boottime[21];

	get_time(boottime);
    15ba:	ce 01       	movw	r24, r28
    15bc:	01 96       	adiw	r24, 0x01	; 1
    15be:	0e 94 d4 07 	call	0xfa8	; 0xfa8 <get_time>
	eeprom_update_block((const void *)boottime, (void *)BOOTTIMEADDR, BOOTTIMESIZE);
    15c2:	45 e1       	ldi	r20, 0x15	; 21
    15c4:	50 e0       	ldi	r21, 0x00	; 0
    15c6:	6b e0       	ldi	r22, 0x0B	; 11
    15c8:	70 e0       	ldi	r23, 0x00	; 0
    15ca:	ce 01       	movw	r24, r28
    15cc:	01 96       	adiw	r24, 0x01	; 1
    15ce:	0e 94 73 18 	call	0x30e6	; 0x30e6 <eeprom_update_block>

}
    15d2:	65 96       	adiw	r28, 0x15	; 21
    15d4:	cd bf       	out	0x3d, r28	; 61
    15d6:	de bf       	out	0x3e, r29	; 62
    15d8:	df 91       	pop	r29
    15da:	cf 91       	pop	r28
    15dc:	08 95       	ret

000015de <update_VERSION>:

void update_VERSION(void)
{
    15de:	cf 93       	push	r28
    15e0:	df 93       	push	r29
    15e2:	cd b7       	in	r28, 0x3d	; 61
    15e4:	de b7       	in	r29, 0x3e	; 62
    15e6:	2b 97       	sbiw	r28, 0x0b	; 11
    15e8:	cd bf       	out	0x3d, r28	; 61
    15ea:	de bf       	out	0x3e, r29	; 62

	char version[11];

	strcpy(version, VERSION);
    15ec:	8b e0       	ldi	r24, 0x0B	; 11
    15ee:	ed eb       	ldi	r30, 0xBD	; 189
    15f0:	f1 e7       	ldi	r31, 0x71	; 113
    15f2:	de 01       	movw	r26, r28
    15f4:	11 96       	adiw	r26, 0x01	; 1
    15f6:	01 90       	ld	r0, Z+
    15f8:	0d 92       	st	X+, r0
    15fa:	8a 95       	dec	r24
    15fc:	e1 f7       	brne	.-8      	; 0x15f6 <update_VERSION+0x18>
	eeprom_update_block((const void *)version, (void *)VERSIONADDR, VERSIONSIZE);
    15fe:	4b e0       	ldi	r20, 0x0B	; 11
    1600:	50 e0       	ldi	r21, 0x00	; 0
    1602:	60 e0       	ldi	r22, 0x00	; 0
    1604:	70 e0       	ldi	r23, 0x00	; 0
    1606:	ce 01       	movw	r24, r28
    1608:	01 96       	adiw	r24, 0x01	; 1
    160a:	0e 94 73 18 	call	0x30e6	; 0x30e6 <eeprom_update_block>

}
    160e:	2b 96       	adiw	r28, 0x0b	; 11
    1610:	cd bf       	out	0x3d, r28	; 61
    1612:	de bf       	out	0x3e, r29	; 62
    1614:	df 91       	pop	r29
    1616:	cf 91       	pop	r28
    1618:	08 95       	ret

0000161a <init_EEPROM>:
}

void init_EEPROM(void)
{

	update_BOOTTIME();
    161a:	0e 94 d6 0a 	call	0x15ac	; 0x15ac <update_BOOTTIME>
	update_VERSION();
    161e:	0e 94 ef 0a 	call	0x15de	; 0x15de <update_VERSION>
    1622:	08 95       	ret

00001624 <reboot>:
void reboot(void);

void reboot(void)
{

	CPU_CCP = CCP_IOREG_gc;
    1624:	88 ed       	ldi	r24, 0xD8	; 216
    1626:	84 bf       	out	0x34, r24	; 52
	WDT.CTRLA = WDT_PERIOD_8CLK_gc;
    1628:	81 e0       	ldi	r24, 0x01	; 1
    162a:	80 93 00 01 	sts	0x0100, r24	; 0x800100 <__TEXT_REGION_LENGTH__+0x7f4100>
    162e:	08 95       	ret

00001630 <echo_cmd>:
/*------------------------------------------------------------------------------
void echo_cmd(char *cmdline)
	Echo the command line back to the user, adding the NMEA header and checksum.
------------------------------------------------------------------------------*/
void echo_cmd(char *cmdline)
{
    1630:	ef 92       	push	r14
    1632:	ff 92       	push	r15
    1634:	0f 93       	push	r16
    1636:	1f 93       	push	r17
    1638:	cf 93       	push	r28
    163a:	df 93       	push	r29
    163c:	cd b7       	in	r28, 0x3d	; 61
    163e:	de b7       	in	r29, 0x3e	; 62
    1640:	c5 59       	subi	r28, 0x95	; 149
    1642:	d1 09       	sbc	r29, r1
    1644:	cd bf       	out	0x3d, r28	; 61
    1646:	de bf       	out	0x3e, r29	; 62
    1648:	f8 2e       	mov	r15, r24
    164a:	e9 2e       	mov	r14, r25

	char format_CMD[] = "$S%dCMD,%s";
    164c:	8b e0       	ldi	r24, 0x0B	; 11
    164e:	e8 ec       	ldi	r30, 0xC8	; 200
    1650:	f1 e7       	ldi	r31, 0x71	; 113
    1652:	8e 01       	movw	r16, r28
    1654:	0f 5f       	subi	r16, 0xFF	; 255
    1656:	1f 4f       	sbci	r17, 0xFF	; 255
    1658:	d8 01       	movw	r26, r16
    165a:	01 90       	ld	r0, Z+
    165c:	0d 92       	st	X+, r0
    165e:	8a 95       	dec	r24
    1660:	e1 f7       	brne	.-8      	; 0x165a <echo_cmd+0x2a>
	char strbuf[BUFSIZE+10];		// Add $SXCMD, and *HH checksum

		// Format and echo the command line
	sprintf(strbuf, format_CMD, get_specID(), cmdline);
    1662:	0e 94 36 01 	call	0x26c	; 0x26c <get_specID>
    1666:	ef 92       	push	r14
    1668:	ff 92       	push	r15
    166a:	1f 92       	push	r1
    166c:	8f 93       	push	r24
    166e:	1f 93       	push	r17
    1670:	0f 93       	push	r16
    1672:	05 5f       	subi	r16, 0xF5	; 245
    1674:	1f 4f       	sbci	r17, 0xFF	; 255
    1676:	1f 93       	push	r17
    1678:	0f 93       	push	r16
    167a:	0e 94 ef 17 	call	0x2fde	; 0x2fde <sprintf>
	checksum_NMEA(strbuf);
    167e:	c8 01       	movw	r24, r16
    1680:	0e 94 72 09 	call	0x12e4	; 0x12e4 <checksum_NMEA>
	send_USART(0, (uint8_t*) strbuf, strlen(strbuf));
    1684:	f8 01       	movw	r30, r16
    1686:	01 90       	ld	r0, Z+
    1688:	00 20       	and	r0, r0
    168a:	e9 f7       	brne	.-6      	; 0x1686 <echo_cmd+0x56>
    168c:	31 97       	sbiw	r30, 0x01	; 1
    168e:	af 01       	movw	r20, r30
    1690:	40 1b       	sub	r20, r16
    1692:	51 0b       	sbc	r21, r17
    1694:	b8 01       	movw	r22, r16
    1696:	80 e0       	ldi	r24, 0x00	; 0
    1698:	0e 94 0b 05 	call	0xa16	; 0xa16 <send_USART>

}
    169c:	cd bf       	out	0x3d, r28	; 61
    169e:	de bf       	out	0x3e, r29	; 62
    16a0:	cb 56       	subi	r28, 0x6B	; 107
    16a2:	df 4f       	sbci	r29, 0xFF	; 255
    16a4:	cd bf       	out	0x3d, r28	; 61
    16a6:	de bf       	out	0x3e, r29	; 62
    16a8:	df 91       	pop	r29
    16aa:	cf 91       	pop	r28
    16ac:	1f 91       	pop	r17
    16ae:	0f 91       	pop	r16
    16b0:	ff 90       	pop	r15
    16b2:	ef 90       	pop	r14
    16b4:	08 95       	ret

000016b6 <isaletter>:
/*------------------------------------------------------------------------------
uint8_t isaletter(char c)
	Checks if the character is in the range A-Z and a-z
------------------------------------------------------------------------------*/
uint8_t isaletter(char c)
{
    16b6:	8f 7d       	andi	r24, 0xDF	; 223
    16b8:	9f eb       	ldi	r25, 0xBF	; 191
    16ba:	98 0f       	add	r25, r24
    16bc:	81 e0       	ldi	r24, 0x01	; 1
    16be:	9a 31       	cpi	r25, 0x1A	; 26
    16c0:	08 f0       	brcs	.+2      	; 0x16c4 <isaletter+0xe>
    16c2:	80 e0       	ldi	r24, 0x00	; 0
		return(1);
	}

	return(0);

}
    16c4:	08 95       	ret

000016c6 <parse_cmd>:
		ID - An identifier selected by the user, a character string.
	These components are in the ParsedCMD structure defined in main.c. The pcmd
	variable is a ParsedCMD array.
------------------------------------------------------------------------------*/
void parse_cmd(char *ptr, uint8_t n)
{
    16c6:	cf 92       	push	r12
    16c8:	df 92       	push	r13
    16ca:	ef 92       	push	r14
    16cc:	ff 92       	push	r15
    16ce:	0f 93       	push	r16
    16d0:	1f 93       	push	r17
    16d2:	cf 93       	push	r28
    16d4:	df 93       	push	r29
    16d6:	06 2f       	mov	r16, r22

	uint8_t i;

		// Clear the command parts
	pcmd[n].cverb = '?';
    16d8:	c6 2e       	mov	r12, r22
    16da:	d1 2c       	mov	r13, r1
    16dc:	24 e3       	ldi	r18, 0x34	; 52
    16de:	62 9f       	mul	r22, r18
    16e0:	f0 01       	movw	r30, r0
    16e2:	11 24       	eor	r1, r1
    16e4:	ed 5f       	subi	r30, 0xFD	; 253
    16e6:	f7 4d       	sbci	r31, 0xD7	; 215
    16e8:	2f e3       	ldi	r18, 0x3F	; 63
    16ea:	20 83       	st	Z, r18
	pcmd[n].cobject = '?';
    16ec:	21 83       	std	Z+1, r18	; 0x01
	pcmd[n].cvalue[0] = '\0';
    16ee:	12 82       	std	Z+2, r1	; 0x02
	pcmd[n].cid[0] = '\0';
    16f0:	13 a6       	std	Z+43, r1	; 0x2b
    16f2:	ec 01       	movw	r28, r24

		// Find the verb
	while (!isaletter(*ptr)) {
    16f4:	03 c0       	rjmp	.+6      	; 0x16fc <parse_cmd+0x36>
		if (*ptr == '\0') {
    16f6:	11 23       	and	r17, r17
    16f8:	09 f4       	brne	.+2      	; 0x16fc <parse_cmd+0x36>
    16fa:	94 c0       	rjmp	.+296    	; 0x1824 <__DATA_REGION_LENGTH__+0x24>
    16fc:	7e 01       	movw	r14, r28
	pcmd[n].cobject = '?';
	pcmd[n].cvalue[0] = '\0';
	pcmd[n].cid[0] = '\0';

		// Find the verb
	while (!isaletter(*ptr)) {
    16fe:	19 91       	ld	r17, Y+
    1700:	81 2f       	mov	r24, r17
    1702:	0e 94 5b 0b 	call	0x16b6	; 0x16b6 <isaletter>
    1706:	88 23       	and	r24, r24
    1708:	b1 f3       	breq	.-20     	; 0x16f6 <parse_cmd+0x30>
		if (*ptr == '\0') {
			return;
		}
		ptr++;
	}
	pcmd[n].cverb = *ptr++;
    170a:	84 e3       	ldi	r24, 0x34	; 52
    170c:	8c 9d       	mul	r24, r12
    170e:	f0 01       	movw	r30, r0
    1710:	8d 9d       	mul	r24, r13
    1712:	f0 0d       	add	r31, r0
    1714:	11 24       	eor	r1, r1
    1716:	ed 5f       	subi	r30, 0xFD	; 253
    1718:	f7 4d       	sbci	r31, 0xD7	; 215
    171a:	10 83       	st	Z, r17
    171c:	e7 01       	movw	r28, r14
    171e:	21 96       	adiw	r28, 0x01	; 1

		// Find the object
	while (!isaletter(*ptr)) {
    1720:	03 c0       	rjmp	.+6      	; 0x1728 <parse_cmd+0x62>
		if (*ptr == '\0') {
    1722:	11 23       	and	r17, r17
    1724:	09 f4       	brne	.+2      	; 0x1728 <parse_cmd+0x62>
    1726:	7e c0       	rjmp	.+252    	; 0x1824 <__DATA_REGION_LENGTH__+0x24>
    1728:	7e 01       	movw	r14, r28
		ptr++;
	}
	pcmd[n].cverb = *ptr++;

		// Find the object
	while (!isaletter(*ptr)) {
    172a:	19 91       	ld	r17, Y+
    172c:	81 2f       	mov	r24, r17
    172e:	0e 94 5b 0b 	call	0x16b6	; 0x16b6 <isaletter>
    1732:	88 23       	and	r24, r24
    1734:	b1 f3       	breq	.-20     	; 0x1722 <parse_cmd+0x5c>
		if (*ptr == '\0') {
			return;
		}
		ptr++;
	}
	pcmd[n].cobject = *ptr++;
    1736:	84 e3       	ldi	r24, 0x34	; 52
    1738:	8c 9d       	mul	r24, r12
    173a:	f0 01       	movw	r30, r0
    173c:	8d 9d       	mul	r24, r13
    173e:	f0 0d       	add	r31, r0
    1740:	11 24       	eor	r1, r1
    1742:	ed 5f       	subi	r30, 0xFD	; 253
    1744:	f7 4d       	sbci	r31, 0xD7	; 215
    1746:	11 83       	std	Z+1, r17	; 0x01

		// Get the value, if there is one
	for (i = 0; i < CVALUESIZE; i++) {
		if (*ptr == '\0') {
    1748:	f7 01       	movw	r30, r14
    174a:	81 81       	ldd	r24, Z+1	; 0x01
    174c:	88 23       	and	r24, r24
    174e:	59 f0       	breq	.+22     	; 0x1766 <parse_cmd+0xa0>
			pcmd[n].cvalue[i] = '\0';
			return;
		}
		if (*ptr == ';') {
    1750:	8b 33       	cpi	r24, 0x3B	; 59
    1752:	09 f0       	breq	.+2      	; 0x1756 <parse_cmd+0x90>
    1754:	55 c0       	rjmp	.+170    	; 0x1800 <__DATA_REGION_LENGTH__>
		if (*ptr == '\0') {
			return;
		}
		ptr++;
	}
	pcmd[n].cobject = *ptr++;
    1756:	de 01       	movw	r26, r28

		// Get the value, if there is one
	for (i = 0; i < CVALUESIZE; i++) {
    1758:	90 e0       	ldi	r25, 0x00	; 0
    175a:	14 c0       	rjmp	.+40     	; 0x1784 <parse_cmd+0xbe>
    175c:	df 01       	movw	r26, r30
		if (*ptr == '\0') {
    175e:	81 91       	ld	r24, Z+
    1760:	81 11       	cpse	r24, r1
    1762:	0e c0       	rjmp	.+28     	; 0x1780 <parse_cmd+0xba>
    1764:	01 c0       	rjmp	.+2      	; 0x1768 <parse_cmd+0xa2>
		ptr++;
	}
	pcmd[n].cobject = *ptr++;

		// Get the value, if there is one
	for (i = 0; i < CVALUESIZE; i++) {
    1766:	90 e0       	ldi	r25, 0x00	; 0
		if (*ptr == '\0') {
			pcmd[n].cvalue[i] = '\0';
    1768:	84 e3       	ldi	r24, 0x34	; 52
    176a:	8c 9d       	mul	r24, r12
    176c:	f0 01       	movw	r30, r0
    176e:	8d 9d       	mul	r24, r13
    1770:	f0 0d       	add	r31, r0
    1772:	11 24       	eor	r1, r1
    1774:	ed 5f       	subi	r30, 0xFD	; 253
    1776:	f7 4d       	sbci	r31, 0xD7	; 215
    1778:	e9 0f       	add	r30, r25
    177a:	f1 1d       	adc	r31, r1
    177c:	12 82       	std	Z+2, r1	; 0x02
			return;
    177e:	52 c0       	rjmp	.+164    	; 0x1824 <__DATA_REGION_LENGTH__+0x24>
		}
		if (*ptr == ';') {
    1780:	8b 33       	cpi	r24, 0x3B	; 59
    1782:	61 f4       	brne	.+24     	; 0x179c <parse_cmd+0xd6>
			pcmd[n].cvalue[i] = '\0';
    1784:	84 e3       	ldi	r24, 0x34	; 52
    1786:	8c 9d       	mul	r24, r12
    1788:	f0 01       	movw	r30, r0
    178a:	8d 9d       	mul	r24, r13
    178c:	f0 0d       	add	r31, r0
    178e:	11 24       	eor	r1, r1
    1790:	ed 5f       	subi	r30, 0xFD	; 253
    1792:	f7 4d       	sbci	r31, 0xD7	; 215
    1794:	e9 0f       	add	r30, r25
    1796:	f1 1d       	adc	r31, r1
    1798:	12 82       	std	Z+2, r1	; 0x02
			break;
    179a:	05 c0       	rjmp	.+10     	; 0x17a6 <parse_cmd+0xe0>
		}
		pcmd[n].cvalue[i] = *ptr++;
    179c:	df 01       	movw	r26, r30
    179e:	89 93       	st	Y+, r24
		ptr++;
	}
	pcmd[n].cobject = *ptr++;

		// Get the value, if there is one
	for (i = 0; i < CVALUESIZE; i++) {
    17a0:	9f 5f       	subi	r25, 0xFF	; 255
    17a2:	99 32       	cpi	r25, 0x29	; 41
    17a4:	d9 f6       	brne	.-74     	; 0x175c <parse_cmd+0x96>
	}

		// get the command ID if there is one
	ptr++;
	for (i = 0; i < CIDSIZE; i++) {
		if (*ptr == '\0') {
    17a6:	11 96       	adiw	r26, 0x01	; 1
    17a8:	8c 91       	ld	r24, X
    17aa:	11 97       	sbiw	r26, 0x01	; 1
    17ac:	81 11       	cpse	r24, r1
    17ae:	17 c0       	rjmp	.+46     	; 0x17de <parse_cmd+0x118>
    17b0:	04 c0       	rjmp	.+8      	; 0x17ba <parse_cmd+0xf4>
    17b2:	9d 91       	ld	r25, X+
    17b4:	91 11       	cpse	r25, r1
    17b6:	0e c0       	rjmp	.+28     	; 0x17d4 <parse_cmd+0x10e>
    17b8:	01 c0       	rjmp	.+2      	; 0x17bc <parse_cmd+0xf6>
		pcmd[n].cvalue[i] = *ptr++;
	}

		// get the command ID if there is one
	ptr++;
	for (i = 0; i < CIDSIZE; i++) {
    17ba:	80 e0       	ldi	r24, 0x00	; 0
		if (*ptr == '\0') {
			pcmd[n].cid[i] = '\0';
    17bc:	94 e3       	ldi	r25, 0x34	; 52
    17be:	9c 9d       	mul	r25, r12
    17c0:	f0 01       	movw	r30, r0
    17c2:	9d 9d       	mul	r25, r13
    17c4:	f0 0d       	add	r31, r0
    17c6:	11 24       	eor	r1, r1
    17c8:	ed 5f       	subi	r30, 0xFD	; 253
    17ca:	f7 4d       	sbci	r31, 0xD7	; 215
    17cc:	e8 0f       	add	r30, r24
    17ce:	f1 1d       	adc	r31, r1
    17d0:	13 a6       	std	Z+43, r1	; 0x2b
			return;
    17d2:	28 c0       	rjmp	.+80     	; 0x1824 <__DATA_REGION_LENGTH__+0x24>
		}
		pcmd[n].cid[i] = *ptr++;
    17d4:	91 93       	st	Z+, r25
		pcmd[n].cvalue[i] = *ptr++;
	}

		// get the command ID if there is one
	ptr++;
	for (i = 0; i < CIDSIZE; i++) {
    17d6:	8f 5f       	subi	r24, 0xFF	; 255
    17d8:	89 30       	cpi	r24, 0x09	; 9
    17da:	59 f7       	brne	.-42     	; 0x17b2 <parse_cmd+0xec>
    17dc:	23 c0       	rjmp	.+70     	; 0x1824 <__DATA_REGION_LENGTH__+0x24>
		if (*ptr == '\0') {
			pcmd[n].cid[i] = '\0';
			return;
		}
		pcmd[n].cid[i] = *ptr++;
    17de:	e4 e3       	ldi	r30, 0x34	; 52
    17e0:	ec 9d       	mul	r30, r12
    17e2:	e0 01       	movw	r28, r0
    17e4:	ed 9d       	mul	r30, r13
    17e6:	d0 0d       	add	r29, r0
    17e8:	11 24       	eor	r1, r1
    17ea:	cd 5f       	subi	r28, 0xFD	; 253
    17ec:	d7 4d       	sbci	r29, 0xD7	; 215
    17ee:	8b a7       	std	Y+43, r24	; 0x2b
    17f0:	12 96       	adiw	r26, 0x02	; 2
    17f2:	e0 9f       	mul	r30, r16
    17f4:	f0 01       	movw	r30, r0
    17f6:	11 24       	eor	r1, r1
    17f8:	e1 5d       	subi	r30, 0xD1	; 209
    17fa:	f7 4d       	sbci	r31, 0xD7	; 215
		pcmd[n].cvalue[i] = *ptr++;
	}

		// get the command ID if there is one
	ptr++;
	for (i = 0; i < CIDSIZE; i++) {
    17fc:	81 e0       	ldi	r24, 0x01	; 1
    17fe:	d9 cf       	rjmp	.-78     	; 0x17b2 <parse_cmd+0xec>
		}
		if (*ptr == ';') {
			pcmd[n].cvalue[i] = '\0';
			break;
		}
		pcmd[n].cvalue[i] = *ptr++;
    1800:	c4 e3       	ldi	r28, 0x34	; 52
    1802:	cc 9d       	mul	r28, r12
    1804:	f0 01       	movw	r30, r0
    1806:	cd 9d       	mul	r28, r13
    1808:	f0 0d       	add	r31, r0
    180a:	11 24       	eor	r1, r1
    180c:	ed 5f       	subi	r30, 0xFD	; 253
    180e:	f7 4d       	sbci	r31, 0xD7	; 215
    1810:	82 83       	std	Z+2, r24	; 0x02
    1812:	f7 01       	movw	r30, r14
    1814:	32 96       	adiw	r30, 0x02	; 2
    1816:	c0 9f       	mul	r28, r16
    1818:	e0 01       	movw	r28, r0
    181a:	11 24       	eor	r1, r1
    181c:	ca 5f       	subi	r28, 0xFA	; 250
    181e:	d7 4d       	sbci	r29, 0xD7	; 215
		ptr++;
	}
	pcmd[n].cobject = *ptr++;

		// Get the value, if there is one
	for (i = 0; i < CVALUESIZE; i++) {
    1820:	91 e0       	ldi	r25, 0x01	; 1
    1822:	9c cf       	rjmp	.-200    	; 0x175c <parse_cmd+0x96>
		pcmd[n].cid[i] = *ptr++;
	}	

	return;

}
    1824:	df 91       	pop	r29
    1826:	cf 91       	pop	r28
    1828:	1f 91       	pop	r17
    182a:	0f 91       	pop	r16
    182c:	ff 90       	pop	r15
    182e:	ef 90       	pop	r14
    1830:	df 90       	pop	r13
    1832:	cf 90       	pop	r12
    1834:	08 95       	ret

00001836 <report>:
	Returns
		0 - GREATERPROMPT on success
		1 - ERRORPROMPT on error (invalid command noun)
------------------------------------------------------------------------------*/
uint8_t report(uint8_t cstack)
{
    1836:	2f 92       	push	r2
    1838:	3f 92       	push	r3
    183a:	4f 92       	push	r4
    183c:	5f 92       	push	r5
    183e:	6f 92       	push	r6
    1840:	7f 92       	push	r7
    1842:	8f 92       	push	r8
    1844:	9f 92       	push	r9
    1846:	af 92       	push	r10
    1848:	bf 92       	push	r11
    184a:	cf 92       	push	r12
    184c:	df 92       	push	r13
    184e:	ef 92       	push	r14
    1850:	ff 92       	push	r15
    1852:	0f 93       	push	r16
    1854:	1f 93       	push	r17
    1856:	cf 93       	push	r28
    1858:	df 93       	push	r29
    185a:	cd b7       	in	r28, 0x3d	; 61
    185c:	de b7       	in	r29, 0x3e	; 62
    185e:	c4 5b       	subi	r28, 0xB4	; 180
    1860:	d1 40       	sbci	r29, 0x01	; 1
    1862:	cd bf       	out	0x3d, r28	; 61
    1864:	de bf       	out	0x3e, r29	; 62

	char outbuf[BUFSIZE+10], version[11];
	char currenttime[20], lastsettime[20], boottime[20];
	const char format_BTM[] = "$S%dBTM,%s,%s";
    1866:	9e e0       	ldi	r25, 0x0E	; 14
    1868:	e3 ed       	ldi	r30, 0xD3	; 211
    186a:	f1 e7       	ldi	r31, 0x71	; 113
    186c:	de 01       	movw	r26, r28
    186e:	ae 52       	subi	r26, 0x2E	; 46
    1870:	bf 4f       	sbci	r27, 0xFF	; 255
    1872:	01 90       	ld	r0, Z+
    1874:	0d 92       	st	X+, r0
    1876:	9a 95       	dec	r25
    1878:	e1 f7       	brne	.-8      	; 0x1872 <report+0x3c>
	const char format_ENV[] = "$S%dENV,%s,%3.1fC,%1.0f%%,%3.1fC,%1.0f%%,%3.1fC,%1.0f%%,%3.1fC,%s";
    187a:	92 e4       	ldi	r25, 0x42	; 66
    187c:	e1 ee       	ldi	r30, 0xE1	; 225
    187e:	f1 e7       	ldi	r31, 0x71	; 113
    1880:	de 01       	movw	r26, r28
    1882:	a0 52       	subi	r26, 0x20	; 32
    1884:	bf 4f       	sbci	r27, 0xFF	; 255
    1886:	01 90       	ld	r0, Z+
    1888:	0d 92       	st	X+, r0
    188a:	9a 95       	dec	r25
    188c:	e1 f7       	brne	.-8      	; 0x1886 <report+0x50>
	const char format_ORI[] = "$S%dORI,%s,%3.1f,%3.1f,%3.1f,%s";
    188e:	90 e2       	ldi	r25, 0x20	; 32
    1890:	e3 e2       	ldi	r30, 0x23	; 35
    1892:	f2 e7       	ldi	r31, 0x72	; 114
    1894:	de 01       	movw	r26, r28
    1896:	ae 5d       	subi	r26, 0xDE	; 222
    1898:	be 4f       	sbci	r27, 0xFE	; 254
    189a:	01 90       	ld	r0, Z+
    189c:	0d 92       	st	X+, r0
    189e:	9a 95       	dec	r25
    18a0:	e1 f7       	brne	.-8      	; 0x189a <report+0x64>
	const char format_TIM[] = "$S%dTIM,%s,%s,set,%s,boot,%s";
    18a2:	9d e1       	ldi	r25, 0x1D	; 29
    18a4:	e3 e4       	ldi	r30, 0x43	; 67
    18a6:	f2 e7       	ldi	r31, 0x72	; 114
    18a8:	de 01       	movw	r26, r28
    18aa:	ae 5b       	subi	r26, 0xBE	; 190
    18ac:	be 4f       	sbci	r27, 0xFE	; 254
    18ae:	01 90       	ld	r0, Z+
    18b0:	0d 92       	st	X+, r0
    18b2:	9a 95       	dec	r25
    18b4:	e1 f7       	brne	.-8      	; 0x18ae <report+0x78>
	const char format_VAC[] = "$S%dVAC,%s,%5.2f,redvac,%5.2f,bluevac,%s";
    18b6:	99 e2       	ldi	r25, 0x29	; 41
    18b8:	e0 e6       	ldi	r30, 0x60	; 96
    18ba:	f2 e7       	ldi	r31, 0x72	; 114
    18bc:	de 01       	movw	r26, r28
    18be:	a1 5a       	subi	r26, 0xA1	; 161
    18c0:	be 4f       	sbci	r27, 0xFE	; 254
    18c2:	01 90       	ld	r0, Z+
    18c4:	0d 92       	st	X+, r0
    18c6:	9a 95       	dec	r25
    18c8:	e1 f7       	brne	.-8      	; 0x18c2 <report+0x8c>
	const char format_VER[] = "$S%dVER,%s,%s,%s";
    18ca:	91 e1       	ldi	r25, 0x11	; 17
    18cc:	e9 e8       	ldi	r30, 0x89	; 137
    18ce:	f2 e7       	ldi	r31, 0x72	; 114
    18d0:	de 01       	movw	r26, r28
    18d2:	a8 57       	subi	r26, 0x78	; 120
    18d4:	be 4f       	sbci	r27, 0xFE	; 254
    18d6:	01 90       	ld	r0, Z+
    18d8:	0d 92       	st	X+, r0
    18da:	9a 95       	dec	r25
    18dc:	e1 f7       	brne	.-8      	; 0x18d6 <report+0xa0>
	float t0, t1, t2, t3, h0, h1, h2;		// temperature and humidity
	float x, y, z;							// accelerometer
	float redvac, bluvac;					// red and blue vacuum

	switch(pcmd[cstack].cobject) {
    18de:	08 2f       	mov	r16, r24
    18e0:	10 e0       	ldi	r17, 0x00	; 0
    18e2:	94 e3       	ldi	r25, 0x34	; 52
    18e4:	89 9f       	mul	r24, r25
    18e6:	f0 01       	movw	r30, r0
    18e8:	11 24       	eor	r1, r1
    18ea:	ed 5f       	subi	r30, 0xFD	; 253
    18ec:	f7 4d       	sbci	r31, 0xD7	; 215
    18ee:	81 81       	ldd	r24, Z+1	; 0x01
    18f0:	85 36       	cpi	r24, 0x65	; 101
    18f2:	09 f4       	brne	.+2      	; 0x18f6 <report+0xc0>
    18f4:	47 c0       	rjmp	.+142    	; 0x1984 <report+0x14e>
    18f6:	30 f4       	brcc	.+12     	; 0x1904 <report+0xce>
    18f8:	82 34       	cpi	r24, 0x42	; 66
    18fa:	71 f0       	breq	.+28     	; 0x1918 <report+0xe2>
    18fc:	86 35       	cpi	r24, 0x56	; 86
    18fe:	09 f4       	brne	.+2      	; 0x1902 <report+0xcc>
    1900:	75 c2       	rjmp	.+1258   	; 0x1dec <report+0x5b6>
    1902:	b3 c2       	rjmp	.+1382   	; 0x1e6a <report+0x634>
    1904:	84 37       	cpi	r24, 0x74	; 116
    1906:	09 f4       	brne	.+2      	; 0x190a <report+0xd4>
    1908:	d9 c1       	rjmp	.+946    	; 0x1cbc <report+0x486>
    190a:	86 37       	cpi	r24, 0x76	; 118
    190c:	09 f4       	brne	.+2      	; 0x1910 <report+0xda>
    190e:	22 c2       	rjmp	.+1092   	; 0x1d54 <report+0x51e>
    1910:	8f 36       	cpi	r24, 0x6F	; 111
    1912:	09 f0       	breq	.+2      	; 0x1916 <report+0xe0>
    1914:	aa c2       	rjmp	.+1364   	; 0x1e6a <report+0x634>
    1916:	48 c1       	rjmp	.+656    	; 0x1ba8 <report+0x372>

		case 'B':					// Boot time
			get_BOOTTIME(boottime);
    1918:	7e 01       	movw	r14, r28
    191a:	8e eb       	ldi	r24, 0xBE	; 190
    191c:	e8 0e       	add	r14, r24
    191e:	f1 1c       	adc	r15, r1
    1920:	c7 01       	movw	r24, r14
    1922:	0e 94 c8 0a 	call	0x1590	; 0x1590 <get_BOOTTIME>
			sprintf(outbuf, format_BTM, get_specID(), boottime, pcmd[cstack].cid);
    1926:	0e 94 36 01 	call	0x26c	; 0x26c <get_specID>
    192a:	94 e3       	ldi	r25, 0x34	; 52
    192c:	90 9f       	mul	r25, r16
    192e:	90 01       	movw	r18, r0
    1930:	91 9f       	mul	r25, r17
    1932:	30 0d       	add	r19, r0
    1934:	11 24       	eor	r1, r1
    1936:	22 5d       	subi	r18, 0xD2	; 210
    1938:	37 4d       	sbci	r19, 0xD7	; 215
    193a:	3f 93       	push	r19
    193c:	2f 93       	push	r18
    193e:	ff 92       	push	r15
    1940:	ef 92       	push	r14
    1942:	1f 92       	push	r1
    1944:	8f 93       	push	r24
    1946:	ce 01       	movw	r24, r28
    1948:	8e 52       	subi	r24, 0x2E	; 46
    194a:	9f 4f       	sbci	r25, 0xFF	; 255
    194c:	9f 93       	push	r25
    194e:	8f 93       	push	r24
    1950:	8e 01       	movw	r16, r28
    1952:	0f 5f       	subi	r16, 0xFF	; 255
    1954:	1f 4f       	sbci	r17, 0xFF	; 255
    1956:	1f 93       	push	r17
    1958:	0f 93       	push	r16
    195a:	0e 94 ef 17 	call	0x2fde	; 0x2fde <sprintf>
			checksum_NMEA(outbuf);
    195e:	c8 01       	movw	r24, r16
    1960:	0e 94 72 09 	call	0x12e4	; 0x12e4 <checksum_NMEA>
			send_USART(0, (uint8_t*) outbuf, strlen(outbuf));
    1964:	f8 01       	movw	r30, r16
    1966:	01 90       	ld	r0, Z+
    1968:	00 20       	and	r0, r0
    196a:	e9 f7       	brne	.-6      	; 0x1966 <report+0x130>
    196c:	31 97       	sbiw	r30, 0x01	; 1
    196e:	af 01       	movw	r20, r30
    1970:	40 1b       	sub	r20, r16
    1972:	51 0b       	sbc	r21, r17
    1974:	b8 01       	movw	r22, r16
    1976:	80 e0       	ldi	r24, 0x00	; 0
    1978:	0e 94 0b 05 	call	0xa16	; 0xa16 <send_USART>
			break;
    197c:	cd bf       	out	0x3d, r28	; 61
    197e:	de bf       	out	0x3e, r29	; 62
		default:
			return(ERRORPROMPT);
			break;
	}

	return(GREATERPROMPT);
    1980:	80 e0       	ldi	r24, 0x00	; 0
		case 'B':					// Boot time
			get_BOOTTIME(boottime);
			sprintf(outbuf, format_BTM, get_specID(), boottime, pcmd[cstack].cid);
			checksum_NMEA(outbuf);
			send_USART(0, (uint8_t*) outbuf, strlen(outbuf));
			break;
    1982:	74 c2       	rjmp	.+1256   	; 0x1e6c <report+0x636>

	switch (sensor) {
		case 0:
		case 1:
		case 2:
			temperature = read_AD590(sensor);
    1984:	80 e0       	ldi	r24, 0x00	; 0
    1986:	0e 94 72 03 	call	0x6e4	; 0x6e4 <read_AD590>
    198a:	c7 55       	subi	r28, 0x57	; 87
    198c:	de 4f       	sbci	r29, 0xFE	; 254
    198e:	68 83       	st	Y, r22
    1990:	c9 5a       	subi	r28, 0xA9	; 169
    1992:	d1 40       	sbci	r29, 0x01	; 1
    1994:	c6 55       	subi	r28, 0x56	; 86
    1996:	de 4f       	sbci	r29, 0xFE	; 254
    1998:	78 83       	st	Y, r23
    199a:	ca 5a       	subi	r28, 0xAA	; 170
    199c:	d1 40       	sbci	r29, 0x01	; 1
    199e:	c5 55       	subi	r28, 0x55	; 85
    19a0:	de 4f       	sbci	r29, 0xFE	; 254
    19a2:	88 83       	st	Y, r24
    19a4:	cb 5a       	subi	r28, 0xAB	; 171
    19a6:	d1 40       	sbci	r29, 0x01	; 1
    19a8:	c4 55       	subi	r28, 0x54	; 84
    19aa:	de 4f       	sbci	r29, 0xFE	; 254
    19ac:	98 83       	st	Y, r25
    19ae:	cc 5a       	subi	r28, 0xAC	; 172
    19b0:	d1 40       	sbci	r29, 0x01	; 1

		case 'e':					// Environment (temperature & humidity)
			t0 = get_temperature(0);
			h0 = get_humidity(0);
    19b2:	80 e0       	ldi	r24, 0x00	; 0
    19b4:	0e 94 12 04 	call	0x824	; 0x824 <get_humidity>
    19b8:	cb 55       	subi	r28, 0x5B	; 91
    19ba:	de 4f       	sbci	r29, 0xFE	; 254
    19bc:	68 83       	st	Y, r22
    19be:	c5 5a       	subi	r28, 0xA5	; 165
    19c0:	d1 40       	sbci	r29, 0x01	; 1
    19c2:	ca 55       	subi	r28, 0x5A	; 90
    19c4:	de 4f       	sbci	r29, 0xFE	; 254
    19c6:	78 83       	st	Y, r23
    19c8:	c6 5a       	subi	r28, 0xA6	; 166
    19ca:	d1 40       	sbci	r29, 0x01	; 1
    19cc:	c9 55       	subi	r28, 0x59	; 89
    19ce:	de 4f       	sbci	r29, 0xFE	; 254
    19d0:	88 83       	st	Y, r24
    19d2:	c7 5a       	subi	r28, 0xA7	; 167
    19d4:	d1 40       	sbci	r29, 0x01	; 1
    19d6:	c8 55       	subi	r28, 0x58	; 88
    19d8:	de 4f       	sbci	r29, 0xFE	; 254
    19da:	98 83       	st	Y, r25
    19dc:	c8 5a       	subi	r28, 0xA8	; 168
    19de:	d1 40       	sbci	r29, 0x01	; 1
    19e0:	81 e0       	ldi	r24, 0x01	; 1
    19e2:	0e 94 72 03 	call	0x6e4	; 0x6e4 <read_AD590>
    19e6:	c1 55       	subi	r28, 0x51	; 81
    19e8:	de 4f       	sbci	r29, 0xFE	; 254
    19ea:	68 83       	st	Y, r22
    19ec:	cf 5a       	subi	r28, 0xAF	; 175
    19ee:	d1 40       	sbci	r29, 0x01	; 1
    19f0:	c0 55       	subi	r28, 0x50	; 80
    19f2:	de 4f       	sbci	r29, 0xFE	; 254
    19f4:	78 83       	st	Y, r23
    19f6:	c0 5b       	subi	r28, 0xB0	; 176
    19f8:	d1 40       	sbci	r29, 0x01	; 1
    19fa:	cf 54       	subi	r28, 0x4F	; 79
    19fc:	de 4f       	sbci	r29, 0xFE	; 254
    19fe:	88 83       	st	Y, r24
    1a00:	c1 5b       	subi	r28, 0xB1	; 177
    1a02:	d1 40       	sbci	r29, 0x01	; 1
    1a04:	ce 54       	subi	r28, 0x4E	; 78
    1a06:	de 4f       	sbci	r29, 0xFE	; 254
    1a08:	98 83       	st	Y, r25
    1a0a:	c2 5b       	subi	r28, 0xB2	; 178
    1a0c:	d1 40       	sbci	r29, 0x01	; 1
			t1 = get_temperature(1);
			h1 = get_humidity(1);
    1a0e:	81 e0       	ldi	r24, 0x01	; 1
    1a10:	0e 94 12 04 	call	0x824	; 0x824 <get_humidity>
    1a14:	c3 55       	subi	r28, 0x53	; 83
    1a16:	de 4f       	sbci	r29, 0xFE	; 254
    1a18:	68 83       	st	Y, r22
    1a1a:	cd 5a       	subi	r28, 0xAD	; 173
    1a1c:	d1 40       	sbci	r29, 0x01	; 1
    1a1e:	c2 55       	subi	r28, 0x52	; 82
    1a20:	de 4f       	sbci	r29, 0xFE	; 254
    1a22:	78 83       	st	Y, r23
    1a24:	ce 5a       	subi	r28, 0xAE	; 174
    1a26:	d1 40       	sbci	r29, 0x01	; 1
    1a28:	d8 2e       	mov	r13, r24
    1a2a:	c9 2e       	mov	r12, r25
    1a2c:	82 e0       	ldi	r24, 0x02	; 2
    1a2e:	0e 94 72 03 	call	0x6e4	; 0x6e4 <read_AD590>
    1a32:	b6 2e       	mov	r11, r22
    1a34:	a7 2e       	mov	r10, r23
    1a36:	98 2e       	mov	r9, r24
    1a38:	89 2e       	mov	r8, r25
			t2 = get_temperature(2);
			h2 = get_humidity(2);
    1a3a:	82 e0       	ldi	r24, 0x02	; 2
    1a3c:	0e 94 12 04 	call	0x824	; 0x824 <get_humidity>
    1a40:	76 2e       	mov	r7, r22
    1a42:	67 2e       	mov	r6, r23
    1a44:	58 2e       	mov	r5, r24
    1a46:	49 2e       	mov	r4, r25
			break;
		case 3:
			temperature = read_MCP9808();
    1a48:	0e 94 c6 03 	call	0x78c	; 0x78c <read_MCP9808>
    1a4c:	cd 54       	subi	r28, 0x4D	; 77
    1a4e:	de 4f       	sbci	r29, 0xFE	; 254
    1a50:	68 83       	st	Y, r22
    1a52:	c3 5b       	subi	r28, 0xB3	; 179
    1a54:	d1 40       	sbci	r29, 0x01	; 1
    1a56:	cc 54       	subi	r28, 0x4C	; 76
    1a58:	de 4f       	sbci	r29, 0xFE	; 254
    1a5a:	78 83       	st	Y, r23
    1a5c:	c4 5b       	subi	r28, 0xB4	; 180
    1a5e:	d1 40       	sbci	r29, 0x01	; 1
    1a60:	38 2e       	mov	r3, r24
    1a62:	29 2e       	mov	r2, r25
			t3 = get_temperature(3);
			get_time(currenttime);
    1a64:	7e 01       	movw	r14, r28
    1a66:	96 e9       	ldi	r25, 0x96	; 150
    1a68:	e9 0e       	add	r14, r25
    1a6a:	f1 1c       	adc	r15, r1
    1a6c:	c7 01       	movw	r24, r14
    1a6e:	0e 94 d4 07 	call	0xfa8	; 0xfa8 <get_time>
			sprintf(outbuf, format_ENV, get_specID(), currenttime, t0, h0, t1, h1, t2, h2, t3, pcmd[cstack].cid);
    1a72:	0e 94 36 01 	call	0x26c	; 0x26c <get_specID>
    1a76:	94 e3       	ldi	r25, 0x34	; 52
    1a78:	90 9f       	mul	r25, r16
    1a7a:	90 01       	movw	r18, r0
    1a7c:	91 9f       	mul	r25, r17
    1a7e:	30 0d       	add	r19, r0
    1a80:	11 24       	eor	r1, r1
    1a82:	22 5d       	subi	r18, 0xD2	; 210
    1a84:	37 4d       	sbci	r19, 0xD7	; 215
    1a86:	3f 93       	push	r19
    1a88:	2f 93       	push	r18
    1a8a:	2f 92       	push	r2
    1a8c:	3f 92       	push	r3
    1a8e:	cc 54       	subi	r28, 0x4C	; 76
    1a90:	de 4f       	sbci	r29, 0xFE	; 254
    1a92:	98 81       	ld	r25, Y
    1a94:	c4 5b       	subi	r28, 0xB4	; 180
    1a96:	d1 40       	sbci	r29, 0x01	; 1
    1a98:	9f 93       	push	r25
    1a9a:	cd 54       	subi	r28, 0x4D	; 77
    1a9c:	de 4f       	sbci	r29, 0xFE	; 254
    1a9e:	98 81       	ld	r25, Y
    1aa0:	c3 5b       	subi	r28, 0xB3	; 179
    1aa2:	d1 40       	sbci	r29, 0x01	; 1
    1aa4:	9f 93       	push	r25
    1aa6:	4f 92       	push	r4
    1aa8:	5f 92       	push	r5
    1aaa:	6f 92       	push	r6
    1aac:	7f 92       	push	r7
    1aae:	8f 92       	push	r8
    1ab0:	9f 92       	push	r9
    1ab2:	af 92       	push	r10
    1ab4:	bf 92       	push	r11
    1ab6:	cf 92       	push	r12
    1ab8:	df 92       	push	r13
    1aba:	c2 55       	subi	r28, 0x52	; 82
    1abc:	de 4f       	sbci	r29, 0xFE	; 254
    1abe:	98 81       	ld	r25, Y
    1ac0:	ce 5a       	subi	r28, 0xAE	; 174
    1ac2:	d1 40       	sbci	r29, 0x01	; 1
    1ac4:	9f 93       	push	r25
    1ac6:	c3 55       	subi	r28, 0x53	; 83
    1ac8:	de 4f       	sbci	r29, 0xFE	; 254
    1aca:	98 81       	ld	r25, Y
    1acc:	cd 5a       	subi	r28, 0xAD	; 173
    1ace:	d1 40       	sbci	r29, 0x01	; 1
    1ad0:	9f 93       	push	r25
    1ad2:	ce 54       	subi	r28, 0x4E	; 78
    1ad4:	de 4f       	sbci	r29, 0xFE	; 254
    1ad6:	98 81       	ld	r25, Y
    1ad8:	c2 5b       	subi	r28, 0xB2	; 178
    1ada:	d1 40       	sbci	r29, 0x01	; 1
    1adc:	9f 93       	push	r25
    1ade:	cf 54       	subi	r28, 0x4F	; 79
    1ae0:	de 4f       	sbci	r29, 0xFE	; 254
    1ae2:	98 81       	ld	r25, Y
    1ae4:	c1 5b       	subi	r28, 0xB1	; 177
    1ae6:	d1 40       	sbci	r29, 0x01	; 1
    1ae8:	9f 93       	push	r25
    1aea:	c0 55       	subi	r28, 0x50	; 80
    1aec:	de 4f       	sbci	r29, 0xFE	; 254
    1aee:	98 81       	ld	r25, Y
    1af0:	c0 5b       	subi	r28, 0xB0	; 176
    1af2:	d1 40       	sbci	r29, 0x01	; 1
    1af4:	9f 93       	push	r25
    1af6:	c1 55       	subi	r28, 0x51	; 81
    1af8:	de 4f       	sbci	r29, 0xFE	; 254
    1afa:	98 81       	ld	r25, Y
    1afc:	cf 5a       	subi	r28, 0xAF	; 175
    1afe:	d1 40       	sbci	r29, 0x01	; 1
    1b00:	9f 93       	push	r25
    1b02:	c8 55       	subi	r28, 0x58	; 88
    1b04:	de 4f       	sbci	r29, 0xFE	; 254
    1b06:	98 81       	ld	r25, Y
    1b08:	c8 5a       	subi	r28, 0xA8	; 168
    1b0a:	d1 40       	sbci	r29, 0x01	; 1
    1b0c:	9f 93       	push	r25
    1b0e:	c9 55       	subi	r28, 0x59	; 89
    1b10:	de 4f       	sbci	r29, 0xFE	; 254
    1b12:	98 81       	ld	r25, Y
    1b14:	c7 5a       	subi	r28, 0xA7	; 167
    1b16:	d1 40       	sbci	r29, 0x01	; 1
    1b18:	9f 93       	push	r25
    1b1a:	ca 55       	subi	r28, 0x5A	; 90
    1b1c:	de 4f       	sbci	r29, 0xFE	; 254
    1b1e:	98 81       	ld	r25, Y
    1b20:	c6 5a       	subi	r28, 0xA6	; 166
    1b22:	d1 40       	sbci	r29, 0x01	; 1
    1b24:	9f 93       	push	r25
    1b26:	cb 55       	subi	r28, 0x5B	; 91
    1b28:	de 4f       	sbci	r29, 0xFE	; 254
    1b2a:	98 81       	ld	r25, Y
    1b2c:	c5 5a       	subi	r28, 0xA5	; 165
    1b2e:	d1 40       	sbci	r29, 0x01	; 1
    1b30:	9f 93       	push	r25
    1b32:	c4 55       	subi	r28, 0x54	; 84
    1b34:	de 4f       	sbci	r29, 0xFE	; 254
    1b36:	98 81       	ld	r25, Y
    1b38:	cc 5a       	subi	r28, 0xAC	; 172
    1b3a:	d1 40       	sbci	r29, 0x01	; 1
    1b3c:	9f 93       	push	r25
    1b3e:	c5 55       	subi	r28, 0x55	; 85
    1b40:	de 4f       	sbci	r29, 0xFE	; 254
    1b42:	98 81       	ld	r25, Y
    1b44:	cb 5a       	subi	r28, 0xAB	; 171
    1b46:	d1 40       	sbci	r29, 0x01	; 1
    1b48:	9f 93       	push	r25
    1b4a:	c6 55       	subi	r28, 0x56	; 86
    1b4c:	de 4f       	sbci	r29, 0xFE	; 254
    1b4e:	98 81       	ld	r25, Y
    1b50:	ca 5a       	subi	r28, 0xAA	; 170
    1b52:	d1 40       	sbci	r29, 0x01	; 1
    1b54:	9f 93       	push	r25
    1b56:	c7 55       	subi	r28, 0x57	; 87
    1b58:	de 4f       	sbci	r29, 0xFE	; 254
    1b5a:	98 81       	ld	r25, Y
    1b5c:	c9 5a       	subi	r28, 0xA9	; 169
    1b5e:	d1 40       	sbci	r29, 0x01	; 1
    1b60:	9f 93       	push	r25
    1b62:	ff 92       	push	r15
    1b64:	ef 92       	push	r14
    1b66:	1f 92       	push	r1
    1b68:	8f 93       	push	r24
    1b6a:	ce 01       	movw	r24, r28
    1b6c:	80 52       	subi	r24, 0x20	; 32
    1b6e:	9f 4f       	sbci	r25, 0xFF	; 255
    1b70:	9f 93       	push	r25
    1b72:	8f 93       	push	r24
    1b74:	8e 01       	movw	r16, r28
    1b76:	0f 5f       	subi	r16, 0xFF	; 255
    1b78:	1f 4f       	sbci	r17, 0xFF	; 255
    1b7a:	1f 93       	push	r17
    1b7c:	0f 93       	push	r16
    1b7e:	0e 94 ef 17 	call	0x2fde	; 0x2fde <sprintf>
			checksum_NMEA(outbuf);
    1b82:	cd bf       	out	0x3d, r28	; 61
    1b84:	de bf       	out	0x3e, r29	; 62
    1b86:	c8 01       	movw	r24, r16
    1b88:	0e 94 72 09 	call	0x12e4	; 0x12e4 <checksum_NMEA>
			send_USART(0, (uint8_t*) outbuf, strlen(outbuf));
    1b8c:	f8 01       	movw	r30, r16
    1b8e:	01 90       	ld	r0, Z+
    1b90:	00 20       	and	r0, r0
    1b92:	e9 f7       	brne	.-6      	; 0x1b8e <report+0x358>
    1b94:	31 97       	sbiw	r30, 0x01	; 1
    1b96:	af 01       	movw	r20, r30
    1b98:	40 1b       	sub	r20, r16
    1b9a:	51 0b       	sbc	r21, r17
    1b9c:	b8 01       	movw	r22, r16
    1b9e:	80 e0       	ldi	r24, 0x00	; 0
    1ba0:	0e 94 0b 05 	call	0xa16	; 0xa16 <send_USART>
		default:
			return(ERRORPROMPT);
			break;
	}

	return(GREATERPROMPT);
    1ba4:	80 e0       	ldi	r24, 0x00	; 0
			t3 = get_temperature(3);
			get_time(currenttime);
			sprintf(outbuf, format_ENV, get_specID(), currenttime, t0, h0, t1, h1, t2, h2, t3, pcmd[cstack].cid);
			checksum_NMEA(outbuf);
			send_USART(0, (uint8_t*) outbuf, strlen(outbuf));
			break;
    1ba6:	62 c1       	rjmp	.+708    	; 0x1e6c <report+0x636>

		case 'o':					// Orientation
			get_orientation(MMA8451ADDR, &x, &y, &z);
    1ba8:	9e 01       	movw	r18, r28
    1baa:	2f 55       	subi	r18, 0x5F	; 95
    1bac:	3e 4f       	sbci	r19, 0xFE	; 254
    1bae:	ae 01       	movw	r20, r28
    1bb0:	43 56       	subi	r20, 0x63	; 99
    1bb2:	5e 4f       	sbci	r21, 0xFE	; 254
    1bb4:	be 01       	movw	r22, r28
    1bb6:	67 56       	subi	r22, 0x67	; 103
    1bb8:	7e 4f       	sbci	r23, 0xFE	; 254
    1bba:	8a e3       	ldi	r24, 0x3A	; 58
    1bbc:	0e 94 81 08 	call	0x1102	; 0x1102 <get_orientation>
			get_time(currenttime);
    1bc0:	7e 01       	movw	r14, r28
    1bc2:	96 e9       	ldi	r25, 0x96	; 150
    1bc4:	e9 0e       	add	r14, r25
    1bc6:	f1 1c       	adc	r15, r1
    1bc8:	c7 01       	movw	r24, r14
    1bca:	0e 94 d4 07 	call	0xfa8	; 0xfa8 <get_time>
			sprintf(outbuf, format_ORI, get_specID(), currenttime, x, y, z, pcmd[cstack].cid);
    1bce:	cf 55       	subi	r28, 0x5F	; 95
    1bd0:	de 4f       	sbci	r29, 0xFE	; 254
    1bd2:	58 80       	ld	r5, Y
    1bd4:	c1 5a       	subi	r28, 0xA1	; 161
    1bd6:	d1 40       	sbci	r29, 0x01	; 1
    1bd8:	ce 55       	subi	r28, 0x5E	; 94
    1bda:	de 4f       	sbci	r29, 0xFE	; 254
    1bdc:	48 80       	ld	r4, Y
    1bde:	c2 5a       	subi	r28, 0xA2	; 162
    1be0:	d1 40       	sbci	r29, 0x01	; 1
    1be2:	cd 55       	subi	r28, 0x5D	; 93
    1be4:	de 4f       	sbci	r29, 0xFE	; 254
    1be6:	38 80       	ld	r3, Y
    1be8:	c3 5a       	subi	r28, 0xA3	; 163
    1bea:	d1 40       	sbci	r29, 0x01	; 1
    1bec:	cc 55       	subi	r28, 0x5C	; 92
    1bee:	de 4f       	sbci	r29, 0xFE	; 254
    1bf0:	28 80       	ld	r2, Y
    1bf2:	c4 5a       	subi	r28, 0xA4	; 164
    1bf4:	d1 40       	sbci	r29, 0x01	; 1
    1bf6:	c3 56       	subi	r28, 0x63	; 99
    1bf8:	de 4f       	sbci	r29, 0xFE	; 254
    1bfa:	98 80       	ld	r9, Y
    1bfc:	cd 59       	subi	r28, 0x9D	; 157
    1bfe:	d1 40       	sbci	r29, 0x01	; 1
    1c00:	c2 56       	subi	r28, 0x62	; 98
    1c02:	de 4f       	sbci	r29, 0xFE	; 254
    1c04:	88 80       	ld	r8, Y
    1c06:	ce 59       	subi	r28, 0x9E	; 158
    1c08:	d1 40       	sbci	r29, 0x01	; 1
    1c0a:	c1 56       	subi	r28, 0x61	; 97
    1c0c:	de 4f       	sbci	r29, 0xFE	; 254
    1c0e:	78 80       	ld	r7, Y
    1c10:	cf 59       	subi	r28, 0x9F	; 159
    1c12:	d1 40       	sbci	r29, 0x01	; 1
    1c14:	c0 56       	subi	r28, 0x60	; 96
    1c16:	de 4f       	sbci	r29, 0xFE	; 254
    1c18:	68 80       	ld	r6, Y
    1c1a:	c0 5a       	subi	r28, 0xA0	; 160
    1c1c:	d1 40       	sbci	r29, 0x01	; 1
    1c1e:	c7 56       	subi	r28, 0x67	; 103
    1c20:	de 4f       	sbci	r29, 0xFE	; 254
    1c22:	d8 80       	ld	r13, Y
    1c24:	c9 59       	subi	r28, 0x99	; 153
    1c26:	d1 40       	sbci	r29, 0x01	; 1
    1c28:	c6 56       	subi	r28, 0x66	; 102
    1c2a:	de 4f       	sbci	r29, 0xFE	; 254
    1c2c:	c8 80       	ld	r12, Y
    1c2e:	ca 59       	subi	r28, 0x9A	; 154
    1c30:	d1 40       	sbci	r29, 0x01	; 1
    1c32:	c5 56       	subi	r28, 0x65	; 101
    1c34:	de 4f       	sbci	r29, 0xFE	; 254
    1c36:	b8 80       	ld	r11, Y
    1c38:	cb 59       	subi	r28, 0x9B	; 155
    1c3a:	d1 40       	sbci	r29, 0x01	; 1
    1c3c:	c4 56       	subi	r28, 0x64	; 100
    1c3e:	de 4f       	sbci	r29, 0xFE	; 254
    1c40:	a8 80       	ld	r10, Y
    1c42:	cc 59       	subi	r28, 0x9C	; 156
    1c44:	d1 40       	sbci	r29, 0x01	; 1
    1c46:	0e 94 36 01 	call	0x26c	; 0x26c <get_specID>
    1c4a:	94 e3       	ldi	r25, 0x34	; 52
    1c4c:	90 9f       	mul	r25, r16
    1c4e:	90 01       	movw	r18, r0
    1c50:	91 9f       	mul	r25, r17
    1c52:	30 0d       	add	r19, r0
    1c54:	11 24       	eor	r1, r1
    1c56:	22 5d       	subi	r18, 0xD2	; 210
    1c58:	37 4d       	sbci	r19, 0xD7	; 215
    1c5a:	3f 93       	push	r19
    1c5c:	2f 93       	push	r18
    1c5e:	2f 92       	push	r2
    1c60:	3f 92       	push	r3
    1c62:	4f 92       	push	r4
    1c64:	5f 92       	push	r5
    1c66:	6f 92       	push	r6
    1c68:	7f 92       	push	r7
    1c6a:	8f 92       	push	r8
    1c6c:	9f 92       	push	r9
    1c6e:	af 92       	push	r10
    1c70:	bf 92       	push	r11
    1c72:	cf 92       	push	r12
    1c74:	df 92       	push	r13
    1c76:	ff 92       	push	r15
    1c78:	ef 92       	push	r14
    1c7a:	1f 92       	push	r1
    1c7c:	8f 93       	push	r24
    1c7e:	ce 01       	movw	r24, r28
    1c80:	8e 5d       	subi	r24, 0xDE	; 222
    1c82:	9e 4f       	sbci	r25, 0xFE	; 254
    1c84:	9f 93       	push	r25
    1c86:	8f 93       	push	r24
    1c88:	8e 01       	movw	r16, r28
    1c8a:	0f 5f       	subi	r16, 0xFF	; 255
    1c8c:	1f 4f       	sbci	r17, 0xFF	; 255
    1c8e:	1f 93       	push	r17
    1c90:	0f 93       	push	r16
    1c92:	0e 94 ef 17 	call	0x2fde	; 0x2fde <sprintf>
//			sprintf(outbuf, "x=%03.1f y=%03.1f z=%03.1f", x, y, z);
			checksum_NMEA(outbuf);
    1c96:	c8 01       	movw	r24, r16
    1c98:	0e 94 72 09 	call	0x12e4	; 0x12e4 <checksum_NMEA>
			send_USART(0, (uint8_t*) outbuf, strlen(outbuf));
    1c9c:	f8 01       	movw	r30, r16
    1c9e:	01 90       	ld	r0, Z+
    1ca0:	00 20       	and	r0, r0
    1ca2:	e9 f7       	brne	.-6      	; 0x1c9e <report+0x468>
    1ca4:	31 97       	sbiw	r30, 0x01	; 1
    1ca6:	af 01       	movw	r20, r30
    1ca8:	40 1b       	sub	r20, r16
    1caa:	51 0b       	sbc	r21, r17
    1cac:	b8 01       	movw	r22, r16
    1cae:	80 e0       	ldi	r24, 0x00	; 0
    1cb0:	0e 94 0b 05 	call	0xa16	; 0xa16 <send_USART>
			break;
    1cb4:	cd bf       	out	0x3d, r28	; 61
    1cb6:	de bf       	out	0x3e, r29	; 62
		default:
			return(ERRORPROMPT);
			break;
	}

	return(GREATERPROMPT);
    1cb8:	80 e0       	ldi	r24, 0x00	; 0
			get_time(currenttime);
			sprintf(outbuf, format_ORI, get_specID(), currenttime, x, y, z, pcmd[cstack].cid);
//			sprintf(outbuf, "x=%03.1f y=%03.1f z=%03.1f", x, y, z);
			checksum_NMEA(outbuf);
			send_USART(0, (uint8_t*) outbuf, strlen(outbuf));
			break;
    1cba:	d8 c0       	rjmp	.+432    	; 0x1e6c <report+0x636>

		case 't':					// Report current time on specMech clock
			get_time(currenttime);
    1cbc:	7e 01       	movw	r14, r28
    1cbe:	96 e9       	ldi	r25, 0x96	; 150
    1cc0:	e9 0e       	add	r14, r25
    1cc2:	f1 1c       	adc	r15, r1
    1cc4:	c7 01       	movw	r24, r14
    1cc6:	0e 94 d4 07 	call	0xfa8	; 0xfa8 <get_time>
			read_FRAM(FRAMADDR, SETTIMEADDR, (uint8_t*) lastsettime, 20);
    1cca:	6e 01       	movw	r12, r28
    1ccc:	8a ea       	ldi	r24, 0xAA	; 170
    1cce:	c8 0e       	add	r12, r24
    1cd0:	d1 1c       	adc	r13, r1
    1cd2:	24 e1       	ldi	r18, 0x14	; 20
    1cd4:	a6 01       	movw	r20, r12
    1cd6:	60 e0       	ldi	r22, 0x00	; 0
    1cd8:	70 e0       	ldi	r23, 0x00	; 0
    1cda:	80 ea       	ldi	r24, 0xA0	; 160
    1cdc:	0e 94 b0 06 	call	0xd60	; 0xd60 <read_FRAM>
			get_BOOTTIME(boottime);
    1ce0:	5e 01       	movw	r10, r28
    1ce2:	9e eb       	ldi	r25, 0xBE	; 190
    1ce4:	a9 0e       	add	r10, r25
    1ce6:	b1 1c       	adc	r11, r1
    1ce8:	c5 01       	movw	r24, r10
    1cea:	0e 94 c8 0a 	call	0x1590	; 0x1590 <get_BOOTTIME>
			sprintf(outbuf, format_TIM, get_specID(), currenttime, lastsettime,
    1cee:	0e 94 36 01 	call	0x26c	; 0x26c <get_specID>
    1cf2:	94 e3       	ldi	r25, 0x34	; 52
    1cf4:	90 9f       	mul	r25, r16
    1cf6:	90 01       	movw	r18, r0
    1cf8:	91 9f       	mul	r25, r17
    1cfa:	30 0d       	add	r19, r0
    1cfc:	11 24       	eor	r1, r1
    1cfe:	22 5d       	subi	r18, 0xD2	; 210
    1d00:	37 4d       	sbci	r19, 0xD7	; 215
    1d02:	3f 93       	push	r19
    1d04:	2f 93       	push	r18
    1d06:	bf 92       	push	r11
    1d08:	af 92       	push	r10
    1d0a:	df 92       	push	r13
    1d0c:	cf 92       	push	r12
    1d0e:	ff 92       	push	r15
    1d10:	ef 92       	push	r14
    1d12:	1f 92       	push	r1
    1d14:	8f 93       	push	r24
    1d16:	ce 01       	movw	r24, r28
    1d18:	8e 5b       	subi	r24, 0xBE	; 190
    1d1a:	9e 4f       	sbci	r25, 0xFE	; 254
    1d1c:	9f 93       	push	r25
    1d1e:	8f 93       	push	r24
    1d20:	8e 01       	movw	r16, r28
    1d22:	0f 5f       	subi	r16, 0xFF	; 255
    1d24:	1f 4f       	sbci	r17, 0xFF	; 255
    1d26:	1f 93       	push	r17
    1d28:	0f 93       	push	r16
    1d2a:	0e 94 ef 17 	call	0x2fde	; 0x2fde <sprintf>
				boottime, pcmd[cstack].cid);
			checksum_NMEA(outbuf);
    1d2e:	c8 01       	movw	r24, r16
    1d30:	0e 94 72 09 	call	0x12e4	; 0x12e4 <checksum_NMEA>
			send_USART(0, (uint8_t*) outbuf, strlen(outbuf));
    1d34:	f8 01       	movw	r30, r16
    1d36:	01 90       	ld	r0, Z+
    1d38:	00 20       	and	r0, r0
    1d3a:	e9 f7       	brne	.-6      	; 0x1d36 <report+0x500>
    1d3c:	31 97       	sbiw	r30, 0x01	; 1
    1d3e:	af 01       	movw	r20, r30
    1d40:	40 1b       	sub	r20, r16
    1d42:	51 0b       	sbc	r21, r17
    1d44:	b8 01       	movw	r22, r16
    1d46:	80 e0       	ldi	r24, 0x00	; 0
    1d48:	0e 94 0b 05 	call	0xa16	; 0xa16 <send_USART>
			break;
    1d4c:	cd bf       	out	0x3d, r28	; 61
    1d4e:	de bf       	out	0x3e, r29	; 62
		default:
			return(ERRORPROMPT);
			break;
	}

	return(GREATERPROMPT);
    1d50:	80 e0       	ldi	r24, 0x00	; 0
			get_BOOTTIME(boottime);
			sprintf(outbuf, format_TIM, get_specID(), currenttime, lastsettime,
				boottime, pcmd[cstack].cid);
			checksum_NMEA(outbuf);
			send_USART(0, (uint8_t*) outbuf, strlen(outbuf));
			break;
    1d52:	8c c0       	rjmp	.+280    	; 0x1e6c <report+0x636>

		case 'v':
			redvac = read_ionpump(REDPUMP);
    1d54:	81 e0       	ldi	r24, 0x01	; 1
    1d56:	0e 94 76 04 	call	0x8ec	; 0x8ec <read_ionpump>
    1d5a:	d6 2e       	mov	r13, r22
    1d5c:	c7 2e       	mov	r12, r23
    1d5e:	b8 2e       	mov	r11, r24
    1d60:	a9 2e       	mov	r10, r25
			bluvac = read_ionpump(BLUEPUMP);
    1d62:	82 e0       	ldi	r24, 0x02	; 2
    1d64:	0e 94 76 04 	call	0x8ec	; 0x8ec <read_ionpump>
    1d68:	96 2e       	mov	r9, r22
    1d6a:	87 2e       	mov	r8, r23
    1d6c:	78 2e       	mov	r7, r24
    1d6e:	69 2e       	mov	r6, r25
			get_time(currenttime);
    1d70:	7e 01       	movw	r14, r28
    1d72:	96 e9       	ldi	r25, 0x96	; 150
    1d74:	e9 0e       	add	r14, r25
    1d76:	f1 1c       	adc	r15, r1
    1d78:	c7 01       	movw	r24, r14
    1d7a:	0e 94 d4 07 	call	0xfa8	; 0xfa8 <get_time>
			sprintf(outbuf, format_VAC, get_specID(), currenttime, redvac, bluvac, pcmd[cstack].cid);
    1d7e:	0e 94 36 01 	call	0x26c	; 0x26c <get_specID>
    1d82:	94 e3       	ldi	r25, 0x34	; 52
    1d84:	90 9f       	mul	r25, r16
    1d86:	90 01       	movw	r18, r0
    1d88:	91 9f       	mul	r25, r17
    1d8a:	30 0d       	add	r19, r0
    1d8c:	11 24       	eor	r1, r1
    1d8e:	22 5d       	subi	r18, 0xD2	; 210
    1d90:	37 4d       	sbci	r19, 0xD7	; 215
    1d92:	3f 93       	push	r19
    1d94:	2f 93       	push	r18
    1d96:	6f 92       	push	r6
    1d98:	7f 92       	push	r7
    1d9a:	8f 92       	push	r8
    1d9c:	9f 92       	push	r9
    1d9e:	af 92       	push	r10
    1da0:	bf 92       	push	r11
    1da2:	cf 92       	push	r12
    1da4:	df 92       	push	r13
    1da6:	ff 92       	push	r15
    1da8:	ef 92       	push	r14
    1daa:	1f 92       	push	r1
    1dac:	8f 93       	push	r24
    1dae:	ce 01       	movw	r24, r28
    1db0:	81 5a       	subi	r24, 0xA1	; 161
    1db2:	9e 4f       	sbci	r25, 0xFE	; 254
    1db4:	9f 93       	push	r25
    1db6:	8f 93       	push	r24
    1db8:	8e 01       	movw	r16, r28
    1dba:	0f 5f       	subi	r16, 0xFF	; 255
    1dbc:	1f 4f       	sbci	r17, 0xFF	; 255
    1dbe:	1f 93       	push	r17
    1dc0:	0f 93       	push	r16
    1dc2:	0e 94 ef 17 	call	0x2fde	; 0x2fde <sprintf>
			checksum_NMEA(outbuf);
    1dc6:	c8 01       	movw	r24, r16
    1dc8:	0e 94 72 09 	call	0x12e4	; 0x12e4 <checksum_NMEA>
			send_USART(0, (uint8_t*) outbuf, strlen(outbuf));
    1dcc:	f8 01       	movw	r30, r16
    1dce:	01 90       	ld	r0, Z+
    1dd0:	00 20       	and	r0, r0
    1dd2:	e9 f7       	brne	.-6      	; 0x1dce <report+0x598>
    1dd4:	31 97       	sbiw	r30, 0x01	; 1
    1dd6:	af 01       	movw	r20, r30
    1dd8:	40 1b       	sub	r20, r16
    1dda:	51 0b       	sbc	r21, r17
    1ddc:	b8 01       	movw	r22, r16
    1dde:	80 e0       	ldi	r24, 0x00	; 0
    1de0:	0e 94 0b 05 	call	0xa16	; 0xa16 <send_USART>
			break;
    1de4:	cd bf       	out	0x3d, r28	; 61
    1de6:	de bf       	out	0x3e, r29	; 62
		default:
			return(ERRORPROMPT);
			break;
	}

	return(GREATERPROMPT);
    1de8:	80 e0       	ldi	r24, 0x00	; 0
			bluvac = read_ionpump(BLUEPUMP);
			get_time(currenttime);
			sprintf(outbuf, format_VAC, get_specID(), currenttime, redvac, bluvac, pcmd[cstack].cid);
			checksum_NMEA(outbuf);
			send_USART(0, (uint8_t*) outbuf, strlen(outbuf));
			break;
    1dea:	40 c0       	rjmp	.+128    	; 0x1e6c <report+0x636>

		case 'V':
			get_VERSION(version);	// Send the specMech version
    1dec:	6e 01       	movw	r12, r28
    1dee:	9b e8       	ldi	r25, 0x8B	; 139
    1df0:	c9 0e       	add	r12, r25
    1df2:	d1 1c       	adc	r13, r1
    1df4:	c6 01       	movw	r24, r12
    1df6:	0e 94 cf 0a 	call	0x159e	; 0x159e <get_VERSION>
			get_time(currenttime);
    1dfa:	7e 01       	movw	r14, r28
    1dfc:	86 e9       	ldi	r24, 0x96	; 150
    1dfe:	e8 0e       	add	r14, r24
    1e00:	f1 1c       	adc	r15, r1
    1e02:	c7 01       	movw	r24, r14
    1e04:	0e 94 d4 07 	call	0xfa8	; 0xfa8 <get_time>
			sprintf(outbuf, format_VER, get_specID(), currenttime, version, pcmd[cstack].cid);
    1e08:	0e 94 36 01 	call	0x26c	; 0x26c <get_specID>
    1e0c:	94 e3       	ldi	r25, 0x34	; 52
    1e0e:	90 9f       	mul	r25, r16
    1e10:	90 01       	movw	r18, r0
    1e12:	91 9f       	mul	r25, r17
    1e14:	30 0d       	add	r19, r0
    1e16:	11 24       	eor	r1, r1
    1e18:	22 5d       	subi	r18, 0xD2	; 210
    1e1a:	37 4d       	sbci	r19, 0xD7	; 215
    1e1c:	3f 93       	push	r19
    1e1e:	2f 93       	push	r18
    1e20:	df 92       	push	r13
    1e22:	cf 92       	push	r12
    1e24:	ff 92       	push	r15
    1e26:	ef 92       	push	r14
    1e28:	1f 92       	push	r1
    1e2a:	8f 93       	push	r24
    1e2c:	ce 01       	movw	r24, r28
    1e2e:	88 57       	subi	r24, 0x78	; 120
    1e30:	9e 4f       	sbci	r25, 0xFE	; 254
    1e32:	9f 93       	push	r25
    1e34:	8f 93       	push	r24
    1e36:	8e 01       	movw	r16, r28
    1e38:	0f 5f       	subi	r16, 0xFF	; 255
    1e3a:	1f 4f       	sbci	r17, 0xFF	; 255
    1e3c:	1f 93       	push	r17
    1e3e:	0f 93       	push	r16
    1e40:	0e 94 ef 17 	call	0x2fde	; 0x2fde <sprintf>
			checksum_NMEA(outbuf);
    1e44:	c8 01       	movw	r24, r16
    1e46:	0e 94 72 09 	call	0x12e4	; 0x12e4 <checksum_NMEA>
			send_USART(0, (uint8_t*) outbuf, strlen(outbuf));
    1e4a:	f8 01       	movw	r30, r16
    1e4c:	01 90       	ld	r0, Z+
    1e4e:	00 20       	and	r0, r0
    1e50:	e9 f7       	brne	.-6      	; 0x1e4c <report+0x616>
    1e52:	31 97       	sbiw	r30, 0x01	; 1
    1e54:	af 01       	movw	r20, r30
    1e56:	40 1b       	sub	r20, r16
    1e58:	51 0b       	sbc	r21, r17
    1e5a:	b8 01       	movw	r22, r16
    1e5c:	80 e0       	ldi	r24, 0x00	; 0
    1e5e:	0e 94 0b 05 	call	0xa16	; 0xa16 <send_USART>
			break;
    1e62:	cd bf       	out	0x3d, r28	; 61
    1e64:	de bf       	out	0x3e, r29	; 62
		default:
			return(ERRORPROMPT);
			break;
	}

	return(GREATERPROMPT);
    1e66:	80 e0       	ldi	r24, 0x00	; 0
			get_VERSION(version);	// Send the specMech version
			get_time(currenttime);
			sprintf(outbuf, format_VER, get_specID(), currenttime, version, pcmd[cstack].cid);
			checksum_NMEA(outbuf);
			send_USART(0, (uint8_t*) outbuf, strlen(outbuf));
			break;
    1e68:	01 c0       	rjmp	.+2      	; 0x1e6c <report+0x636>

		default:
			return(ERRORPROMPT);
    1e6a:	82 e0       	ldi	r24, 0x02	; 2
			break;
	}

	return(GREATERPROMPT);

}
    1e6c:	cc 54       	subi	r28, 0x4C	; 76
    1e6e:	de 4f       	sbci	r29, 0xFE	; 254
    1e70:	cd bf       	out	0x3d, r28	; 61
    1e72:	de bf       	out	0x3e, r29	; 62
    1e74:	df 91       	pop	r29
    1e76:	cf 91       	pop	r28
    1e78:	1f 91       	pop	r17
    1e7a:	0f 91       	pop	r16
    1e7c:	ff 90       	pop	r15
    1e7e:	ef 90       	pop	r14
    1e80:	df 90       	pop	r13
    1e82:	cf 90       	pop	r12
    1e84:	bf 90       	pop	r11
    1e86:	af 90       	pop	r10
    1e88:	9f 90       	pop	r9
    1e8a:	8f 90       	pop	r8
    1e8c:	7f 90       	pop	r7
    1e8e:	6f 90       	pop	r6
    1e90:	5f 90       	pop	r5
    1e92:	4f 90       	pop	r4
    1e94:	3f 90       	pop	r3
    1e96:	2f 90       	pop	r2
    1e98:	08 95       	ret

00001e9a <send_prompt>:

	If specMech is rebooted, it will only prompt with a single exclamation
	point (!) until it receives an acknowledgment in the form of a single !.
------------------------------------------------------------------------------*/
void send_prompt(uint8_t prompt_flag)
{
    1e9a:	0f 93       	push	r16
    1e9c:	1f 93       	push	r17
    1e9e:	cf 93       	push	r28
    1ea0:	df 93       	push	r29
    1ea2:	cd b7       	in	r28, 0x3d	; 61
    1ea4:	de b7       	in	r29, 0x3e	; 62
    1ea6:	6d 97       	sbiw	r28, 0x1d	; 29
    1ea8:	cd bf       	out	0x3d, r28	; 61
    1eaa:	de bf       	out	0x3e, r29	; 62

	const char str0[] = ">";
    1eac:	2e e3       	ldi	r18, 0x3E	; 62
    1eae:	30 e0       	ldi	r19, 0x00	; 0
    1eb0:	29 83       	std	Y+1, r18	; 0x01
    1eb2:	3a 83       	std	Y+2, r19	; 0x02
	const char str1[] = "!";
    1eb4:	21 e2       	ldi	r18, 0x21	; 33
    1eb6:	30 e0       	ldi	r19, 0x00	; 0
    1eb8:	2b 83       	std	Y+3, r18	; 0x03
    1eba:	3c 83       	std	Y+4, r19	; 0x04

	char prompt_str[25];

	switch (prompt_flag) {
    1ebc:	81 30       	cpi	r24, 0x01	; 1
    1ebe:	09 f4       	brne	.+2      	; 0x1ec2 <send_prompt+0x28>
    1ec0:	3f c0       	rjmp	.+126    	; 0x1f40 <send_prompt+0xa6>
    1ec2:	18 f0       	brcs	.+6      	; 0x1eca <send_prompt+0x30>
    1ec4:	82 30       	cpi	r24, 0x02	; 2
    1ec6:	b9 f0       	breq	.+46     	; 0x1ef6 <send_prompt+0x5c>
    1ec8:	51 c0       	rjmp	.+162    	; 0x1f6c <send_prompt+0xd2>
		case GREATERPROMPT:
			strcpy(prompt_str, str0);
    1eca:	8e 01       	movw	r16, r28
    1ecc:	0b 5f       	subi	r16, 0xFB	; 251
    1ece:	1f 4f       	sbci	r17, 0xFF	; 255
    1ed0:	be 01       	movw	r22, r28
    1ed2:	6f 5f       	subi	r22, 0xFF	; 255
    1ed4:	7f 4f       	sbci	r23, 0xFF	; 255
    1ed6:	c8 01       	movw	r24, r16
    1ed8:	0e 94 a1 17 	call	0x2f42	; 0x2f42 <strcpy>
			send_USART(0, (uint8_t*) prompt_str, strlen(prompt_str));
    1edc:	f8 01       	movw	r30, r16
    1ede:	01 90       	ld	r0, Z+
    1ee0:	00 20       	and	r0, r0
    1ee2:	e9 f7       	brne	.-6      	; 0x1ede <send_prompt+0x44>
    1ee4:	31 97       	sbiw	r30, 0x01	; 1
    1ee6:	af 01       	movw	r20, r30
    1ee8:	40 1b       	sub	r20, r16
    1eea:	51 0b       	sbc	r21, r17
    1eec:	b8 01       	movw	r22, r16
    1eee:	80 e0       	ldi	r24, 0x00	; 0
    1ef0:	0e 94 0b 05 	call	0xa16	; 0xa16 <send_USART>
			break;
    1ef4:	50 c0       	rjmp	.+160    	; 0x1f96 <send_prompt+0xfc>

		case ERRORPROMPT:
			format_ERR(prompt_str);
    1ef6:	8e 01       	movw	r16, r28
    1ef8:	0b 5f       	subi	r16, 0xFB	; 251
    1efa:	1f 4f       	sbci	r17, 0xFF	; 255
    1efc:	c8 01       	movw	r24, r16
    1efe:	0e 94 bd 09 	call	0x137a	; 0x137a <format_ERR>
			send_USART(0, (uint8_t*) prompt_str, strlen(prompt_str));
    1f02:	f8 01       	movw	r30, r16
    1f04:	01 90       	ld	r0, Z+
    1f06:	00 20       	and	r0, r0
    1f08:	e9 f7       	brne	.-6      	; 0x1f04 <send_prompt+0x6a>
    1f0a:	31 97       	sbiw	r30, 0x01	; 1
    1f0c:	af 01       	movw	r20, r30
    1f0e:	40 1b       	sub	r20, r16
    1f10:	51 0b       	sbc	r21, r17
    1f12:	b8 01       	movw	r22, r16
    1f14:	80 e0       	ldi	r24, 0x00	; 0
    1f16:	0e 94 0b 05 	call	0xa16	; 0xa16 <send_USART>
			strcpy(prompt_str, str0);
    1f1a:	be 01       	movw	r22, r28
    1f1c:	6f 5f       	subi	r22, 0xFF	; 255
    1f1e:	7f 4f       	sbci	r23, 0xFF	; 255
    1f20:	c8 01       	movw	r24, r16
    1f22:	0e 94 a1 17 	call	0x2f42	; 0x2f42 <strcpy>
			send_USART(0, (uint8_t*) prompt_str, strlen(prompt_str));
    1f26:	f8 01       	movw	r30, r16
    1f28:	01 90       	ld	r0, Z+
    1f2a:	00 20       	and	r0, r0
    1f2c:	e9 f7       	brne	.-6      	; 0x1f28 <send_prompt+0x8e>
    1f2e:	31 97       	sbiw	r30, 0x01	; 1
    1f30:	af 01       	movw	r20, r30
    1f32:	40 1b       	sub	r20, r16
    1f34:	51 0b       	sbc	r21, r17
    1f36:	b8 01       	movw	r22, r16
    1f38:	80 e0       	ldi	r24, 0x00	; 0
    1f3a:	0e 94 0b 05 	call	0xa16	; 0xa16 <send_USART>
			break;
    1f3e:	2b c0       	rjmp	.+86     	; 0x1f96 <send_prompt+0xfc>

		case EXCLAIMPROMPT:
			strcpy(prompt_str, str1);
    1f40:	8e 01       	movw	r16, r28
    1f42:	0b 5f       	subi	r16, 0xFB	; 251
    1f44:	1f 4f       	sbci	r17, 0xFF	; 255
    1f46:	be 01       	movw	r22, r28
    1f48:	6d 5f       	subi	r22, 0xFD	; 253
    1f4a:	7f 4f       	sbci	r23, 0xFF	; 255
    1f4c:	c8 01       	movw	r24, r16
    1f4e:	0e 94 a1 17 	call	0x2f42	; 0x2f42 <strcpy>
			send_USART(0, (uint8_t*) prompt_str, strlen(prompt_str));
    1f52:	f8 01       	movw	r30, r16
    1f54:	01 90       	ld	r0, Z+
    1f56:	00 20       	and	r0, r0
    1f58:	e9 f7       	brne	.-6      	; 0x1f54 <send_prompt+0xba>
    1f5a:	31 97       	sbiw	r30, 0x01	; 1
    1f5c:	af 01       	movw	r20, r30
    1f5e:	40 1b       	sub	r20, r16
    1f60:	51 0b       	sbc	r21, r17
    1f62:	b8 01       	movw	r22, r16
    1f64:	80 e0       	ldi	r24, 0x00	; 0
    1f66:	0e 94 0b 05 	call	0xa16	; 0xa16 <send_USART>
			break;
    1f6a:	15 c0       	rjmp	.+42     	; 0x1f96 <send_prompt+0xfc>

		default:
			strcpy(prompt_str, str1);
    1f6c:	8e 01       	movw	r16, r28
    1f6e:	0b 5f       	subi	r16, 0xFB	; 251
    1f70:	1f 4f       	sbci	r17, 0xFF	; 255
    1f72:	be 01       	movw	r22, r28
    1f74:	6d 5f       	subi	r22, 0xFD	; 253
    1f76:	7f 4f       	sbci	r23, 0xFF	; 255
    1f78:	c8 01       	movw	r24, r16
    1f7a:	0e 94 a1 17 	call	0x2f42	; 0x2f42 <strcpy>
			send_USART(0, (uint8_t*) prompt_str, strlen(prompt_str));
    1f7e:	f8 01       	movw	r30, r16
    1f80:	01 90       	ld	r0, Z+
    1f82:	00 20       	and	r0, r0
    1f84:	e9 f7       	brne	.-6      	; 0x1f80 <send_prompt+0xe6>
    1f86:	31 97       	sbiw	r30, 0x01	; 1
    1f88:	af 01       	movw	r20, r30
    1f8a:	40 1b       	sub	r20, r16
    1f8c:	51 0b       	sbc	r21, r17
    1f8e:	b8 01       	movw	r22, r16
    1f90:	80 e0       	ldi	r24, 0x00	; 0
    1f92:	0e 94 0b 05 	call	0xa16	; 0xa16 <send_USART>
			break;

	}

}
    1f96:	6d 96       	adiw	r28, 0x1d	; 29
    1f98:	cd bf       	out	0x3d, r28	; 61
    1f9a:	de bf       	out	0x3e, r29	; 62
    1f9c:	df 91       	pop	r29
    1f9e:	cf 91       	pop	r28
    1fa0:	1f 91       	pop	r17
    1fa2:	0f 91       	pop	r16
    1fa4:	08 95       	ret

00001fa6 <set>:
	Returns:
		GREATERPROMPT on success
		ERRORPROMPT if an invalid object was requested.
------------------------------------------------------------------------------*/
uint8_t set(uint8_t cstack)
{
    1fa6:	cf 93       	push	r28
    1fa8:	df 93       	push	r29

	char object;

	object = pcmd[cstack].cobject;
    1faa:	28 2f       	mov	r18, r24
    1fac:	30 e0       	ldi	r19, 0x00	; 0
    1fae:	94 e3       	ldi	r25, 0x34	; 52
    1fb0:	89 9f       	mul	r24, r25
    1fb2:	f0 01       	movw	r30, r0
    1fb4:	11 24       	eor	r1, r1
    1fb6:	ed 5f       	subi	r30, 0xFD	; 253
    1fb8:	f7 4d       	sbci	r31, 0xD7	; 215

	switch(object) {
    1fba:	81 81       	ldd	r24, Z+1	; 0x01
    1fbc:	84 37       	cpi	r24, 0x74	; 116
    1fbe:	e9 f4       	brne	.+58     	; 0x1ffa <set+0x54>
		case 't':
			if (strlen(pcmd[cstack].cvalue) != 19) {
    1fc0:	84 e3       	ldi	r24, 0x34	; 52
    1fc2:	82 9f       	mul	r24, r18
    1fc4:	e0 01       	movw	r28, r0
    1fc6:	83 9f       	mul	r24, r19
    1fc8:	d0 0d       	add	r29, r0
    1fca:	11 24       	eor	r1, r1
    1fcc:	cb 5f       	subi	r28, 0xFB	; 251
    1fce:	d7 4d       	sbci	r29, 0xD7	; 215
    1fd0:	fe 01       	movw	r30, r28
    1fd2:	01 90       	ld	r0, Z+
    1fd4:	00 20       	and	r0, r0
    1fd6:	e9 f7       	brne	.-6      	; 0x1fd2 <set+0x2c>
    1fd8:	cf 01       	movw	r24, r30
    1fda:	44 97       	sbiw	r24, 0x14	; 20
    1fdc:	8c 17       	cp	r24, r28
    1fde:	9d 07       	cpc	r25, r29
    1fe0:	71 f4       	brne	.+28     	; 0x1ffe <set+0x58>
				return(ERRORPROMPT);
			}
			put_time(pcmd[cstack].cvalue);
    1fe2:	ce 01       	movw	r24, r28
    1fe4:	0e 94 2d 08 	call	0x105a	; 0x105a <put_time>
			write_FRAM(FRAMADDR, SETTIMEADDR, (uint8_t*) pcmd[cstack].cvalue, 20);
    1fe8:	24 e1       	ldi	r18, 0x14	; 20
    1fea:	ae 01       	movw	r20, r28
    1fec:	60 e0       	ldi	r22, 0x00	; 0
    1fee:	70 e0       	ldi	r23, 0x00	; 0
    1ff0:	80 ea       	ldi	r24, 0xA0	; 160
    1ff2:	0e 94 02 07 	call	0xe04	; 0xe04 <write_FRAM>
			break;

		default:
			return(ERRORPROMPT);
	}
	return(GREATERPROMPT);
    1ff6:	80 e0       	ldi	r24, 0x00	; 0
    1ff8:	03 c0       	rjmp	.+6      	; 0x2000 <set+0x5a>
			put_time(pcmd[cstack].cvalue);
			write_FRAM(FRAMADDR, SETTIMEADDR, (uint8_t*) pcmd[cstack].cvalue, 20);
			break;

		default:
			return(ERRORPROMPT);
    1ffa:	82 e0       	ldi	r24, 0x02	; 2
    1ffc:	01 c0       	rjmp	.+2      	; 0x2000 <set+0x5a>
	object = pcmd[cstack].cobject;

	switch(object) {
		case 't':
			if (strlen(pcmd[cstack].cvalue) != 19) {
				return(ERRORPROMPT);
    1ffe:	82 e0       	ldi	r24, 0x02	; 2

		default:
			return(ERRORPROMPT);
	}
	return(GREATERPROMPT);
}
    2000:	df 91       	pop	r29
    2002:	cf 91       	pop	r28
    2004:	08 95       	ret

00002006 <commands>:
/*------------------------------------------------------------------------------
void commands(void)
	Command loop
------------------------------------------------------------------------------*/
void commands(void)
{
    2006:	1f 93       	push	r17
    2008:	cf 93       	push	r28
    200a:	df 93       	push	r29
    200c:	cd b7       	in	r28, 0x3d	; 61
    200e:	de b7       	in	r29, 0x3e	; 62
    2010:	c0 58       	subi	r28, 0x80	; 128
    2012:	d1 09       	sbc	r29, r1
    2014:	cd bf       	out	0x3d, r28	; 61
    2016:	de bf       	out	0x3e, r29	; 62
	static uint8_t rebootnack = 1;
	static uint8_t cstack = 0;		// Index for pcmd

	// Copy the command string to cmdline
	for (i = 0; i < BUFSIZE; i++) {
		cmdline[i] = recv0_buf.data[recv0_buf.tail];
    2018:	20 91 11 2b 	lds	r18, 0x2B11	; 0x802b11 <recv0_buf+0x81>
    201c:	30 e0       	ldi	r19, 0x00	; 0
    201e:	f9 01       	movw	r30, r18
    2020:	e0 57       	subi	r30, 0x70	; 112
    2022:	f5 4d       	sbci	r31, 0xD5	; 213
    2024:	90 81       	ld	r25, Z
    2026:	99 83       	std	Y+1, r25	; 0x01
		recv0_buf.tail = (recv0_buf.tail + 1) % BUFSIZE;
    2028:	2f 5f       	subi	r18, 0xFF	; 255
    202a:	3f 4f       	sbci	r19, 0xFF	; 255
    202c:	2f 77       	andi	r18, 0x7F	; 127
    202e:	30 78       	andi	r19, 0x80	; 128
    2030:	33 23       	and	r19, r19
    2032:	34 f4       	brge	.+12     	; 0x2040 <commands+0x3a>
    2034:	21 50       	subi	r18, 0x01	; 1
    2036:	31 09       	sbc	r19, r1
    2038:	20 68       	ori	r18, 0x80	; 128
    203a:	3f 6f       	ori	r19, 0xFF	; 255
    203c:	2f 5f       	subi	r18, 0xFF	; 255
    203e:	3f 4f       	sbci	r19, 0xFF	; 255
    2040:	82 2f       	mov	r24, r18
    2042:	20 93 11 2b 	sts	0x2B11, r18	; 0x802b11 <recv0_buf+0x81>
		if (cmdline[i] == '\0') {
    2046:	99 23       	and	r25, r25
    2048:	09 f4       	brne	.+2      	; 0x204c <commands+0x46>
    204a:	85 c0       	rjmp	.+266    	; 0x2156 <commands+0x150>
	uint8_t i, prompt_flag = GREATERPROMPT;
	static uint8_t rebootnack = 1;
	static uint8_t cstack = 0;		// Index for pcmd

	// Copy the command string to cmdline
	for (i = 0; i < BUFSIZE; i++) {
    204c:	21 e0       	ldi	r18, 0x01	; 1
		cmdline[i] = recv0_buf.data[recv0_buf.tail];
    204e:	90 e0       	ldi	r25, 0x00	; 0
    2050:	fc 01       	movw	r30, r24
    2052:	e0 57       	subi	r30, 0x70	; 112
    2054:	f5 4d       	sbci	r31, 0xD5	; 213
    2056:	30 81       	ld	r19, Z
    2058:	e1 e0       	ldi	r30, 0x01	; 1
    205a:	f0 e0       	ldi	r31, 0x00	; 0
    205c:	ec 0f       	add	r30, r28
    205e:	fd 1f       	adc	r31, r29
    2060:	e2 0f       	add	r30, r18
    2062:	f1 1d       	adc	r31, r1
    2064:	30 83       	st	Z, r19
		recv0_buf.tail = (recv0_buf.tail + 1) % BUFSIZE;
    2066:	01 96       	adiw	r24, 0x01	; 1
    2068:	8f 77       	andi	r24, 0x7F	; 127
    206a:	90 78       	andi	r25, 0x80	; 128
    206c:	99 23       	and	r25, r25
    206e:	24 f4       	brge	.+8      	; 0x2078 <commands+0x72>
    2070:	01 97       	sbiw	r24, 0x01	; 1
    2072:	80 68       	ori	r24, 0x80	; 128
    2074:	9f 6f       	ori	r25, 0xFF	; 255
    2076:	01 96       	adiw	r24, 0x01	; 1
		if (cmdline[i] == '\0') {
    2078:	31 11       	cpse	r19, r1
    207a:	03 c0       	rjmp	.+6      	; 0x2082 <commands+0x7c>
    207c:	80 93 11 2b 	sts	0x2B11, r24	; 0x802b11 <recv0_buf+0x81>
    2080:	04 c0       	rjmp	.+8      	; 0x208a <commands+0x84>
	uint8_t i, prompt_flag = GREATERPROMPT;
	static uint8_t rebootnack = 1;
	static uint8_t cstack = 0;		// Index for pcmd

	// Copy the command string to cmdline
	for (i = 0; i < BUFSIZE; i++) {
    2082:	2f 5f       	subi	r18, 0xFF	; 255
    2084:	22 f7       	brpl	.-56     	; 0x204e <commands+0x48>
    2086:	80 93 11 2b 	sts	0x2B11, r24	; 0x802b11 <recv0_buf+0x81>
			break;
		}
	}

	// Check if rebooted
	if (rebootnack) {
    208a:	80 91 00 28 	lds	r24, 0x2800	; 0x802800 <__DATA_REGION_ORIGIN__>
    208e:	88 23       	and	r24, r24
    2090:	69 f0       	breq	.+26     	; 0x20ac <commands+0xa6>
		if (cmdline[0] != '!') {
    2092:	89 81       	ldd	r24, Y+1	; 0x01
    2094:	81 32       	cpi	r24, 0x21	; 33
    2096:	21 f0       	breq	.+8      	; 0x20a0 <commands+0x9a>
			send_prompt(EXCLAIMPROMPT);		
    2098:	81 e0       	ldi	r24, 0x01	; 1
    209a:	0e 94 4d 0f 	call	0x1e9a	; 0x1e9a <send_prompt>
			return;
    209e:	60 c0       	rjmp	.+192    	; 0x2160 <commands+0x15a>
		} else {
			send_prompt(GREATERPROMPT);
    20a0:	80 e0       	ldi	r24, 0x00	; 0
    20a2:	0e 94 4d 0f 	call	0x1e9a	; 0x1e9a <send_prompt>
			rebootnack = 0;
    20a6:	10 92 00 28 	sts	0x2800, r1	; 0x802800 <__DATA_REGION_ORIGIN__>
			return;
    20aa:	5a c0       	rjmp	.+180    	; 0x2160 <commands+0x15a>
		}
	}

	// Echo the command back to the user
	echo_cmd(cmdline);
    20ac:	ce 01       	movw	r24, r28
    20ae:	01 96       	adiw	r24, 0x01	; 1
    20b0:	0e 94 18 0b 	call	0x1630	; 0x1630 <echo_cmd>

	if (strlen(cmdline) == 0) {		// Catch a terminal cr
    20b4:	89 81       	ldd	r24, Y+1	; 0x01
    20b6:	81 11       	cpse	r24, r1
    20b8:	03 c0       	rjmp	.+6      	; 0x20c0 <commands+0xba>
		send_prompt(GREATERPROMPT);
    20ba:	0e 94 4d 0f 	call	0x1e9a	; 0x1e9a <send_prompt>
		return;
    20be:	50 c0       	rjmp	.+160    	; 0x2160 <commands+0x15a>
	}

	parse_cmd(cmdline, cstack);
    20c0:	10 91 02 28 	lds	r17, 0x2802	; 0x802802 <__data_end>
    20c4:	61 2f       	mov	r22, r17
    20c6:	ce 01       	movw	r24, r28
    20c8:	01 96       	adiw	r24, 0x01	; 1
    20ca:	0e 94 63 0b 	call	0x16c6	; 0x16c6 <parse_cmd>
	verb = pcmd[cstack].cverb;
	object = pcmd[cstack].cobject;
    20ce:	24 e3       	ldi	r18, 0x34	; 52
    20d0:	12 9f       	mul	r17, r18
    20d2:	f0 01       	movw	r30, r0
    20d4:	11 24       	eor	r1, r1
    20d6:	ed 5f       	subi	r30, 0xFD	; 253
    20d8:	f7 4d       	sbci	r31, 0xD7	; 215
    20da:	81 81       	ldd	r24, Z+1	; 0x01

	switch (verb) {
    20dc:	90 81       	ld	r25, Z
    20de:	9f 36       	cpi	r25, 0x6F	; 111
    20e0:	79 f0       	breq	.+30     	; 0x2100 <commands+0xfa>
    20e2:	28 f4       	brcc	.+10     	; 0x20ee <commands+0xe8>
    20e4:	92 35       	cpi	r25, 0x52	; 82
    20e6:	d1 f0       	breq	.+52     	; 0x211c <commands+0x116>
    20e8:	93 36       	cpi	r25, 0x63	; 99
    20ea:	31 f0       	breq	.+12     	; 0x20f8 <commands+0xf2>
    20ec:	25 c0       	rjmp	.+74     	; 0x2138 <commands+0x132>
    20ee:	92 37       	cpi	r25, 0x72	; 114
    20f0:	59 f0       	breq	.+22     	; 0x2108 <commands+0x102>
    20f2:	93 37       	cpi	r25, 0x73	; 115
    20f4:	71 f0       	breq	.+28     	; 0x2112 <commands+0x10c>
    20f6:	20 c0       	rjmp	.+64     	; 0x2138 <commands+0x132>
		case 'c':				// close
			prompt_flag = pneu_close(object);
    20f8:	0e 94 29 02 	call	0x452	; 0x452 <pneu_close>
    20fc:	28 2f       	mov	r18, r24
			break;
    20fe:	1d c0       	rjmp	.+58     	; 0x213a <commands+0x134>

		case 'o':				// open
			prompt_flag = pneu_open(object);
    2100:	0e 94 52 02 	call	0x4a4	; 0x4a4 <pneu_open>
    2104:	28 2f       	mov	r18, r24
			break;
    2106:	19 c0       	rjmp	.+50     	; 0x213a <commands+0x134>

		case 'r':				// Report
			prompt_flag = report(cstack);
    2108:	81 2f       	mov	r24, r17
    210a:	0e 94 1b 0c 	call	0x1836	; 0x1836 <report>
    210e:	28 2f       	mov	r18, r24
			break;
    2110:	14 c0       	rjmp	.+40     	; 0x213a <commands+0x134>

		case 's':				// Set
			prompt_flag = set(cstack);
    2112:	81 2f       	mov	r24, r17
    2114:	0e 94 d3 0f 	call	0x1fa6	; 0x1fa6 <set>
    2118:	28 2f       	mov	r18, r24
			break;
    211a:	0f c0       	rjmp	.+30     	; 0x213a <commands+0x134>

		case 'R':				// Reboot
			send_prompt(GREATERPROMPT);
    211c:	80 e0       	ldi	r24, 0x00	; 0
    211e:	0e 94 4d 0f 	call	0x1e9a	; 0x1e9a <send_prompt>
	#else
		//round up by default
		__ticks_dc = (uint32_t)(ceil(fabs(__tmp)));
	#endif

	__builtin_avr_delay_cycles(__ticks_dc);
    2122:	8a e6       	ldi	r24, 0x6A	; 106
    2124:	94 e0       	ldi	r25, 0x04	; 4
    2126:	21 e0       	ldi	r18, 0x01	; 1
    2128:	81 50       	subi	r24, 0x01	; 1
    212a:	90 40       	sbci	r25, 0x00	; 0
    212c:	20 40       	sbci	r18, 0x00	; 0
    212e:	e1 f7       	brne	.-8      	; 0x2128 <commands+0x122>
    2130:	00 c0       	rjmp	.+0      	; 0x2132 <commands+0x12c>
			_delay_ms(100);		// Avoid finishing the command loop before reboot
			reboot();
    2132:	0e 94 12 0b 	call	0x1624	; 0x1624 <reboot>
			return;
    2136:	14 c0       	rjmp	.+40     	; 0x2160 <commands+0x15a>

		default:
			prompt_flag = ERRORPROMPT;
    2138:	22 e0       	ldi	r18, 0x02	; 2
			break;			
	}

	cstack = (cstack + 1) % CSTACKSIZE;
    213a:	80 91 02 28 	lds	r24, 0x2802	; 0x802802 <__data_end>
    213e:	90 e0       	ldi	r25, 0x00	; 0
    2140:	01 96       	adiw	r24, 0x01	; 1
    2142:	6a e0       	ldi	r22, 0x0A	; 10
    2144:	70 e0       	ldi	r23, 0x00	; 0
    2146:	0e 94 5a 16 	call	0x2cb4	; 0x2cb4 <__divmodhi4>
    214a:	80 93 02 28 	sts	0x2802, r24	; 0x802802 <__data_end>
	send_prompt(prompt_flag);
    214e:	82 2f       	mov	r24, r18
    2150:	0e 94 4d 0f 	call	0x1e9a	; 0x1e9a <send_prompt>
    2154:	05 c0       	rjmp	.+10     	; 0x2160 <commands+0x15a>
			break;
		}
	}

	// Check if rebooted
	if (rebootnack) {
    2156:	80 91 00 28 	lds	r24, 0x2800	; 0x802800 <__DATA_REGION_ORIGIN__>
    215a:	81 11       	cpse	r24, r1
    215c:	9d cf       	rjmp	.-198    	; 0x2098 <commands+0x92>
    215e:	a6 cf       	rjmp	.-180    	; 0x20ac <commands+0xa6>
	}

	cstack = (cstack + 1) % CSTACKSIZE;
	send_prompt(prompt_flag);

}
    2160:	c0 58       	subi	r28, 0x80	; 128
    2162:	df 4f       	sbci	r29, 0xFF	; 255
    2164:	cd bf       	out	0x3d, r28	; 61
    2166:	de bf       	out	0x3e, r29	; 62
    2168:	df 91       	pop	r29
    216a:	cf 91       	pop	r28
    216c:	1f 91       	pop	r17
    216e:	08 95       	ret

00002170 <main>:
ParsedCMD pcmd[CSTACKSIZE];	// Split the command line into its parts

int main(void)
{

	init_PORTS();
    2170:	0e 94 f0 00 	call	0x1e0	; 0x1e0 <init_PORTS>
	init_LED();
    2174:	0e 94 28 01 	call	0x250	; 0x250 <init_LED>
	init_SPECID();
    2178:	0e 94 2e 01 	call	0x25c	; 0x25c <init_SPECID>
	init_TWI();
    217c:	0e 94 42 01 	call	0x284	; 0x284 <init_TWI>
	init_PNEU();
    2180:	0e 94 fd 01 	call	0x3fa	; 0x3fa <init_PNEU>
	init_USART();
    2184:	0e 94 c4 04 	call	0x988	; 0x988 <init_USART>
	init_OLED(0);
    2188:	80 e0       	ldi	r24, 0x00	; 0
    218a:	0e 94 07 0a 	call	0x140e	; 0x140e <init_OLED>
	init_EEPROM();
    218e:	0e 94 0d 0b 	call	0x161a	; 0x161a <init_EEPROM>
	init_MMA8451();
    2192:	0e 94 3e 09 	call	0x127c	; 0x127c <init_MMA8451>
	sei();
    2196:	78 94       	sei

	for (;;) {
		if (recv0_buf.done) {
    2198:	c4 e1       	ldi	r28, 0x14	; 20
    219a:	db e2       	ldi	r29, 0x2B	; 43
    219c:	88 81       	ld	r24, Y
    219e:	88 23       	and	r24, r24
    21a0:	e9 f3       	breq	.-6      	; 0x219c <main+0x2c>
			recv0_buf.done = NO;
    21a2:	18 82       	st	Y, r1
			commands();
    21a4:	0e 94 03 10 	call	0x2006	; 0x2006 <commands>
    21a8:	f9 cf       	rjmp	.-14     	; 0x219c <main+0x2c>

000021aa <__subsf3>:
    21aa:	50 58       	subi	r21, 0x80	; 128

000021ac <__addsf3>:
    21ac:	bb 27       	eor	r27, r27
    21ae:	aa 27       	eor	r26, r26
    21b0:	0e 94 ed 10 	call	0x21da	; 0x21da <__addsf3x>
    21b4:	0c 94 31 12 	jmp	0x2462	; 0x2462 <__fp_round>
    21b8:	0e 94 23 12 	call	0x2446	; 0x2446 <__fp_pscA>
    21bc:	38 f0       	brcs	.+14     	; 0x21cc <__addsf3+0x20>
    21be:	0e 94 2a 12 	call	0x2454	; 0x2454 <__fp_pscB>
    21c2:	20 f0       	brcs	.+8      	; 0x21cc <__addsf3+0x20>
    21c4:	39 f4       	brne	.+14     	; 0x21d4 <__addsf3+0x28>
    21c6:	9f 3f       	cpi	r25, 0xFF	; 255
    21c8:	19 f4       	brne	.+6      	; 0x21d0 <__addsf3+0x24>
    21ca:	26 f4       	brtc	.+8      	; 0x21d4 <__addsf3+0x28>
    21cc:	0c 94 20 12 	jmp	0x2440	; 0x2440 <__fp_nan>
    21d0:	0e f4       	brtc	.+2      	; 0x21d4 <__addsf3+0x28>
    21d2:	e0 95       	com	r30
    21d4:	e7 fb       	bst	r30, 7
    21d6:	0c 94 1a 12 	jmp	0x2434	; 0x2434 <__fp_inf>

000021da <__addsf3x>:
    21da:	e9 2f       	mov	r30, r25
    21dc:	0e 94 42 12 	call	0x2484	; 0x2484 <__fp_split3>
    21e0:	58 f3       	brcs	.-42     	; 0x21b8 <__addsf3+0xc>
    21e2:	ba 17       	cp	r27, r26
    21e4:	62 07       	cpc	r22, r18
    21e6:	73 07       	cpc	r23, r19
    21e8:	84 07       	cpc	r24, r20
    21ea:	95 07       	cpc	r25, r21
    21ec:	20 f0       	brcs	.+8      	; 0x21f6 <__addsf3x+0x1c>
    21ee:	79 f4       	brne	.+30     	; 0x220e <__addsf3x+0x34>
    21f0:	a6 f5       	brtc	.+104    	; 0x225a <__addsf3x+0x80>
    21f2:	0c 94 64 12 	jmp	0x24c8	; 0x24c8 <__fp_zero>
    21f6:	0e f4       	brtc	.+2      	; 0x21fa <__addsf3x+0x20>
    21f8:	e0 95       	com	r30
    21fa:	0b 2e       	mov	r0, r27
    21fc:	ba 2f       	mov	r27, r26
    21fe:	a0 2d       	mov	r26, r0
    2200:	0b 01       	movw	r0, r22
    2202:	b9 01       	movw	r22, r18
    2204:	90 01       	movw	r18, r0
    2206:	0c 01       	movw	r0, r24
    2208:	ca 01       	movw	r24, r20
    220a:	a0 01       	movw	r20, r0
    220c:	11 24       	eor	r1, r1
    220e:	ff 27       	eor	r31, r31
    2210:	59 1b       	sub	r21, r25
    2212:	99 f0       	breq	.+38     	; 0x223a <__addsf3x+0x60>
    2214:	59 3f       	cpi	r21, 0xF9	; 249
    2216:	50 f4       	brcc	.+20     	; 0x222c <__addsf3x+0x52>
    2218:	50 3e       	cpi	r21, 0xE0	; 224
    221a:	68 f1       	brcs	.+90     	; 0x2276 <__addsf3x+0x9c>
    221c:	1a 16       	cp	r1, r26
    221e:	f0 40       	sbci	r31, 0x00	; 0
    2220:	a2 2f       	mov	r26, r18
    2222:	23 2f       	mov	r18, r19
    2224:	34 2f       	mov	r19, r20
    2226:	44 27       	eor	r20, r20
    2228:	58 5f       	subi	r21, 0xF8	; 248
    222a:	f3 cf       	rjmp	.-26     	; 0x2212 <__addsf3x+0x38>
    222c:	46 95       	lsr	r20
    222e:	37 95       	ror	r19
    2230:	27 95       	ror	r18
    2232:	a7 95       	ror	r26
    2234:	f0 40       	sbci	r31, 0x00	; 0
    2236:	53 95       	inc	r21
    2238:	c9 f7       	brne	.-14     	; 0x222c <__addsf3x+0x52>
    223a:	7e f4       	brtc	.+30     	; 0x225a <__addsf3x+0x80>
    223c:	1f 16       	cp	r1, r31
    223e:	ba 0b       	sbc	r27, r26
    2240:	62 0b       	sbc	r22, r18
    2242:	73 0b       	sbc	r23, r19
    2244:	84 0b       	sbc	r24, r20
    2246:	ba f0       	brmi	.+46     	; 0x2276 <__addsf3x+0x9c>
    2248:	91 50       	subi	r25, 0x01	; 1
    224a:	a1 f0       	breq	.+40     	; 0x2274 <__addsf3x+0x9a>
    224c:	ff 0f       	add	r31, r31
    224e:	bb 1f       	adc	r27, r27
    2250:	66 1f       	adc	r22, r22
    2252:	77 1f       	adc	r23, r23
    2254:	88 1f       	adc	r24, r24
    2256:	c2 f7       	brpl	.-16     	; 0x2248 <__addsf3x+0x6e>
    2258:	0e c0       	rjmp	.+28     	; 0x2276 <__addsf3x+0x9c>
    225a:	ba 0f       	add	r27, r26
    225c:	62 1f       	adc	r22, r18
    225e:	73 1f       	adc	r23, r19
    2260:	84 1f       	adc	r24, r20
    2262:	48 f4       	brcc	.+18     	; 0x2276 <__addsf3x+0x9c>
    2264:	87 95       	ror	r24
    2266:	77 95       	ror	r23
    2268:	67 95       	ror	r22
    226a:	b7 95       	ror	r27
    226c:	f7 95       	ror	r31
    226e:	9e 3f       	cpi	r25, 0xFE	; 254
    2270:	08 f0       	brcs	.+2      	; 0x2274 <__addsf3x+0x9a>
    2272:	b0 cf       	rjmp	.-160    	; 0x21d4 <__addsf3+0x28>
    2274:	93 95       	inc	r25
    2276:	88 0f       	add	r24, r24
    2278:	08 f0       	brcs	.+2      	; 0x227c <__addsf3x+0xa2>
    227a:	99 27       	eor	r25, r25
    227c:	ee 0f       	add	r30, r30
    227e:	97 95       	ror	r25
    2280:	87 95       	ror	r24
    2282:	08 95       	ret

00002284 <__cmpsf2>:
    2284:	0e 94 f6 11 	call	0x23ec	; 0x23ec <__fp_cmp>
    2288:	08 f4       	brcc	.+2      	; 0x228c <__cmpsf2+0x8>
    228a:	81 e0       	ldi	r24, 0x01	; 1
    228c:	08 95       	ret

0000228e <__divsf3>:
    228e:	0e 94 5b 11 	call	0x22b6	; 0x22b6 <__divsf3x>
    2292:	0c 94 31 12 	jmp	0x2462	; 0x2462 <__fp_round>
    2296:	0e 94 2a 12 	call	0x2454	; 0x2454 <__fp_pscB>
    229a:	58 f0       	brcs	.+22     	; 0x22b2 <__divsf3+0x24>
    229c:	0e 94 23 12 	call	0x2446	; 0x2446 <__fp_pscA>
    22a0:	40 f0       	brcs	.+16     	; 0x22b2 <__divsf3+0x24>
    22a2:	29 f4       	brne	.+10     	; 0x22ae <__divsf3+0x20>
    22a4:	5f 3f       	cpi	r21, 0xFF	; 255
    22a6:	29 f0       	breq	.+10     	; 0x22b2 <__divsf3+0x24>
    22a8:	0c 94 1a 12 	jmp	0x2434	; 0x2434 <__fp_inf>
    22ac:	51 11       	cpse	r21, r1
    22ae:	0c 94 65 12 	jmp	0x24ca	; 0x24ca <__fp_szero>
    22b2:	0c 94 20 12 	jmp	0x2440	; 0x2440 <__fp_nan>

000022b6 <__divsf3x>:
    22b6:	0e 94 42 12 	call	0x2484	; 0x2484 <__fp_split3>
    22ba:	68 f3       	brcs	.-38     	; 0x2296 <__divsf3+0x8>

000022bc <__divsf3_pse>:
    22bc:	99 23       	and	r25, r25
    22be:	b1 f3       	breq	.-20     	; 0x22ac <__divsf3+0x1e>
    22c0:	55 23       	and	r21, r21
    22c2:	91 f3       	breq	.-28     	; 0x22a8 <__divsf3+0x1a>
    22c4:	95 1b       	sub	r25, r21
    22c6:	55 0b       	sbc	r21, r21
    22c8:	bb 27       	eor	r27, r27
    22ca:	aa 27       	eor	r26, r26
    22cc:	62 17       	cp	r22, r18
    22ce:	73 07       	cpc	r23, r19
    22d0:	84 07       	cpc	r24, r20
    22d2:	38 f0       	brcs	.+14     	; 0x22e2 <__divsf3_pse+0x26>
    22d4:	9f 5f       	subi	r25, 0xFF	; 255
    22d6:	5f 4f       	sbci	r21, 0xFF	; 255
    22d8:	22 0f       	add	r18, r18
    22da:	33 1f       	adc	r19, r19
    22dc:	44 1f       	adc	r20, r20
    22de:	aa 1f       	adc	r26, r26
    22e0:	a9 f3       	breq	.-22     	; 0x22cc <__divsf3_pse+0x10>
    22e2:	35 d0       	rcall	.+106    	; 0x234e <__divsf3_pse+0x92>
    22e4:	0e 2e       	mov	r0, r30
    22e6:	3a f0       	brmi	.+14     	; 0x22f6 <__divsf3_pse+0x3a>
    22e8:	e0 e8       	ldi	r30, 0x80	; 128
    22ea:	32 d0       	rcall	.+100    	; 0x2350 <__divsf3_pse+0x94>
    22ec:	91 50       	subi	r25, 0x01	; 1
    22ee:	50 40       	sbci	r21, 0x00	; 0
    22f0:	e6 95       	lsr	r30
    22f2:	00 1c       	adc	r0, r0
    22f4:	ca f7       	brpl	.-14     	; 0x22e8 <__divsf3_pse+0x2c>
    22f6:	2b d0       	rcall	.+86     	; 0x234e <__divsf3_pse+0x92>
    22f8:	fe 2f       	mov	r31, r30
    22fa:	29 d0       	rcall	.+82     	; 0x234e <__divsf3_pse+0x92>
    22fc:	66 0f       	add	r22, r22
    22fe:	77 1f       	adc	r23, r23
    2300:	88 1f       	adc	r24, r24
    2302:	bb 1f       	adc	r27, r27
    2304:	26 17       	cp	r18, r22
    2306:	37 07       	cpc	r19, r23
    2308:	48 07       	cpc	r20, r24
    230a:	ab 07       	cpc	r26, r27
    230c:	b0 e8       	ldi	r27, 0x80	; 128
    230e:	09 f0       	breq	.+2      	; 0x2312 <__divsf3_pse+0x56>
    2310:	bb 0b       	sbc	r27, r27
    2312:	80 2d       	mov	r24, r0
    2314:	bf 01       	movw	r22, r30
    2316:	ff 27       	eor	r31, r31
    2318:	93 58       	subi	r25, 0x83	; 131
    231a:	5f 4f       	sbci	r21, 0xFF	; 255
    231c:	3a f0       	brmi	.+14     	; 0x232c <__divsf3_pse+0x70>
    231e:	9e 3f       	cpi	r25, 0xFE	; 254
    2320:	51 05       	cpc	r21, r1
    2322:	78 f0       	brcs	.+30     	; 0x2342 <__divsf3_pse+0x86>
    2324:	0c 94 1a 12 	jmp	0x2434	; 0x2434 <__fp_inf>
    2328:	0c 94 65 12 	jmp	0x24ca	; 0x24ca <__fp_szero>
    232c:	5f 3f       	cpi	r21, 0xFF	; 255
    232e:	e4 f3       	brlt	.-8      	; 0x2328 <__divsf3_pse+0x6c>
    2330:	98 3e       	cpi	r25, 0xE8	; 232
    2332:	d4 f3       	brlt	.-12     	; 0x2328 <__divsf3_pse+0x6c>
    2334:	86 95       	lsr	r24
    2336:	77 95       	ror	r23
    2338:	67 95       	ror	r22
    233a:	b7 95       	ror	r27
    233c:	f7 95       	ror	r31
    233e:	9f 5f       	subi	r25, 0xFF	; 255
    2340:	c9 f7       	brne	.-14     	; 0x2334 <__divsf3_pse+0x78>
    2342:	88 0f       	add	r24, r24
    2344:	91 1d       	adc	r25, r1
    2346:	96 95       	lsr	r25
    2348:	87 95       	ror	r24
    234a:	97 f9       	bld	r25, 7
    234c:	08 95       	ret
    234e:	e1 e0       	ldi	r30, 0x01	; 1
    2350:	66 0f       	add	r22, r22
    2352:	77 1f       	adc	r23, r23
    2354:	88 1f       	adc	r24, r24
    2356:	bb 1f       	adc	r27, r27
    2358:	62 17       	cp	r22, r18
    235a:	73 07       	cpc	r23, r19
    235c:	84 07       	cpc	r24, r20
    235e:	ba 07       	cpc	r27, r26
    2360:	20 f0       	brcs	.+8      	; 0x236a <__divsf3_pse+0xae>
    2362:	62 1b       	sub	r22, r18
    2364:	73 0b       	sbc	r23, r19
    2366:	84 0b       	sbc	r24, r20
    2368:	ba 0b       	sbc	r27, r26
    236a:	ee 1f       	adc	r30, r30
    236c:	88 f7       	brcc	.-30     	; 0x2350 <__divsf3_pse+0x94>
    236e:	e0 95       	com	r30
    2370:	08 95       	ret

00002372 <__floatunsisf>:
    2372:	e8 94       	clt
    2374:	09 c0       	rjmp	.+18     	; 0x2388 <__floatsisf+0x12>

00002376 <__floatsisf>:
    2376:	97 fb       	bst	r25, 7
    2378:	3e f4       	brtc	.+14     	; 0x2388 <__floatsisf+0x12>
    237a:	90 95       	com	r25
    237c:	80 95       	com	r24
    237e:	70 95       	com	r23
    2380:	61 95       	neg	r22
    2382:	7f 4f       	sbci	r23, 0xFF	; 255
    2384:	8f 4f       	sbci	r24, 0xFF	; 255
    2386:	9f 4f       	sbci	r25, 0xFF	; 255
    2388:	99 23       	and	r25, r25
    238a:	a9 f0       	breq	.+42     	; 0x23b6 <__floatsisf+0x40>
    238c:	f9 2f       	mov	r31, r25
    238e:	96 e9       	ldi	r25, 0x96	; 150
    2390:	bb 27       	eor	r27, r27
    2392:	93 95       	inc	r25
    2394:	f6 95       	lsr	r31
    2396:	87 95       	ror	r24
    2398:	77 95       	ror	r23
    239a:	67 95       	ror	r22
    239c:	b7 95       	ror	r27
    239e:	f1 11       	cpse	r31, r1
    23a0:	f8 cf       	rjmp	.-16     	; 0x2392 <__floatsisf+0x1c>
    23a2:	fa f4       	brpl	.+62     	; 0x23e2 <__floatsisf+0x6c>
    23a4:	bb 0f       	add	r27, r27
    23a6:	11 f4       	brne	.+4      	; 0x23ac <__floatsisf+0x36>
    23a8:	60 ff       	sbrs	r22, 0
    23aa:	1b c0       	rjmp	.+54     	; 0x23e2 <__floatsisf+0x6c>
    23ac:	6f 5f       	subi	r22, 0xFF	; 255
    23ae:	7f 4f       	sbci	r23, 0xFF	; 255
    23b0:	8f 4f       	sbci	r24, 0xFF	; 255
    23b2:	9f 4f       	sbci	r25, 0xFF	; 255
    23b4:	16 c0       	rjmp	.+44     	; 0x23e2 <__floatsisf+0x6c>
    23b6:	88 23       	and	r24, r24
    23b8:	11 f0       	breq	.+4      	; 0x23be <__floatsisf+0x48>
    23ba:	96 e9       	ldi	r25, 0x96	; 150
    23bc:	11 c0       	rjmp	.+34     	; 0x23e0 <__floatsisf+0x6a>
    23be:	77 23       	and	r23, r23
    23c0:	21 f0       	breq	.+8      	; 0x23ca <__floatsisf+0x54>
    23c2:	9e e8       	ldi	r25, 0x8E	; 142
    23c4:	87 2f       	mov	r24, r23
    23c6:	76 2f       	mov	r23, r22
    23c8:	05 c0       	rjmp	.+10     	; 0x23d4 <__floatsisf+0x5e>
    23ca:	66 23       	and	r22, r22
    23cc:	71 f0       	breq	.+28     	; 0x23ea <__floatsisf+0x74>
    23ce:	96 e8       	ldi	r25, 0x86	; 134
    23d0:	86 2f       	mov	r24, r22
    23d2:	70 e0       	ldi	r23, 0x00	; 0
    23d4:	60 e0       	ldi	r22, 0x00	; 0
    23d6:	2a f0       	brmi	.+10     	; 0x23e2 <__floatsisf+0x6c>
    23d8:	9a 95       	dec	r25
    23da:	66 0f       	add	r22, r22
    23dc:	77 1f       	adc	r23, r23
    23de:	88 1f       	adc	r24, r24
    23e0:	da f7       	brpl	.-10     	; 0x23d8 <__floatsisf+0x62>
    23e2:	88 0f       	add	r24, r24
    23e4:	96 95       	lsr	r25
    23e6:	87 95       	ror	r24
    23e8:	97 f9       	bld	r25, 7
    23ea:	08 95       	ret

000023ec <__fp_cmp>:
    23ec:	99 0f       	add	r25, r25
    23ee:	00 08       	sbc	r0, r0
    23f0:	55 0f       	add	r21, r21
    23f2:	aa 0b       	sbc	r26, r26
    23f4:	e0 e8       	ldi	r30, 0x80	; 128
    23f6:	fe ef       	ldi	r31, 0xFE	; 254
    23f8:	16 16       	cp	r1, r22
    23fa:	17 06       	cpc	r1, r23
    23fc:	e8 07       	cpc	r30, r24
    23fe:	f9 07       	cpc	r31, r25
    2400:	c0 f0       	brcs	.+48     	; 0x2432 <__fp_cmp+0x46>
    2402:	12 16       	cp	r1, r18
    2404:	13 06       	cpc	r1, r19
    2406:	e4 07       	cpc	r30, r20
    2408:	f5 07       	cpc	r31, r21
    240a:	98 f0       	brcs	.+38     	; 0x2432 <__fp_cmp+0x46>
    240c:	62 1b       	sub	r22, r18
    240e:	73 0b       	sbc	r23, r19
    2410:	84 0b       	sbc	r24, r20
    2412:	95 0b       	sbc	r25, r21
    2414:	39 f4       	brne	.+14     	; 0x2424 <__fp_cmp+0x38>
    2416:	0a 26       	eor	r0, r26
    2418:	61 f0       	breq	.+24     	; 0x2432 <__fp_cmp+0x46>
    241a:	23 2b       	or	r18, r19
    241c:	24 2b       	or	r18, r20
    241e:	25 2b       	or	r18, r21
    2420:	21 f4       	brne	.+8      	; 0x242a <__fp_cmp+0x3e>
    2422:	08 95       	ret
    2424:	0a 26       	eor	r0, r26
    2426:	09 f4       	brne	.+2      	; 0x242a <__fp_cmp+0x3e>
    2428:	a1 40       	sbci	r26, 0x01	; 1
    242a:	a6 95       	lsr	r26
    242c:	8f ef       	ldi	r24, 0xFF	; 255
    242e:	81 1d       	adc	r24, r1
    2430:	81 1d       	adc	r24, r1
    2432:	08 95       	ret

00002434 <__fp_inf>:
    2434:	97 f9       	bld	r25, 7
    2436:	9f 67       	ori	r25, 0x7F	; 127
    2438:	80 e8       	ldi	r24, 0x80	; 128
    243a:	70 e0       	ldi	r23, 0x00	; 0
    243c:	60 e0       	ldi	r22, 0x00	; 0
    243e:	08 95       	ret

00002440 <__fp_nan>:
    2440:	9f ef       	ldi	r25, 0xFF	; 255
    2442:	80 ec       	ldi	r24, 0xC0	; 192
    2444:	08 95       	ret

00002446 <__fp_pscA>:
    2446:	00 24       	eor	r0, r0
    2448:	0a 94       	dec	r0
    244a:	16 16       	cp	r1, r22
    244c:	17 06       	cpc	r1, r23
    244e:	18 06       	cpc	r1, r24
    2450:	09 06       	cpc	r0, r25
    2452:	08 95       	ret

00002454 <__fp_pscB>:
    2454:	00 24       	eor	r0, r0
    2456:	0a 94       	dec	r0
    2458:	12 16       	cp	r1, r18
    245a:	13 06       	cpc	r1, r19
    245c:	14 06       	cpc	r1, r20
    245e:	05 06       	cpc	r0, r21
    2460:	08 95       	ret

00002462 <__fp_round>:
    2462:	09 2e       	mov	r0, r25
    2464:	03 94       	inc	r0
    2466:	00 0c       	add	r0, r0
    2468:	11 f4       	brne	.+4      	; 0x246e <__fp_round+0xc>
    246a:	88 23       	and	r24, r24
    246c:	52 f0       	brmi	.+20     	; 0x2482 <__fp_round+0x20>
    246e:	bb 0f       	add	r27, r27
    2470:	40 f4       	brcc	.+16     	; 0x2482 <__fp_round+0x20>
    2472:	bf 2b       	or	r27, r31
    2474:	11 f4       	brne	.+4      	; 0x247a <__fp_round+0x18>
    2476:	60 ff       	sbrs	r22, 0
    2478:	04 c0       	rjmp	.+8      	; 0x2482 <__fp_round+0x20>
    247a:	6f 5f       	subi	r22, 0xFF	; 255
    247c:	7f 4f       	sbci	r23, 0xFF	; 255
    247e:	8f 4f       	sbci	r24, 0xFF	; 255
    2480:	9f 4f       	sbci	r25, 0xFF	; 255
    2482:	08 95       	ret

00002484 <__fp_split3>:
    2484:	57 fd       	sbrc	r21, 7
    2486:	90 58       	subi	r25, 0x80	; 128
    2488:	44 0f       	add	r20, r20
    248a:	55 1f       	adc	r21, r21
    248c:	59 f0       	breq	.+22     	; 0x24a4 <__fp_splitA+0x10>
    248e:	5f 3f       	cpi	r21, 0xFF	; 255
    2490:	71 f0       	breq	.+28     	; 0x24ae <__fp_splitA+0x1a>
    2492:	47 95       	ror	r20

00002494 <__fp_splitA>:
    2494:	88 0f       	add	r24, r24
    2496:	97 fb       	bst	r25, 7
    2498:	99 1f       	adc	r25, r25
    249a:	61 f0       	breq	.+24     	; 0x24b4 <__fp_splitA+0x20>
    249c:	9f 3f       	cpi	r25, 0xFF	; 255
    249e:	79 f0       	breq	.+30     	; 0x24be <__fp_splitA+0x2a>
    24a0:	87 95       	ror	r24
    24a2:	08 95       	ret
    24a4:	12 16       	cp	r1, r18
    24a6:	13 06       	cpc	r1, r19
    24a8:	14 06       	cpc	r1, r20
    24aa:	55 1f       	adc	r21, r21
    24ac:	f2 cf       	rjmp	.-28     	; 0x2492 <__fp_split3+0xe>
    24ae:	46 95       	lsr	r20
    24b0:	f1 df       	rcall	.-30     	; 0x2494 <__fp_splitA>
    24b2:	08 c0       	rjmp	.+16     	; 0x24c4 <__fp_splitA+0x30>
    24b4:	16 16       	cp	r1, r22
    24b6:	17 06       	cpc	r1, r23
    24b8:	18 06       	cpc	r1, r24
    24ba:	99 1f       	adc	r25, r25
    24bc:	f1 cf       	rjmp	.-30     	; 0x24a0 <__fp_splitA+0xc>
    24be:	86 95       	lsr	r24
    24c0:	71 05       	cpc	r23, r1
    24c2:	61 05       	cpc	r22, r1
    24c4:	08 94       	sec
    24c6:	08 95       	ret

000024c8 <__fp_zero>:
    24c8:	e8 94       	clt

000024ca <__fp_szero>:
    24ca:	bb 27       	eor	r27, r27
    24cc:	66 27       	eor	r22, r22
    24ce:	77 27       	eor	r23, r23
    24d0:	cb 01       	movw	r24, r22
    24d2:	97 f9       	bld	r25, 7
    24d4:	08 95       	ret

000024d6 <__gesf2>:
    24d6:	0e 94 f6 11 	call	0x23ec	; 0x23ec <__fp_cmp>
    24da:	08 f4       	brcc	.+2      	; 0x24de <__gesf2+0x8>
    24dc:	8f ef       	ldi	r24, 0xFF	; 255
    24de:	08 95       	ret

000024e0 <__mulsf3>:
    24e0:	0e 94 83 12 	call	0x2506	; 0x2506 <__mulsf3x>
    24e4:	0c 94 31 12 	jmp	0x2462	; 0x2462 <__fp_round>
    24e8:	0e 94 23 12 	call	0x2446	; 0x2446 <__fp_pscA>
    24ec:	38 f0       	brcs	.+14     	; 0x24fc <__mulsf3+0x1c>
    24ee:	0e 94 2a 12 	call	0x2454	; 0x2454 <__fp_pscB>
    24f2:	20 f0       	brcs	.+8      	; 0x24fc <__mulsf3+0x1c>
    24f4:	95 23       	and	r25, r21
    24f6:	11 f0       	breq	.+4      	; 0x24fc <__mulsf3+0x1c>
    24f8:	0c 94 1a 12 	jmp	0x2434	; 0x2434 <__fp_inf>
    24fc:	0c 94 20 12 	jmp	0x2440	; 0x2440 <__fp_nan>
    2500:	11 24       	eor	r1, r1
    2502:	0c 94 65 12 	jmp	0x24ca	; 0x24ca <__fp_szero>

00002506 <__mulsf3x>:
    2506:	0e 94 42 12 	call	0x2484	; 0x2484 <__fp_split3>
    250a:	70 f3       	brcs	.-36     	; 0x24e8 <__mulsf3+0x8>

0000250c <__mulsf3_pse>:
    250c:	95 9f       	mul	r25, r21
    250e:	c1 f3       	breq	.-16     	; 0x2500 <__mulsf3+0x20>
    2510:	95 0f       	add	r25, r21
    2512:	50 e0       	ldi	r21, 0x00	; 0
    2514:	55 1f       	adc	r21, r21
    2516:	62 9f       	mul	r22, r18
    2518:	f0 01       	movw	r30, r0
    251a:	72 9f       	mul	r23, r18
    251c:	bb 27       	eor	r27, r27
    251e:	f0 0d       	add	r31, r0
    2520:	b1 1d       	adc	r27, r1
    2522:	63 9f       	mul	r22, r19
    2524:	aa 27       	eor	r26, r26
    2526:	f0 0d       	add	r31, r0
    2528:	b1 1d       	adc	r27, r1
    252a:	aa 1f       	adc	r26, r26
    252c:	64 9f       	mul	r22, r20
    252e:	66 27       	eor	r22, r22
    2530:	b0 0d       	add	r27, r0
    2532:	a1 1d       	adc	r26, r1
    2534:	66 1f       	adc	r22, r22
    2536:	82 9f       	mul	r24, r18
    2538:	22 27       	eor	r18, r18
    253a:	b0 0d       	add	r27, r0
    253c:	a1 1d       	adc	r26, r1
    253e:	62 1f       	adc	r22, r18
    2540:	73 9f       	mul	r23, r19
    2542:	b0 0d       	add	r27, r0
    2544:	a1 1d       	adc	r26, r1
    2546:	62 1f       	adc	r22, r18
    2548:	83 9f       	mul	r24, r19
    254a:	a0 0d       	add	r26, r0
    254c:	61 1d       	adc	r22, r1
    254e:	22 1f       	adc	r18, r18
    2550:	74 9f       	mul	r23, r20
    2552:	33 27       	eor	r19, r19
    2554:	a0 0d       	add	r26, r0
    2556:	61 1d       	adc	r22, r1
    2558:	23 1f       	adc	r18, r19
    255a:	84 9f       	mul	r24, r20
    255c:	60 0d       	add	r22, r0
    255e:	21 1d       	adc	r18, r1
    2560:	82 2f       	mov	r24, r18
    2562:	76 2f       	mov	r23, r22
    2564:	6a 2f       	mov	r22, r26
    2566:	11 24       	eor	r1, r1
    2568:	9f 57       	subi	r25, 0x7F	; 127
    256a:	50 40       	sbci	r21, 0x00	; 0
    256c:	9a f0       	brmi	.+38     	; 0x2594 <__mulsf3_pse+0x88>
    256e:	f1 f0       	breq	.+60     	; 0x25ac <__mulsf3_pse+0xa0>
    2570:	88 23       	and	r24, r24
    2572:	4a f0       	brmi	.+18     	; 0x2586 <__mulsf3_pse+0x7a>
    2574:	ee 0f       	add	r30, r30
    2576:	ff 1f       	adc	r31, r31
    2578:	bb 1f       	adc	r27, r27
    257a:	66 1f       	adc	r22, r22
    257c:	77 1f       	adc	r23, r23
    257e:	88 1f       	adc	r24, r24
    2580:	91 50       	subi	r25, 0x01	; 1
    2582:	50 40       	sbci	r21, 0x00	; 0
    2584:	a9 f7       	brne	.-22     	; 0x2570 <__mulsf3_pse+0x64>
    2586:	9e 3f       	cpi	r25, 0xFE	; 254
    2588:	51 05       	cpc	r21, r1
    258a:	80 f0       	brcs	.+32     	; 0x25ac <__mulsf3_pse+0xa0>
    258c:	0c 94 1a 12 	jmp	0x2434	; 0x2434 <__fp_inf>
    2590:	0c 94 65 12 	jmp	0x24ca	; 0x24ca <__fp_szero>
    2594:	5f 3f       	cpi	r21, 0xFF	; 255
    2596:	e4 f3       	brlt	.-8      	; 0x2590 <__mulsf3_pse+0x84>
    2598:	98 3e       	cpi	r25, 0xE8	; 232
    259a:	d4 f3       	brlt	.-12     	; 0x2590 <__mulsf3_pse+0x84>
    259c:	86 95       	lsr	r24
    259e:	77 95       	ror	r23
    25a0:	67 95       	ror	r22
    25a2:	b7 95       	ror	r27
    25a4:	f7 95       	ror	r31
    25a6:	e7 95       	ror	r30
    25a8:	9f 5f       	subi	r25, 0xFF	; 255
    25aa:	c1 f7       	brne	.-16     	; 0x259c <__mulsf3_pse+0x90>
    25ac:	fe 2b       	or	r31, r30
    25ae:	88 0f       	add	r24, r24
    25b0:	91 1d       	adc	r25, r1
    25b2:	96 95       	lsr	r25
    25b4:	87 95       	ror	r24
    25b6:	97 f9       	bld	r25, 7
    25b8:	08 95       	ret

000025ba <vfprintf>:
    25ba:	a0 e1       	ldi	r26, 0x10	; 16
    25bc:	b0 e0       	ldi	r27, 0x00	; 0
    25be:	e3 ee       	ldi	r30, 0xE3	; 227
    25c0:	f2 e1       	ldi	r31, 0x12	; 18
    25c2:	0c 94 6e 16 	jmp	0x2cdc	; 0x2cdc <__prologue_saves__>
    25c6:	7c 01       	movw	r14, r24
    25c8:	1b 01       	movw	r2, r22
    25ca:	6a 01       	movw	r12, r20
    25cc:	fc 01       	movw	r30, r24
    25ce:	16 82       	std	Z+6, r1	; 0x06
    25d0:	17 82       	std	Z+7, r1	; 0x07
    25d2:	83 81       	ldd	r24, Z+3	; 0x03
    25d4:	81 ff       	sbrs	r24, 1
    25d6:	44 c3       	rjmp	.+1672   	; 0x2c60 <vfprintf+0x6a6>
    25d8:	9e 01       	movw	r18, r28
    25da:	2f 5f       	subi	r18, 0xFF	; 255
    25dc:	3f 4f       	sbci	r19, 0xFF	; 255
    25de:	39 01       	movw	r6, r18
    25e0:	f7 01       	movw	r30, r14
    25e2:	93 81       	ldd	r25, Z+3	; 0x03
    25e4:	f1 01       	movw	r30, r2
    25e6:	93 fd       	sbrc	r25, 3
    25e8:	85 91       	lpm	r24, Z+
    25ea:	93 ff       	sbrs	r25, 3
    25ec:	81 91       	ld	r24, Z+
    25ee:	1f 01       	movw	r2, r30
    25f0:	88 23       	and	r24, r24
    25f2:	09 f4       	brne	.+2      	; 0x25f6 <vfprintf+0x3c>
    25f4:	31 c3       	rjmp	.+1634   	; 0x2c58 <vfprintf+0x69e>
    25f6:	85 32       	cpi	r24, 0x25	; 37
    25f8:	39 f4       	brne	.+14     	; 0x2608 <vfprintf+0x4e>
    25fa:	93 fd       	sbrc	r25, 3
    25fc:	85 91       	lpm	r24, Z+
    25fe:	93 ff       	sbrs	r25, 3
    2600:	81 91       	ld	r24, Z+
    2602:	1f 01       	movw	r2, r30
    2604:	85 32       	cpi	r24, 0x25	; 37
    2606:	39 f4       	brne	.+14     	; 0x2616 <vfprintf+0x5c>
    2608:	b7 01       	movw	r22, r14
    260a:	90 e0       	ldi	r25, 0x00	; 0
    260c:	0e 94 b3 17 	call	0x2f66	; 0x2f66 <fputc>
    2610:	56 01       	movw	r10, r12
    2612:	65 01       	movw	r12, r10
    2614:	e5 cf       	rjmp	.-54     	; 0x25e0 <vfprintf+0x26>
    2616:	10 e0       	ldi	r17, 0x00	; 0
    2618:	51 2c       	mov	r5, r1
    261a:	91 2c       	mov	r9, r1
    261c:	ff e1       	ldi	r31, 0x1F	; 31
    261e:	f9 15       	cp	r31, r9
    2620:	d8 f0       	brcs	.+54     	; 0x2658 <vfprintf+0x9e>
    2622:	8b 32       	cpi	r24, 0x2B	; 43
    2624:	79 f0       	breq	.+30     	; 0x2644 <vfprintf+0x8a>
    2626:	38 f4       	brcc	.+14     	; 0x2636 <vfprintf+0x7c>
    2628:	80 32       	cpi	r24, 0x20	; 32
    262a:	79 f0       	breq	.+30     	; 0x264a <vfprintf+0x90>
    262c:	83 32       	cpi	r24, 0x23	; 35
    262e:	a1 f4       	brne	.+40     	; 0x2658 <vfprintf+0x9e>
    2630:	f9 2d       	mov	r31, r9
    2632:	f0 61       	ori	r31, 0x10	; 16
    2634:	2e c0       	rjmp	.+92     	; 0x2692 <vfprintf+0xd8>
    2636:	8d 32       	cpi	r24, 0x2D	; 45
    2638:	61 f0       	breq	.+24     	; 0x2652 <vfprintf+0x98>
    263a:	80 33       	cpi	r24, 0x30	; 48
    263c:	69 f4       	brne	.+26     	; 0x2658 <vfprintf+0x9e>
    263e:	29 2d       	mov	r18, r9
    2640:	21 60       	ori	r18, 0x01	; 1
    2642:	2d c0       	rjmp	.+90     	; 0x269e <vfprintf+0xe4>
    2644:	39 2d       	mov	r19, r9
    2646:	32 60       	ori	r19, 0x02	; 2
    2648:	93 2e       	mov	r9, r19
    264a:	89 2d       	mov	r24, r9
    264c:	84 60       	ori	r24, 0x04	; 4
    264e:	98 2e       	mov	r9, r24
    2650:	2a c0       	rjmp	.+84     	; 0x26a6 <vfprintf+0xec>
    2652:	e9 2d       	mov	r30, r9
    2654:	e8 60       	ori	r30, 0x08	; 8
    2656:	15 c0       	rjmp	.+42     	; 0x2682 <vfprintf+0xc8>
    2658:	97 fc       	sbrc	r9, 7
    265a:	2d c0       	rjmp	.+90     	; 0x26b6 <vfprintf+0xfc>
    265c:	20 ed       	ldi	r18, 0xD0	; 208
    265e:	28 0f       	add	r18, r24
    2660:	2a 30       	cpi	r18, 0x0A	; 10
    2662:	88 f4       	brcc	.+34     	; 0x2686 <vfprintf+0xcc>
    2664:	96 fe       	sbrs	r9, 6
    2666:	06 c0       	rjmp	.+12     	; 0x2674 <vfprintf+0xba>
    2668:	3a e0       	ldi	r19, 0x0A	; 10
    266a:	13 9f       	mul	r17, r19
    266c:	20 0d       	add	r18, r0
    266e:	11 24       	eor	r1, r1
    2670:	12 2f       	mov	r17, r18
    2672:	19 c0       	rjmp	.+50     	; 0x26a6 <vfprintf+0xec>
    2674:	8a e0       	ldi	r24, 0x0A	; 10
    2676:	58 9e       	mul	r5, r24
    2678:	20 0d       	add	r18, r0
    267a:	11 24       	eor	r1, r1
    267c:	52 2e       	mov	r5, r18
    267e:	e9 2d       	mov	r30, r9
    2680:	e0 62       	ori	r30, 0x20	; 32
    2682:	9e 2e       	mov	r9, r30
    2684:	10 c0       	rjmp	.+32     	; 0x26a6 <vfprintf+0xec>
    2686:	8e 32       	cpi	r24, 0x2E	; 46
    2688:	31 f4       	brne	.+12     	; 0x2696 <vfprintf+0xdc>
    268a:	96 fc       	sbrc	r9, 6
    268c:	e5 c2       	rjmp	.+1482   	; 0x2c58 <vfprintf+0x69e>
    268e:	f9 2d       	mov	r31, r9
    2690:	f0 64       	ori	r31, 0x40	; 64
    2692:	9f 2e       	mov	r9, r31
    2694:	08 c0       	rjmp	.+16     	; 0x26a6 <vfprintf+0xec>
    2696:	8c 36       	cpi	r24, 0x6C	; 108
    2698:	21 f4       	brne	.+8      	; 0x26a2 <vfprintf+0xe8>
    269a:	29 2d       	mov	r18, r9
    269c:	20 68       	ori	r18, 0x80	; 128
    269e:	92 2e       	mov	r9, r18
    26a0:	02 c0       	rjmp	.+4      	; 0x26a6 <vfprintf+0xec>
    26a2:	88 36       	cpi	r24, 0x68	; 104
    26a4:	41 f4       	brne	.+16     	; 0x26b6 <vfprintf+0xfc>
    26a6:	f1 01       	movw	r30, r2
    26a8:	93 fd       	sbrc	r25, 3
    26aa:	85 91       	lpm	r24, Z+
    26ac:	93 ff       	sbrs	r25, 3
    26ae:	81 91       	ld	r24, Z+
    26b0:	1f 01       	movw	r2, r30
    26b2:	81 11       	cpse	r24, r1
    26b4:	b3 cf       	rjmp	.-154    	; 0x261c <vfprintf+0x62>
    26b6:	9b eb       	ldi	r25, 0xBB	; 187
    26b8:	98 0f       	add	r25, r24
    26ba:	93 30       	cpi	r25, 0x03	; 3
    26bc:	20 f4       	brcc	.+8      	; 0x26c6 <vfprintf+0x10c>
    26be:	99 2d       	mov	r25, r9
    26c0:	90 61       	ori	r25, 0x10	; 16
    26c2:	80 5e       	subi	r24, 0xE0	; 224
    26c4:	07 c0       	rjmp	.+14     	; 0x26d4 <vfprintf+0x11a>
    26c6:	9b e9       	ldi	r25, 0x9B	; 155
    26c8:	98 0f       	add	r25, r24
    26ca:	93 30       	cpi	r25, 0x03	; 3
    26cc:	08 f0       	brcs	.+2      	; 0x26d0 <vfprintf+0x116>
    26ce:	66 c1       	rjmp	.+716    	; 0x299c <vfprintf+0x3e2>
    26d0:	99 2d       	mov	r25, r9
    26d2:	9f 7e       	andi	r25, 0xEF	; 239
    26d4:	96 ff       	sbrs	r25, 6
    26d6:	16 e0       	ldi	r17, 0x06	; 6
    26d8:	9f 73       	andi	r25, 0x3F	; 63
    26da:	99 2e       	mov	r9, r25
    26dc:	85 36       	cpi	r24, 0x65	; 101
    26de:	19 f4       	brne	.+6      	; 0x26e6 <vfprintf+0x12c>
    26e0:	90 64       	ori	r25, 0x40	; 64
    26e2:	99 2e       	mov	r9, r25
    26e4:	08 c0       	rjmp	.+16     	; 0x26f6 <vfprintf+0x13c>
    26e6:	86 36       	cpi	r24, 0x66	; 102
    26e8:	21 f4       	brne	.+8      	; 0x26f2 <vfprintf+0x138>
    26ea:	39 2f       	mov	r19, r25
    26ec:	30 68       	ori	r19, 0x80	; 128
    26ee:	93 2e       	mov	r9, r19
    26f0:	02 c0       	rjmp	.+4      	; 0x26f6 <vfprintf+0x13c>
    26f2:	11 11       	cpse	r17, r1
    26f4:	11 50       	subi	r17, 0x01	; 1
    26f6:	97 fe       	sbrs	r9, 7
    26f8:	07 c0       	rjmp	.+14     	; 0x2708 <vfprintf+0x14e>
    26fa:	1c 33       	cpi	r17, 0x3C	; 60
    26fc:	50 f4       	brcc	.+20     	; 0x2712 <vfprintf+0x158>
    26fe:	44 24       	eor	r4, r4
    2700:	43 94       	inc	r4
    2702:	41 0e       	add	r4, r17
    2704:	27 e0       	ldi	r18, 0x07	; 7
    2706:	0b c0       	rjmp	.+22     	; 0x271e <vfprintf+0x164>
    2708:	18 30       	cpi	r17, 0x08	; 8
    270a:	38 f0       	brcs	.+14     	; 0x271a <vfprintf+0x160>
    270c:	27 e0       	ldi	r18, 0x07	; 7
    270e:	17 e0       	ldi	r17, 0x07	; 7
    2710:	05 c0       	rjmp	.+10     	; 0x271c <vfprintf+0x162>
    2712:	27 e0       	ldi	r18, 0x07	; 7
    2714:	9c e3       	ldi	r25, 0x3C	; 60
    2716:	49 2e       	mov	r4, r25
    2718:	02 c0       	rjmp	.+4      	; 0x271e <vfprintf+0x164>
    271a:	21 2f       	mov	r18, r17
    271c:	41 2c       	mov	r4, r1
    271e:	56 01       	movw	r10, r12
    2720:	84 e0       	ldi	r24, 0x04	; 4
    2722:	a8 0e       	add	r10, r24
    2724:	b1 1c       	adc	r11, r1
    2726:	f6 01       	movw	r30, r12
    2728:	60 81       	ld	r22, Z
    272a:	71 81       	ldd	r23, Z+1	; 0x01
    272c:	82 81       	ldd	r24, Z+2	; 0x02
    272e:	93 81       	ldd	r25, Z+3	; 0x03
    2730:	04 2d       	mov	r16, r4
    2732:	a3 01       	movw	r20, r6
    2734:	0e 94 b3 16 	call	0x2d66	; 0x2d66 <__ftoa_engine>
    2738:	6c 01       	movw	r12, r24
    273a:	f9 81       	ldd	r31, Y+1	; 0x01
    273c:	fc 87       	std	Y+12, r31	; 0x0c
    273e:	f0 ff       	sbrs	r31, 0
    2740:	02 c0       	rjmp	.+4      	; 0x2746 <vfprintf+0x18c>
    2742:	f3 ff       	sbrs	r31, 3
    2744:	06 c0       	rjmp	.+12     	; 0x2752 <vfprintf+0x198>
    2746:	91 fc       	sbrc	r9, 1
    2748:	06 c0       	rjmp	.+12     	; 0x2756 <vfprintf+0x19c>
    274a:	92 fe       	sbrs	r9, 2
    274c:	06 c0       	rjmp	.+12     	; 0x275a <vfprintf+0x1a0>
    274e:	00 e2       	ldi	r16, 0x20	; 32
    2750:	05 c0       	rjmp	.+10     	; 0x275c <vfprintf+0x1a2>
    2752:	0d e2       	ldi	r16, 0x2D	; 45
    2754:	03 c0       	rjmp	.+6      	; 0x275c <vfprintf+0x1a2>
    2756:	0b e2       	ldi	r16, 0x2B	; 43
    2758:	01 c0       	rjmp	.+2      	; 0x275c <vfprintf+0x1a2>
    275a:	00 e0       	ldi	r16, 0x00	; 0
    275c:	8c 85       	ldd	r24, Y+12	; 0x0c
    275e:	8c 70       	andi	r24, 0x0C	; 12
    2760:	19 f0       	breq	.+6      	; 0x2768 <vfprintf+0x1ae>
    2762:	01 11       	cpse	r16, r1
    2764:	5a c2       	rjmp	.+1204   	; 0x2c1a <vfprintf+0x660>
    2766:	9b c2       	rjmp	.+1334   	; 0x2c9e <vfprintf+0x6e4>
    2768:	97 fe       	sbrs	r9, 7
    276a:	10 c0       	rjmp	.+32     	; 0x278c <vfprintf+0x1d2>
    276c:	4c 0c       	add	r4, r12
    276e:	fc 85       	ldd	r31, Y+12	; 0x0c
    2770:	f4 ff       	sbrs	r31, 4
    2772:	04 c0       	rjmp	.+8      	; 0x277c <vfprintf+0x1c2>
    2774:	8a 81       	ldd	r24, Y+2	; 0x02
    2776:	81 33       	cpi	r24, 0x31	; 49
    2778:	09 f4       	brne	.+2      	; 0x277c <vfprintf+0x1c2>
    277a:	4a 94       	dec	r4
    277c:	14 14       	cp	r1, r4
    277e:	74 f5       	brge	.+92     	; 0x27dc <vfprintf+0x222>
    2780:	28 e0       	ldi	r18, 0x08	; 8
    2782:	24 15       	cp	r18, r4
    2784:	78 f5       	brcc	.+94     	; 0x27e4 <vfprintf+0x22a>
    2786:	88 e0       	ldi	r24, 0x08	; 8
    2788:	48 2e       	mov	r4, r24
    278a:	2c c0       	rjmp	.+88     	; 0x27e4 <vfprintf+0x22a>
    278c:	96 fc       	sbrc	r9, 6
    278e:	2a c0       	rjmp	.+84     	; 0x27e4 <vfprintf+0x22a>
    2790:	81 2f       	mov	r24, r17
    2792:	90 e0       	ldi	r25, 0x00	; 0
    2794:	8c 15       	cp	r24, r12
    2796:	9d 05       	cpc	r25, r13
    2798:	9c f0       	brlt	.+38     	; 0x27c0 <vfprintf+0x206>
    279a:	3c ef       	ldi	r19, 0xFC	; 252
    279c:	c3 16       	cp	r12, r19
    279e:	3f ef       	ldi	r19, 0xFF	; 255
    27a0:	d3 06       	cpc	r13, r19
    27a2:	74 f0       	brlt	.+28     	; 0x27c0 <vfprintf+0x206>
    27a4:	89 2d       	mov	r24, r9
    27a6:	80 68       	ori	r24, 0x80	; 128
    27a8:	98 2e       	mov	r9, r24
    27aa:	0a c0       	rjmp	.+20     	; 0x27c0 <vfprintf+0x206>
    27ac:	e2 e0       	ldi	r30, 0x02	; 2
    27ae:	f0 e0       	ldi	r31, 0x00	; 0
    27b0:	ec 0f       	add	r30, r28
    27b2:	fd 1f       	adc	r31, r29
    27b4:	e1 0f       	add	r30, r17
    27b6:	f1 1d       	adc	r31, r1
    27b8:	80 81       	ld	r24, Z
    27ba:	80 33       	cpi	r24, 0x30	; 48
    27bc:	19 f4       	brne	.+6      	; 0x27c4 <vfprintf+0x20a>
    27be:	11 50       	subi	r17, 0x01	; 1
    27c0:	11 11       	cpse	r17, r1
    27c2:	f4 cf       	rjmp	.-24     	; 0x27ac <vfprintf+0x1f2>
    27c4:	97 fe       	sbrs	r9, 7
    27c6:	0e c0       	rjmp	.+28     	; 0x27e4 <vfprintf+0x22a>
    27c8:	44 24       	eor	r4, r4
    27ca:	43 94       	inc	r4
    27cc:	41 0e       	add	r4, r17
    27ce:	81 2f       	mov	r24, r17
    27d0:	90 e0       	ldi	r25, 0x00	; 0
    27d2:	c8 16       	cp	r12, r24
    27d4:	d9 06       	cpc	r13, r25
    27d6:	2c f4       	brge	.+10     	; 0x27e2 <vfprintf+0x228>
    27d8:	1c 19       	sub	r17, r12
    27da:	04 c0       	rjmp	.+8      	; 0x27e4 <vfprintf+0x22a>
    27dc:	44 24       	eor	r4, r4
    27de:	43 94       	inc	r4
    27e0:	01 c0       	rjmp	.+2      	; 0x27e4 <vfprintf+0x22a>
    27e2:	10 e0       	ldi	r17, 0x00	; 0
    27e4:	97 fe       	sbrs	r9, 7
    27e6:	06 c0       	rjmp	.+12     	; 0x27f4 <vfprintf+0x23a>
    27e8:	1c 14       	cp	r1, r12
    27ea:	1d 04       	cpc	r1, r13
    27ec:	34 f4       	brge	.+12     	; 0x27fa <vfprintf+0x240>
    27ee:	c6 01       	movw	r24, r12
    27f0:	01 96       	adiw	r24, 0x01	; 1
    27f2:	05 c0       	rjmp	.+10     	; 0x27fe <vfprintf+0x244>
    27f4:	85 e0       	ldi	r24, 0x05	; 5
    27f6:	90 e0       	ldi	r25, 0x00	; 0
    27f8:	02 c0       	rjmp	.+4      	; 0x27fe <vfprintf+0x244>
    27fa:	81 e0       	ldi	r24, 0x01	; 1
    27fc:	90 e0       	ldi	r25, 0x00	; 0
    27fe:	01 11       	cpse	r16, r1
    2800:	01 96       	adiw	r24, 0x01	; 1
    2802:	11 23       	and	r17, r17
    2804:	31 f0       	breq	.+12     	; 0x2812 <vfprintf+0x258>
    2806:	21 2f       	mov	r18, r17
    2808:	30 e0       	ldi	r19, 0x00	; 0
    280a:	2f 5f       	subi	r18, 0xFF	; 255
    280c:	3f 4f       	sbci	r19, 0xFF	; 255
    280e:	82 0f       	add	r24, r18
    2810:	93 1f       	adc	r25, r19
    2812:	25 2d       	mov	r18, r5
    2814:	30 e0       	ldi	r19, 0x00	; 0
    2816:	82 17       	cp	r24, r18
    2818:	93 07       	cpc	r25, r19
    281a:	14 f4       	brge	.+4      	; 0x2820 <vfprintf+0x266>
    281c:	58 1a       	sub	r5, r24
    281e:	01 c0       	rjmp	.+2      	; 0x2822 <vfprintf+0x268>
    2820:	51 2c       	mov	r5, r1
    2822:	89 2d       	mov	r24, r9
    2824:	89 70       	andi	r24, 0x09	; 9
    2826:	49 f4       	brne	.+18     	; 0x283a <vfprintf+0x280>
    2828:	55 20       	and	r5, r5
    282a:	39 f0       	breq	.+14     	; 0x283a <vfprintf+0x280>
    282c:	b7 01       	movw	r22, r14
    282e:	80 e2       	ldi	r24, 0x20	; 32
    2830:	90 e0       	ldi	r25, 0x00	; 0
    2832:	0e 94 b3 17 	call	0x2f66	; 0x2f66 <fputc>
    2836:	5a 94       	dec	r5
    2838:	f7 cf       	rjmp	.-18     	; 0x2828 <vfprintf+0x26e>
    283a:	00 23       	and	r16, r16
    283c:	29 f0       	breq	.+10     	; 0x2848 <vfprintf+0x28e>
    283e:	b7 01       	movw	r22, r14
    2840:	80 2f       	mov	r24, r16
    2842:	90 e0       	ldi	r25, 0x00	; 0
    2844:	0e 94 b3 17 	call	0x2f66	; 0x2f66 <fputc>
    2848:	93 fc       	sbrc	r9, 3
    284a:	09 c0       	rjmp	.+18     	; 0x285e <vfprintf+0x2a4>
    284c:	55 20       	and	r5, r5
    284e:	39 f0       	breq	.+14     	; 0x285e <vfprintf+0x2a4>
    2850:	b7 01       	movw	r22, r14
    2852:	80 e3       	ldi	r24, 0x30	; 48
    2854:	90 e0       	ldi	r25, 0x00	; 0
    2856:	0e 94 b3 17 	call	0x2f66	; 0x2f66 <fputc>
    285a:	5a 94       	dec	r5
    285c:	f7 cf       	rjmp	.-18     	; 0x284c <vfprintf+0x292>
    285e:	97 fe       	sbrs	r9, 7
    2860:	4c c0       	rjmp	.+152    	; 0x28fa <vfprintf+0x340>
    2862:	46 01       	movw	r8, r12
    2864:	d7 fe       	sbrs	r13, 7
    2866:	02 c0       	rjmp	.+4      	; 0x286c <vfprintf+0x2b2>
    2868:	81 2c       	mov	r8, r1
    286a:	91 2c       	mov	r9, r1
    286c:	c6 01       	movw	r24, r12
    286e:	88 19       	sub	r24, r8
    2870:	99 09       	sbc	r25, r9
    2872:	f3 01       	movw	r30, r6
    2874:	e8 0f       	add	r30, r24
    2876:	f9 1f       	adc	r31, r25
    2878:	ed 87       	std	Y+13, r30	; 0x0d
    287a:	fe 87       	std	Y+14, r31	; 0x0e
    287c:	96 01       	movw	r18, r12
    287e:	24 19       	sub	r18, r4
    2880:	31 09       	sbc	r19, r1
    2882:	2f 87       	std	Y+15, r18	; 0x0f
    2884:	38 8b       	std	Y+16, r19	; 0x10
    2886:	01 2f       	mov	r16, r17
    2888:	10 e0       	ldi	r17, 0x00	; 0
    288a:	11 95       	neg	r17
    288c:	01 95       	neg	r16
    288e:	11 09       	sbc	r17, r1
    2890:	3f ef       	ldi	r19, 0xFF	; 255
    2892:	83 16       	cp	r8, r19
    2894:	93 06       	cpc	r9, r19
    2896:	29 f4       	brne	.+10     	; 0x28a2 <vfprintf+0x2e8>
    2898:	b7 01       	movw	r22, r14
    289a:	8e e2       	ldi	r24, 0x2E	; 46
    289c:	90 e0       	ldi	r25, 0x00	; 0
    289e:	0e 94 b3 17 	call	0x2f66	; 0x2f66 <fputc>
    28a2:	c8 14       	cp	r12, r8
    28a4:	d9 04       	cpc	r13, r9
    28a6:	4c f0       	brlt	.+18     	; 0x28ba <vfprintf+0x300>
    28a8:	8f 85       	ldd	r24, Y+15	; 0x0f
    28aa:	98 89       	ldd	r25, Y+16	; 0x10
    28ac:	88 15       	cp	r24, r8
    28ae:	99 05       	cpc	r25, r9
    28b0:	24 f4       	brge	.+8      	; 0x28ba <vfprintf+0x300>
    28b2:	ed 85       	ldd	r30, Y+13	; 0x0d
    28b4:	fe 85       	ldd	r31, Y+14	; 0x0e
    28b6:	81 81       	ldd	r24, Z+1	; 0x01
    28b8:	01 c0       	rjmp	.+2      	; 0x28bc <vfprintf+0x302>
    28ba:	80 e3       	ldi	r24, 0x30	; 48
    28bc:	f1 e0       	ldi	r31, 0x01	; 1
    28be:	8f 1a       	sub	r8, r31
    28c0:	91 08       	sbc	r9, r1
    28c2:	2d 85       	ldd	r18, Y+13	; 0x0d
    28c4:	3e 85       	ldd	r19, Y+14	; 0x0e
    28c6:	2f 5f       	subi	r18, 0xFF	; 255
    28c8:	3f 4f       	sbci	r19, 0xFF	; 255
    28ca:	2d 87       	std	Y+13, r18	; 0x0d
    28cc:	3e 87       	std	Y+14, r19	; 0x0e
    28ce:	80 16       	cp	r8, r16
    28d0:	91 06       	cpc	r9, r17
    28d2:	2c f0       	brlt	.+10     	; 0x28de <vfprintf+0x324>
    28d4:	b7 01       	movw	r22, r14
    28d6:	90 e0       	ldi	r25, 0x00	; 0
    28d8:	0e 94 b3 17 	call	0x2f66	; 0x2f66 <fputc>
    28dc:	d9 cf       	rjmp	.-78     	; 0x2890 <vfprintf+0x2d6>
    28de:	c8 14       	cp	r12, r8
    28e0:	d9 04       	cpc	r13, r9
    28e2:	41 f4       	brne	.+16     	; 0x28f4 <vfprintf+0x33a>
    28e4:	9a 81       	ldd	r25, Y+2	; 0x02
    28e6:	96 33       	cpi	r25, 0x36	; 54
    28e8:	20 f4       	brcc	.+8      	; 0x28f2 <vfprintf+0x338>
    28ea:	95 33       	cpi	r25, 0x35	; 53
    28ec:	19 f4       	brne	.+6      	; 0x28f4 <vfprintf+0x33a>
    28ee:	3c 85       	ldd	r19, Y+12	; 0x0c
    28f0:	34 ff       	sbrs	r19, 4
    28f2:	81 e3       	ldi	r24, 0x31	; 49
    28f4:	b7 01       	movw	r22, r14
    28f6:	90 e0       	ldi	r25, 0x00	; 0
    28f8:	4e c0       	rjmp	.+156    	; 0x2996 <vfprintf+0x3dc>
    28fa:	8a 81       	ldd	r24, Y+2	; 0x02
    28fc:	81 33       	cpi	r24, 0x31	; 49
    28fe:	19 f0       	breq	.+6      	; 0x2906 <vfprintf+0x34c>
    2900:	9c 85       	ldd	r25, Y+12	; 0x0c
    2902:	9f 7e       	andi	r25, 0xEF	; 239
    2904:	9c 87       	std	Y+12, r25	; 0x0c
    2906:	b7 01       	movw	r22, r14
    2908:	90 e0       	ldi	r25, 0x00	; 0
    290a:	0e 94 b3 17 	call	0x2f66	; 0x2f66 <fputc>
    290e:	11 11       	cpse	r17, r1
    2910:	05 c0       	rjmp	.+10     	; 0x291c <vfprintf+0x362>
    2912:	94 fc       	sbrc	r9, 4
    2914:	18 c0       	rjmp	.+48     	; 0x2946 <vfprintf+0x38c>
    2916:	85 e6       	ldi	r24, 0x65	; 101
    2918:	90 e0       	ldi	r25, 0x00	; 0
    291a:	17 c0       	rjmp	.+46     	; 0x294a <vfprintf+0x390>
    291c:	b7 01       	movw	r22, r14
    291e:	8e e2       	ldi	r24, 0x2E	; 46
    2920:	90 e0       	ldi	r25, 0x00	; 0
    2922:	0e 94 b3 17 	call	0x2f66	; 0x2f66 <fputc>
    2926:	1e 5f       	subi	r17, 0xFE	; 254
    2928:	82 e0       	ldi	r24, 0x02	; 2
    292a:	01 e0       	ldi	r16, 0x01	; 1
    292c:	08 0f       	add	r16, r24
    292e:	f3 01       	movw	r30, r6
    2930:	e8 0f       	add	r30, r24
    2932:	f1 1d       	adc	r31, r1
    2934:	80 81       	ld	r24, Z
    2936:	b7 01       	movw	r22, r14
    2938:	90 e0       	ldi	r25, 0x00	; 0
    293a:	0e 94 b3 17 	call	0x2f66	; 0x2f66 <fputc>
    293e:	80 2f       	mov	r24, r16
    2940:	01 13       	cpse	r16, r17
    2942:	f3 cf       	rjmp	.-26     	; 0x292a <vfprintf+0x370>
    2944:	e6 cf       	rjmp	.-52     	; 0x2912 <vfprintf+0x358>
    2946:	85 e4       	ldi	r24, 0x45	; 69
    2948:	90 e0       	ldi	r25, 0x00	; 0
    294a:	b7 01       	movw	r22, r14
    294c:	0e 94 b3 17 	call	0x2f66	; 0x2f66 <fputc>
    2950:	d7 fc       	sbrc	r13, 7
    2952:	06 c0       	rjmp	.+12     	; 0x2960 <vfprintf+0x3a6>
    2954:	c1 14       	cp	r12, r1
    2956:	d1 04       	cpc	r13, r1
    2958:	41 f4       	brne	.+16     	; 0x296a <vfprintf+0x3b0>
    295a:	ec 85       	ldd	r30, Y+12	; 0x0c
    295c:	e4 ff       	sbrs	r30, 4
    295e:	05 c0       	rjmp	.+10     	; 0x296a <vfprintf+0x3b0>
    2960:	d1 94       	neg	r13
    2962:	c1 94       	neg	r12
    2964:	d1 08       	sbc	r13, r1
    2966:	8d e2       	ldi	r24, 0x2D	; 45
    2968:	01 c0       	rjmp	.+2      	; 0x296c <vfprintf+0x3b2>
    296a:	8b e2       	ldi	r24, 0x2B	; 43
    296c:	b7 01       	movw	r22, r14
    296e:	90 e0       	ldi	r25, 0x00	; 0
    2970:	0e 94 b3 17 	call	0x2f66	; 0x2f66 <fputc>
    2974:	80 e3       	ldi	r24, 0x30	; 48
    2976:	2a e0       	ldi	r18, 0x0A	; 10
    2978:	c2 16       	cp	r12, r18
    297a:	d1 04       	cpc	r13, r1
    297c:	2c f0       	brlt	.+10     	; 0x2988 <vfprintf+0x3ce>
    297e:	8f 5f       	subi	r24, 0xFF	; 255
    2980:	fa e0       	ldi	r31, 0x0A	; 10
    2982:	cf 1a       	sub	r12, r31
    2984:	d1 08       	sbc	r13, r1
    2986:	f7 cf       	rjmp	.-18     	; 0x2976 <vfprintf+0x3bc>
    2988:	b7 01       	movw	r22, r14
    298a:	90 e0       	ldi	r25, 0x00	; 0
    298c:	0e 94 b3 17 	call	0x2f66	; 0x2f66 <fputc>
    2990:	b7 01       	movw	r22, r14
    2992:	c6 01       	movw	r24, r12
    2994:	c0 96       	adiw	r24, 0x30	; 48
    2996:	0e 94 b3 17 	call	0x2f66	; 0x2f66 <fputc>
    299a:	54 c1       	rjmp	.+680    	; 0x2c44 <vfprintf+0x68a>
    299c:	83 36       	cpi	r24, 0x63	; 99
    299e:	31 f0       	breq	.+12     	; 0x29ac <vfprintf+0x3f2>
    29a0:	83 37       	cpi	r24, 0x73	; 115
    29a2:	79 f0       	breq	.+30     	; 0x29c2 <vfprintf+0x408>
    29a4:	83 35       	cpi	r24, 0x53	; 83
    29a6:	09 f0       	breq	.+2      	; 0x29aa <vfprintf+0x3f0>
    29a8:	56 c0       	rjmp	.+172    	; 0x2a56 <vfprintf+0x49c>
    29aa:	20 c0       	rjmp	.+64     	; 0x29ec <vfprintf+0x432>
    29ac:	56 01       	movw	r10, r12
    29ae:	32 e0       	ldi	r19, 0x02	; 2
    29b0:	a3 0e       	add	r10, r19
    29b2:	b1 1c       	adc	r11, r1
    29b4:	f6 01       	movw	r30, r12
    29b6:	80 81       	ld	r24, Z
    29b8:	89 83       	std	Y+1, r24	; 0x01
    29ba:	01 e0       	ldi	r16, 0x01	; 1
    29bc:	10 e0       	ldi	r17, 0x00	; 0
    29be:	63 01       	movw	r12, r6
    29c0:	12 c0       	rjmp	.+36     	; 0x29e6 <vfprintf+0x42c>
    29c2:	56 01       	movw	r10, r12
    29c4:	f2 e0       	ldi	r31, 0x02	; 2
    29c6:	af 0e       	add	r10, r31
    29c8:	b1 1c       	adc	r11, r1
    29ca:	f6 01       	movw	r30, r12
    29cc:	c0 80       	ld	r12, Z
    29ce:	d1 80       	ldd	r13, Z+1	; 0x01
    29d0:	96 fe       	sbrs	r9, 6
    29d2:	03 c0       	rjmp	.+6      	; 0x29da <vfprintf+0x420>
    29d4:	61 2f       	mov	r22, r17
    29d6:	70 e0       	ldi	r23, 0x00	; 0
    29d8:	02 c0       	rjmp	.+4      	; 0x29de <vfprintf+0x424>
    29da:	6f ef       	ldi	r22, 0xFF	; 255
    29dc:	7f ef       	ldi	r23, 0xFF	; 255
    29de:	c6 01       	movw	r24, r12
    29e0:	0e 94 a8 17 	call	0x2f50	; 0x2f50 <strnlen>
    29e4:	8c 01       	movw	r16, r24
    29e6:	f9 2d       	mov	r31, r9
    29e8:	ff 77       	andi	r31, 0x7F	; 127
    29ea:	14 c0       	rjmp	.+40     	; 0x2a14 <vfprintf+0x45a>
    29ec:	56 01       	movw	r10, r12
    29ee:	22 e0       	ldi	r18, 0x02	; 2
    29f0:	a2 0e       	add	r10, r18
    29f2:	b1 1c       	adc	r11, r1
    29f4:	f6 01       	movw	r30, r12
    29f6:	c0 80       	ld	r12, Z
    29f8:	d1 80       	ldd	r13, Z+1	; 0x01
    29fa:	96 fe       	sbrs	r9, 6
    29fc:	03 c0       	rjmp	.+6      	; 0x2a04 <vfprintf+0x44a>
    29fe:	61 2f       	mov	r22, r17
    2a00:	70 e0       	ldi	r23, 0x00	; 0
    2a02:	02 c0       	rjmp	.+4      	; 0x2a08 <vfprintf+0x44e>
    2a04:	6f ef       	ldi	r22, 0xFF	; 255
    2a06:	7f ef       	ldi	r23, 0xFF	; 255
    2a08:	c6 01       	movw	r24, r12
    2a0a:	0e 94 8b 17 	call	0x2f16	; 0x2f16 <strnlen_P>
    2a0e:	8c 01       	movw	r16, r24
    2a10:	f9 2d       	mov	r31, r9
    2a12:	f0 68       	ori	r31, 0x80	; 128
    2a14:	9f 2e       	mov	r9, r31
    2a16:	f3 fd       	sbrc	r31, 3
    2a18:	1a c0       	rjmp	.+52     	; 0x2a4e <vfprintf+0x494>
    2a1a:	85 2d       	mov	r24, r5
    2a1c:	90 e0       	ldi	r25, 0x00	; 0
    2a1e:	08 17       	cp	r16, r24
    2a20:	19 07       	cpc	r17, r25
    2a22:	a8 f4       	brcc	.+42     	; 0x2a4e <vfprintf+0x494>
    2a24:	b7 01       	movw	r22, r14
    2a26:	80 e2       	ldi	r24, 0x20	; 32
    2a28:	90 e0       	ldi	r25, 0x00	; 0
    2a2a:	0e 94 b3 17 	call	0x2f66	; 0x2f66 <fputc>
    2a2e:	5a 94       	dec	r5
    2a30:	f4 cf       	rjmp	.-24     	; 0x2a1a <vfprintf+0x460>
    2a32:	f6 01       	movw	r30, r12
    2a34:	97 fc       	sbrc	r9, 7
    2a36:	85 91       	lpm	r24, Z+
    2a38:	97 fe       	sbrs	r9, 7
    2a3a:	81 91       	ld	r24, Z+
    2a3c:	6f 01       	movw	r12, r30
    2a3e:	b7 01       	movw	r22, r14
    2a40:	90 e0       	ldi	r25, 0x00	; 0
    2a42:	0e 94 b3 17 	call	0x2f66	; 0x2f66 <fputc>
    2a46:	51 10       	cpse	r5, r1
    2a48:	5a 94       	dec	r5
    2a4a:	01 50       	subi	r16, 0x01	; 1
    2a4c:	11 09       	sbc	r17, r1
    2a4e:	01 15       	cp	r16, r1
    2a50:	11 05       	cpc	r17, r1
    2a52:	79 f7       	brne	.-34     	; 0x2a32 <vfprintf+0x478>
    2a54:	f7 c0       	rjmp	.+494    	; 0x2c44 <vfprintf+0x68a>
    2a56:	84 36       	cpi	r24, 0x64	; 100
    2a58:	11 f0       	breq	.+4      	; 0x2a5e <vfprintf+0x4a4>
    2a5a:	89 36       	cpi	r24, 0x69	; 105
    2a5c:	61 f5       	brne	.+88     	; 0x2ab6 <vfprintf+0x4fc>
    2a5e:	56 01       	movw	r10, r12
    2a60:	97 fe       	sbrs	r9, 7
    2a62:	09 c0       	rjmp	.+18     	; 0x2a76 <vfprintf+0x4bc>
    2a64:	24 e0       	ldi	r18, 0x04	; 4
    2a66:	a2 0e       	add	r10, r18
    2a68:	b1 1c       	adc	r11, r1
    2a6a:	f6 01       	movw	r30, r12
    2a6c:	60 81       	ld	r22, Z
    2a6e:	71 81       	ldd	r23, Z+1	; 0x01
    2a70:	82 81       	ldd	r24, Z+2	; 0x02
    2a72:	93 81       	ldd	r25, Z+3	; 0x03
    2a74:	0a c0       	rjmp	.+20     	; 0x2a8a <vfprintf+0x4d0>
    2a76:	f2 e0       	ldi	r31, 0x02	; 2
    2a78:	af 0e       	add	r10, r31
    2a7a:	b1 1c       	adc	r11, r1
    2a7c:	f6 01       	movw	r30, r12
    2a7e:	60 81       	ld	r22, Z
    2a80:	71 81       	ldd	r23, Z+1	; 0x01
    2a82:	07 2e       	mov	r0, r23
    2a84:	00 0c       	add	r0, r0
    2a86:	88 0b       	sbc	r24, r24
    2a88:	99 0b       	sbc	r25, r25
    2a8a:	f9 2d       	mov	r31, r9
    2a8c:	ff 76       	andi	r31, 0x6F	; 111
    2a8e:	9f 2e       	mov	r9, r31
    2a90:	97 ff       	sbrs	r25, 7
    2a92:	09 c0       	rjmp	.+18     	; 0x2aa6 <vfprintf+0x4ec>
    2a94:	90 95       	com	r25
    2a96:	80 95       	com	r24
    2a98:	70 95       	com	r23
    2a9a:	61 95       	neg	r22
    2a9c:	7f 4f       	sbci	r23, 0xFF	; 255
    2a9e:	8f 4f       	sbci	r24, 0xFF	; 255
    2aa0:	9f 4f       	sbci	r25, 0xFF	; 255
    2aa2:	f0 68       	ori	r31, 0x80	; 128
    2aa4:	9f 2e       	mov	r9, r31
    2aa6:	2a e0       	ldi	r18, 0x0A	; 10
    2aa8:	30 e0       	ldi	r19, 0x00	; 0
    2aaa:	a3 01       	movw	r20, r6
    2aac:	0e 94 11 18 	call	0x3022	; 0x3022 <__ultoa_invert>
    2ab0:	c8 2e       	mov	r12, r24
    2ab2:	c6 18       	sub	r12, r6
    2ab4:	3f c0       	rjmp	.+126    	; 0x2b34 <vfprintf+0x57a>
    2ab6:	09 2d       	mov	r16, r9
    2ab8:	85 37       	cpi	r24, 0x75	; 117
    2aba:	21 f4       	brne	.+8      	; 0x2ac4 <vfprintf+0x50a>
    2abc:	0f 7e       	andi	r16, 0xEF	; 239
    2abe:	2a e0       	ldi	r18, 0x0A	; 10
    2ac0:	30 e0       	ldi	r19, 0x00	; 0
    2ac2:	1d c0       	rjmp	.+58     	; 0x2afe <vfprintf+0x544>
    2ac4:	09 7f       	andi	r16, 0xF9	; 249
    2ac6:	8f 36       	cpi	r24, 0x6F	; 111
    2ac8:	91 f0       	breq	.+36     	; 0x2aee <vfprintf+0x534>
    2aca:	18 f4       	brcc	.+6      	; 0x2ad2 <vfprintf+0x518>
    2acc:	88 35       	cpi	r24, 0x58	; 88
    2ace:	59 f0       	breq	.+22     	; 0x2ae6 <vfprintf+0x52c>
    2ad0:	c3 c0       	rjmp	.+390    	; 0x2c58 <vfprintf+0x69e>
    2ad2:	80 37       	cpi	r24, 0x70	; 112
    2ad4:	19 f0       	breq	.+6      	; 0x2adc <vfprintf+0x522>
    2ad6:	88 37       	cpi	r24, 0x78	; 120
    2ad8:	11 f0       	breq	.+4      	; 0x2ade <vfprintf+0x524>
    2ada:	be c0       	rjmp	.+380    	; 0x2c58 <vfprintf+0x69e>
    2adc:	00 61       	ori	r16, 0x10	; 16
    2ade:	04 ff       	sbrs	r16, 4
    2ae0:	09 c0       	rjmp	.+18     	; 0x2af4 <vfprintf+0x53a>
    2ae2:	04 60       	ori	r16, 0x04	; 4
    2ae4:	07 c0       	rjmp	.+14     	; 0x2af4 <vfprintf+0x53a>
    2ae6:	94 fe       	sbrs	r9, 4
    2ae8:	08 c0       	rjmp	.+16     	; 0x2afa <vfprintf+0x540>
    2aea:	06 60       	ori	r16, 0x06	; 6
    2aec:	06 c0       	rjmp	.+12     	; 0x2afa <vfprintf+0x540>
    2aee:	28 e0       	ldi	r18, 0x08	; 8
    2af0:	30 e0       	ldi	r19, 0x00	; 0
    2af2:	05 c0       	rjmp	.+10     	; 0x2afe <vfprintf+0x544>
    2af4:	20 e1       	ldi	r18, 0x10	; 16
    2af6:	30 e0       	ldi	r19, 0x00	; 0
    2af8:	02 c0       	rjmp	.+4      	; 0x2afe <vfprintf+0x544>
    2afa:	20 e1       	ldi	r18, 0x10	; 16
    2afc:	32 e0       	ldi	r19, 0x02	; 2
    2afe:	56 01       	movw	r10, r12
    2b00:	07 ff       	sbrs	r16, 7
    2b02:	09 c0       	rjmp	.+18     	; 0x2b16 <vfprintf+0x55c>
    2b04:	84 e0       	ldi	r24, 0x04	; 4
    2b06:	a8 0e       	add	r10, r24
    2b08:	b1 1c       	adc	r11, r1
    2b0a:	f6 01       	movw	r30, r12
    2b0c:	60 81       	ld	r22, Z
    2b0e:	71 81       	ldd	r23, Z+1	; 0x01
    2b10:	82 81       	ldd	r24, Z+2	; 0x02
    2b12:	93 81       	ldd	r25, Z+3	; 0x03
    2b14:	08 c0       	rjmp	.+16     	; 0x2b26 <vfprintf+0x56c>
    2b16:	f2 e0       	ldi	r31, 0x02	; 2
    2b18:	af 0e       	add	r10, r31
    2b1a:	b1 1c       	adc	r11, r1
    2b1c:	f6 01       	movw	r30, r12
    2b1e:	60 81       	ld	r22, Z
    2b20:	71 81       	ldd	r23, Z+1	; 0x01
    2b22:	80 e0       	ldi	r24, 0x00	; 0
    2b24:	90 e0       	ldi	r25, 0x00	; 0
    2b26:	a3 01       	movw	r20, r6
    2b28:	0e 94 11 18 	call	0x3022	; 0x3022 <__ultoa_invert>
    2b2c:	c8 2e       	mov	r12, r24
    2b2e:	c6 18       	sub	r12, r6
    2b30:	0f 77       	andi	r16, 0x7F	; 127
    2b32:	90 2e       	mov	r9, r16
    2b34:	96 fe       	sbrs	r9, 6
    2b36:	0b c0       	rjmp	.+22     	; 0x2b4e <vfprintf+0x594>
    2b38:	09 2d       	mov	r16, r9
    2b3a:	0e 7f       	andi	r16, 0xFE	; 254
    2b3c:	c1 16       	cp	r12, r17
    2b3e:	50 f4       	brcc	.+20     	; 0x2b54 <vfprintf+0x59a>
    2b40:	94 fe       	sbrs	r9, 4
    2b42:	0a c0       	rjmp	.+20     	; 0x2b58 <vfprintf+0x59e>
    2b44:	92 fc       	sbrc	r9, 2
    2b46:	08 c0       	rjmp	.+16     	; 0x2b58 <vfprintf+0x59e>
    2b48:	09 2d       	mov	r16, r9
    2b4a:	0e 7e       	andi	r16, 0xEE	; 238
    2b4c:	05 c0       	rjmp	.+10     	; 0x2b58 <vfprintf+0x59e>
    2b4e:	dc 2c       	mov	r13, r12
    2b50:	09 2d       	mov	r16, r9
    2b52:	03 c0       	rjmp	.+6      	; 0x2b5a <vfprintf+0x5a0>
    2b54:	dc 2c       	mov	r13, r12
    2b56:	01 c0       	rjmp	.+2      	; 0x2b5a <vfprintf+0x5a0>
    2b58:	d1 2e       	mov	r13, r17
    2b5a:	04 ff       	sbrs	r16, 4
    2b5c:	0d c0       	rjmp	.+26     	; 0x2b78 <vfprintf+0x5be>
    2b5e:	fe 01       	movw	r30, r28
    2b60:	ec 0d       	add	r30, r12
    2b62:	f1 1d       	adc	r31, r1
    2b64:	80 81       	ld	r24, Z
    2b66:	80 33       	cpi	r24, 0x30	; 48
    2b68:	11 f4       	brne	.+4      	; 0x2b6e <vfprintf+0x5b4>
    2b6a:	09 7e       	andi	r16, 0xE9	; 233
    2b6c:	09 c0       	rjmp	.+18     	; 0x2b80 <vfprintf+0x5c6>
    2b6e:	02 ff       	sbrs	r16, 2
    2b70:	06 c0       	rjmp	.+12     	; 0x2b7e <vfprintf+0x5c4>
    2b72:	d3 94       	inc	r13
    2b74:	d3 94       	inc	r13
    2b76:	04 c0       	rjmp	.+8      	; 0x2b80 <vfprintf+0x5c6>
    2b78:	80 2f       	mov	r24, r16
    2b7a:	86 78       	andi	r24, 0x86	; 134
    2b7c:	09 f0       	breq	.+2      	; 0x2b80 <vfprintf+0x5c6>
    2b7e:	d3 94       	inc	r13
    2b80:	03 fd       	sbrc	r16, 3
    2b82:	11 c0       	rjmp	.+34     	; 0x2ba6 <vfprintf+0x5ec>
    2b84:	00 ff       	sbrs	r16, 0
    2b86:	06 c0       	rjmp	.+12     	; 0x2b94 <vfprintf+0x5da>
    2b88:	1c 2d       	mov	r17, r12
    2b8a:	d5 14       	cp	r13, r5
    2b8c:	80 f4       	brcc	.+32     	; 0x2bae <vfprintf+0x5f4>
    2b8e:	15 0d       	add	r17, r5
    2b90:	1d 19       	sub	r17, r13
    2b92:	0d c0       	rjmp	.+26     	; 0x2bae <vfprintf+0x5f4>
    2b94:	d5 14       	cp	r13, r5
    2b96:	58 f4       	brcc	.+22     	; 0x2bae <vfprintf+0x5f4>
    2b98:	b7 01       	movw	r22, r14
    2b9a:	80 e2       	ldi	r24, 0x20	; 32
    2b9c:	90 e0       	ldi	r25, 0x00	; 0
    2b9e:	0e 94 b3 17 	call	0x2f66	; 0x2f66 <fputc>
    2ba2:	d3 94       	inc	r13
    2ba4:	f7 cf       	rjmp	.-18     	; 0x2b94 <vfprintf+0x5da>
    2ba6:	d5 14       	cp	r13, r5
    2ba8:	10 f4       	brcc	.+4      	; 0x2bae <vfprintf+0x5f4>
    2baa:	5d 18       	sub	r5, r13
    2bac:	01 c0       	rjmp	.+2      	; 0x2bb0 <vfprintf+0x5f6>
    2bae:	51 2c       	mov	r5, r1
    2bb0:	04 ff       	sbrs	r16, 4
    2bb2:	10 c0       	rjmp	.+32     	; 0x2bd4 <vfprintf+0x61a>
    2bb4:	b7 01       	movw	r22, r14
    2bb6:	80 e3       	ldi	r24, 0x30	; 48
    2bb8:	90 e0       	ldi	r25, 0x00	; 0
    2bba:	0e 94 b3 17 	call	0x2f66	; 0x2f66 <fputc>
    2bbe:	02 ff       	sbrs	r16, 2
    2bc0:	17 c0       	rjmp	.+46     	; 0x2bf0 <vfprintf+0x636>
    2bc2:	01 fd       	sbrc	r16, 1
    2bc4:	03 c0       	rjmp	.+6      	; 0x2bcc <vfprintf+0x612>
    2bc6:	88 e7       	ldi	r24, 0x78	; 120
    2bc8:	90 e0       	ldi	r25, 0x00	; 0
    2bca:	02 c0       	rjmp	.+4      	; 0x2bd0 <vfprintf+0x616>
    2bcc:	88 e5       	ldi	r24, 0x58	; 88
    2bce:	90 e0       	ldi	r25, 0x00	; 0
    2bd0:	b7 01       	movw	r22, r14
    2bd2:	0c c0       	rjmp	.+24     	; 0x2bec <vfprintf+0x632>
    2bd4:	80 2f       	mov	r24, r16
    2bd6:	86 78       	andi	r24, 0x86	; 134
    2bd8:	59 f0       	breq	.+22     	; 0x2bf0 <vfprintf+0x636>
    2bda:	01 ff       	sbrs	r16, 1
    2bdc:	02 c0       	rjmp	.+4      	; 0x2be2 <vfprintf+0x628>
    2bde:	8b e2       	ldi	r24, 0x2B	; 43
    2be0:	01 c0       	rjmp	.+2      	; 0x2be4 <vfprintf+0x62a>
    2be2:	80 e2       	ldi	r24, 0x20	; 32
    2be4:	07 fd       	sbrc	r16, 7
    2be6:	8d e2       	ldi	r24, 0x2D	; 45
    2be8:	b7 01       	movw	r22, r14
    2bea:	90 e0       	ldi	r25, 0x00	; 0
    2bec:	0e 94 b3 17 	call	0x2f66	; 0x2f66 <fputc>
    2bf0:	c1 16       	cp	r12, r17
    2bf2:	38 f4       	brcc	.+14     	; 0x2c02 <vfprintf+0x648>
    2bf4:	b7 01       	movw	r22, r14
    2bf6:	80 e3       	ldi	r24, 0x30	; 48
    2bf8:	90 e0       	ldi	r25, 0x00	; 0
    2bfa:	0e 94 b3 17 	call	0x2f66	; 0x2f66 <fputc>
    2bfe:	11 50       	subi	r17, 0x01	; 1
    2c00:	f7 cf       	rjmp	.-18     	; 0x2bf0 <vfprintf+0x636>
    2c02:	ca 94       	dec	r12
    2c04:	f3 01       	movw	r30, r6
    2c06:	ec 0d       	add	r30, r12
    2c08:	f1 1d       	adc	r31, r1
    2c0a:	80 81       	ld	r24, Z
    2c0c:	b7 01       	movw	r22, r14
    2c0e:	90 e0       	ldi	r25, 0x00	; 0
    2c10:	0e 94 b3 17 	call	0x2f66	; 0x2f66 <fputc>
    2c14:	c1 10       	cpse	r12, r1
    2c16:	f5 cf       	rjmp	.-22     	; 0x2c02 <vfprintf+0x648>
    2c18:	15 c0       	rjmp	.+42     	; 0x2c44 <vfprintf+0x68a>
    2c1a:	f4 e0       	ldi	r31, 0x04	; 4
    2c1c:	f5 15       	cp	r31, r5
    2c1e:	60 f5       	brcc	.+88     	; 0x2c78 <vfprintf+0x6be>
    2c20:	84 e0       	ldi	r24, 0x04	; 4
    2c22:	58 1a       	sub	r5, r24
    2c24:	93 fe       	sbrs	r9, 3
    2c26:	1f c0       	rjmp	.+62     	; 0x2c66 <vfprintf+0x6ac>
    2c28:	01 11       	cpse	r16, r1
    2c2a:	27 c0       	rjmp	.+78     	; 0x2c7a <vfprintf+0x6c0>
    2c2c:	2c 85       	ldd	r18, Y+12	; 0x0c
    2c2e:	23 ff       	sbrs	r18, 3
    2c30:	2a c0       	rjmp	.+84     	; 0x2c86 <vfprintf+0x6cc>
    2c32:	00 ea       	ldi	r16, 0xA0	; 160
    2c34:	10 e0       	ldi	r17, 0x00	; 0
    2c36:	39 2d       	mov	r19, r9
    2c38:	30 71       	andi	r19, 0x10	; 16
    2c3a:	93 2e       	mov	r9, r19
    2c3c:	f8 01       	movw	r30, r16
    2c3e:	84 91       	lpm	r24, Z
    2c40:	81 11       	cpse	r24, r1
    2c42:	24 c0       	rjmp	.+72     	; 0x2c8c <vfprintf+0x6d2>
    2c44:	55 20       	and	r5, r5
    2c46:	09 f4       	brne	.+2      	; 0x2c4a <vfprintf+0x690>
    2c48:	e4 cc       	rjmp	.-1592   	; 0x2612 <vfprintf+0x58>
    2c4a:	b7 01       	movw	r22, r14
    2c4c:	80 e2       	ldi	r24, 0x20	; 32
    2c4e:	90 e0       	ldi	r25, 0x00	; 0
    2c50:	0e 94 b3 17 	call	0x2f66	; 0x2f66 <fputc>
    2c54:	5a 94       	dec	r5
    2c56:	f6 cf       	rjmp	.-20     	; 0x2c44 <vfprintf+0x68a>
    2c58:	f7 01       	movw	r30, r14
    2c5a:	86 81       	ldd	r24, Z+6	; 0x06
    2c5c:	97 81       	ldd	r25, Z+7	; 0x07
    2c5e:	26 c0       	rjmp	.+76     	; 0x2cac <vfprintf+0x6f2>
    2c60:	8f ef       	ldi	r24, 0xFF	; 255
    2c62:	9f ef       	ldi	r25, 0xFF	; 255
    2c64:	23 c0       	rjmp	.+70     	; 0x2cac <vfprintf+0x6f2>
    2c66:	b7 01       	movw	r22, r14
    2c68:	80 e2       	ldi	r24, 0x20	; 32
    2c6a:	90 e0       	ldi	r25, 0x00	; 0
    2c6c:	0e 94 b3 17 	call	0x2f66	; 0x2f66 <fputc>
    2c70:	5a 94       	dec	r5
    2c72:	51 10       	cpse	r5, r1
    2c74:	f8 cf       	rjmp	.-16     	; 0x2c66 <vfprintf+0x6ac>
    2c76:	d8 cf       	rjmp	.-80     	; 0x2c28 <vfprintf+0x66e>
    2c78:	51 2c       	mov	r5, r1
    2c7a:	b7 01       	movw	r22, r14
    2c7c:	80 2f       	mov	r24, r16
    2c7e:	90 e0       	ldi	r25, 0x00	; 0
    2c80:	0e 94 b3 17 	call	0x2f66	; 0x2f66 <fputc>
    2c84:	d3 cf       	rjmp	.-90     	; 0x2c2c <vfprintf+0x672>
    2c86:	04 ea       	ldi	r16, 0xA4	; 164
    2c88:	10 e0       	ldi	r17, 0x00	; 0
    2c8a:	d5 cf       	rjmp	.-86     	; 0x2c36 <vfprintf+0x67c>
    2c8c:	91 10       	cpse	r9, r1
    2c8e:	80 52       	subi	r24, 0x20	; 32
    2c90:	b7 01       	movw	r22, r14
    2c92:	90 e0       	ldi	r25, 0x00	; 0
    2c94:	0e 94 b3 17 	call	0x2f66	; 0x2f66 <fputc>
    2c98:	0f 5f       	subi	r16, 0xFF	; 255
    2c9a:	1f 4f       	sbci	r17, 0xFF	; 255
    2c9c:	cf cf       	rjmp	.-98     	; 0x2c3c <vfprintf+0x682>
    2c9e:	23 e0       	ldi	r18, 0x03	; 3
    2ca0:	25 15       	cp	r18, r5
    2ca2:	10 f4       	brcc	.+4      	; 0x2ca8 <vfprintf+0x6ee>
    2ca4:	83 e0       	ldi	r24, 0x03	; 3
    2ca6:	bd cf       	rjmp	.-134    	; 0x2c22 <vfprintf+0x668>
    2ca8:	51 2c       	mov	r5, r1
    2caa:	c0 cf       	rjmp	.-128    	; 0x2c2c <vfprintf+0x672>
    2cac:	60 96       	adiw	r28, 0x10	; 16
    2cae:	e2 e1       	ldi	r30, 0x12	; 18
    2cb0:	0c 94 87 16 	jmp	0x2d0e	; 0x2d0e <__epilogue_restores__>

00002cb4 <__divmodhi4>:
    2cb4:	97 fb       	bst	r25, 7
    2cb6:	07 2e       	mov	r0, r23
    2cb8:	16 f4       	brtc	.+4      	; 0x2cbe <__divmodhi4+0xa>
    2cba:	00 94       	com	r0
    2cbc:	07 d0       	rcall	.+14     	; 0x2ccc <__divmodhi4_neg1>
    2cbe:	77 fd       	sbrc	r23, 7
    2cc0:	09 d0       	rcall	.+18     	; 0x2cd4 <__divmodhi4_neg2>
    2cc2:	0e 94 9f 16 	call	0x2d3e	; 0x2d3e <__udivmodhi4>
    2cc6:	07 fc       	sbrc	r0, 7
    2cc8:	05 d0       	rcall	.+10     	; 0x2cd4 <__divmodhi4_neg2>
    2cca:	3e f4       	brtc	.+14     	; 0x2cda <__divmodhi4_exit>

00002ccc <__divmodhi4_neg1>:
    2ccc:	90 95       	com	r25
    2cce:	81 95       	neg	r24
    2cd0:	9f 4f       	sbci	r25, 0xFF	; 255
    2cd2:	08 95       	ret

00002cd4 <__divmodhi4_neg2>:
    2cd4:	70 95       	com	r23
    2cd6:	61 95       	neg	r22
    2cd8:	7f 4f       	sbci	r23, 0xFF	; 255

00002cda <__divmodhi4_exit>:
    2cda:	08 95       	ret

00002cdc <__prologue_saves__>:
    2cdc:	2f 92       	push	r2
    2cde:	3f 92       	push	r3
    2ce0:	4f 92       	push	r4
    2ce2:	5f 92       	push	r5
    2ce4:	6f 92       	push	r6
    2ce6:	7f 92       	push	r7
    2ce8:	8f 92       	push	r8
    2cea:	9f 92       	push	r9
    2cec:	af 92       	push	r10
    2cee:	bf 92       	push	r11
    2cf0:	cf 92       	push	r12
    2cf2:	df 92       	push	r13
    2cf4:	ef 92       	push	r14
    2cf6:	ff 92       	push	r15
    2cf8:	0f 93       	push	r16
    2cfa:	1f 93       	push	r17
    2cfc:	cf 93       	push	r28
    2cfe:	df 93       	push	r29
    2d00:	cd b7       	in	r28, 0x3d	; 61
    2d02:	de b7       	in	r29, 0x3e	; 62
    2d04:	ca 1b       	sub	r28, r26
    2d06:	db 0b       	sbc	r29, r27
    2d08:	cd bf       	out	0x3d, r28	; 61
    2d0a:	de bf       	out	0x3e, r29	; 62
    2d0c:	09 94       	ijmp

00002d0e <__epilogue_restores__>:
    2d0e:	2a 88       	ldd	r2, Y+18	; 0x12
    2d10:	39 88       	ldd	r3, Y+17	; 0x11
    2d12:	48 88       	ldd	r4, Y+16	; 0x10
    2d14:	5f 84       	ldd	r5, Y+15	; 0x0f
    2d16:	6e 84       	ldd	r6, Y+14	; 0x0e
    2d18:	7d 84       	ldd	r7, Y+13	; 0x0d
    2d1a:	8c 84       	ldd	r8, Y+12	; 0x0c
    2d1c:	9b 84       	ldd	r9, Y+11	; 0x0b
    2d1e:	aa 84       	ldd	r10, Y+10	; 0x0a
    2d20:	b9 84       	ldd	r11, Y+9	; 0x09
    2d22:	c8 84       	ldd	r12, Y+8	; 0x08
    2d24:	df 80       	ldd	r13, Y+7	; 0x07
    2d26:	ee 80       	ldd	r14, Y+6	; 0x06
    2d28:	fd 80       	ldd	r15, Y+5	; 0x05
    2d2a:	0c 81       	ldd	r16, Y+4	; 0x04
    2d2c:	1b 81       	ldd	r17, Y+3	; 0x03
    2d2e:	aa 81       	ldd	r26, Y+2	; 0x02
    2d30:	b9 81       	ldd	r27, Y+1	; 0x01
    2d32:	ce 0f       	add	r28, r30
    2d34:	d1 1d       	adc	r29, r1
    2d36:	cd bf       	out	0x3d, r28	; 61
    2d38:	de bf       	out	0x3e, r29	; 62
    2d3a:	ed 01       	movw	r28, r26
    2d3c:	08 95       	ret

00002d3e <__udivmodhi4>:
    2d3e:	aa 1b       	sub	r26, r26
    2d40:	bb 1b       	sub	r27, r27
    2d42:	51 e1       	ldi	r21, 0x11	; 17
    2d44:	07 c0       	rjmp	.+14     	; 0x2d54 <__udivmodhi4_ep>

00002d46 <__udivmodhi4_loop>:
    2d46:	aa 1f       	adc	r26, r26
    2d48:	bb 1f       	adc	r27, r27
    2d4a:	a6 17       	cp	r26, r22
    2d4c:	b7 07       	cpc	r27, r23
    2d4e:	10 f0       	brcs	.+4      	; 0x2d54 <__udivmodhi4_ep>
    2d50:	a6 1b       	sub	r26, r22
    2d52:	b7 0b       	sbc	r27, r23

00002d54 <__udivmodhi4_ep>:
    2d54:	88 1f       	adc	r24, r24
    2d56:	99 1f       	adc	r25, r25
    2d58:	5a 95       	dec	r21
    2d5a:	a9 f7       	brne	.-22     	; 0x2d46 <__udivmodhi4_loop>
    2d5c:	80 95       	com	r24
    2d5e:	90 95       	com	r25
    2d60:	bc 01       	movw	r22, r24
    2d62:	cd 01       	movw	r24, r26
    2d64:	08 95       	ret

00002d66 <__ftoa_engine>:
    2d66:	28 30       	cpi	r18, 0x08	; 8
    2d68:	08 f0       	brcs	.+2      	; 0x2d6c <__ftoa_engine+0x6>
    2d6a:	27 e0       	ldi	r18, 0x07	; 7
    2d6c:	33 27       	eor	r19, r19
    2d6e:	da 01       	movw	r26, r20
    2d70:	99 0f       	add	r25, r25
    2d72:	31 1d       	adc	r19, r1
    2d74:	87 fd       	sbrc	r24, 7
    2d76:	91 60       	ori	r25, 0x01	; 1
    2d78:	00 96       	adiw	r24, 0x00	; 0
    2d7a:	61 05       	cpc	r22, r1
    2d7c:	71 05       	cpc	r23, r1
    2d7e:	39 f4       	brne	.+14     	; 0x2d8e <__ftoa_engine+0x28>
    2d80:	32 60       	ori	r19, 0x02	; 2
    2d82:	2e 5f       	subi	r18, 0xFE	; 254
    2d84:	3d 93       	st	X+, r19
    2d86:	30 e3       	ldi	r19, 0x30	; 48
    2d88:	2a 95       	dec	r18
    2d8a:	e1 f7       	brne	.-8      	; 0x2d84 <__ftoa_engine+0x1e>
    2d8c:	08 95       	ret
    2d8e:	9f 3f       	cpi	r25, 0xFF	; 255
    2d90:	30 f0       	brcs	.+12     	; 0x2d9e <__ftoa_engine+0x38>
    2d92:	80 38       	cpi	r24, 0x80	; 128
    2d94:	71 05       	cpc	r23, r1
    2d96:	61 05       	cpc	r22, r1
    2d98:	09 f0       	breq	.+2      	; 0x2d9c <__ftoa_engine+0x36>
    2d9a:	3c 5f       	subi	r19, 0xFC	; 252
    2d9c:	3c 5f       	subi	r19, 0xFC	; 252
    2d9e:	3d 93       	st	X+, r19
    2da0:	91 30       	cpi	r25, 0x01	; 1
    2da2:	08 f0       	brcs	.+2      	; 0x2da6 <__ftoa_engine+0x40>
    2da4:	80 68       	ori	r24, 0x80	; 128
    2da6:	91 1d       	adc	r25, r1
    2da8:	df 93       	push	r29
    2daa:	cf 93       	push	r28
    2dac:	1f 93       	push	r17
    2dae:	0f 93       	push	r16
    2db0:	ff 92       	push	r15
    2db2:	ef 92       	push	r14
    2db4:	19 2f       	mov	r17, r25
    2db6:	98 7f       	andi	r25, 0xF8	; 248
    2db8:	96 95       	lsr	r25
    2dba:	e9 2f       	mov	r30, r25
    2dbc:	96 95       	lsr	r25
    2dbe:	96 95       	lsr	r25
    2dc0:	e9 0f       	add	r30, r25
    2dc2:	ff 27       	eor	r31, r31
    2dc4:	ee 5f       	subi	r30, 0xFE	; 254
    2dc6:	fe 4f       	sbci	r31, 0xFE	; 254
    2dc8:	99 27       	eor	r25, r25
    2dca:	33 27       	eor	r19, r19
    2dcc:	ee 24       	eor	r14, r14
    2dce:	ff 24       	eor	r15, r15
    2dd0:	a7 01       	movw	r20, r14
    2dd2:	e7 01       	movw	r28, r14
    2dd4:	05 90       	lpm	r0, Z+
    2dd6:	08 94       	sec
    2dd8:	07 94       	ror	r0
    2dda:	28 f4       	brcc	.+10     	; 0x2de6 <__ftoa_engine+0x80>
    2ddc:	36 0f       	add	r19, r22
    2dde:	e7 1e       	adc	r14, r23
    2de0:	f8 1e       	adc	r15, r24
    2de2:	49 1f       	adc	r20, r25
    2de4:	51 1d       	adc	r21, r1
    2de6:	66 0f       	add	r22, r22
    2de8:	77 1f       	adc	r23, r23
    2dea:	88 1f       	adc	r24, r24
    2dec:	99 1f       	adc	r25, r25
    2dee:	06 94       	lsr	r0
    2df0:	a1 f7       	brne	.-24     	; 0x2dda <__ftoa_engine+0x74>
    2df2:	05 90       	lpm	r0, Z+
    2df4:	07 94       	ror	r0
    2df6:	28 f4       	brcc	.+10     	; 0x2e02 <__ftoa_engine+0x9c>
    2df8:	e7 0e       	add	r14, r23
    2dfa:	f8 1e       	adc	r15, r24
    2dfc:	49 1f       	adc	r20, r25
    2dfe:	56 1f       	adc	r21, r22
    2e00:	c1 1d       	adc	r28, r1
    2e02:	77 0f       	add	r23, r23
    2e04:	88 1f       	adc	r24, r24
    2e06:	99 1f       	adc	r25, r25
    2e08:	66 1f       	adc	r22, r22
    2e0a:	06 94       	lsr	r0
    2e0c:	a1 f7       	brne	.-24     	; 0x2df6 <__ftoa_engine+0x90>
    2e0e:	05 90       	lpm	r0, Z+
    2e10:	07 94       	ror	r0
    2e12:	28 f4       	brcc	.+10     	; 0x2e1e <__ftoa_engine+0xb8>
    2e14:	f8 0e       	add	r15, r24
    2e16:	49 1f       	adc	r20, r25
    2e18:	56 1f       	adc	r21, r22
    2e1a:	c7 1f       	adc	r28, r23
    2e1c:	d1 1d       	adc	r29, r1
    2e1e:	88 0f       	add	r24, r24
    2e20:	99 1f       	adc	r25, r25
    2e22:	66 1f       	adc	r22, r22
    2e24:	77 1f       	adc	r23, r23
    2e26:	06 94       	lsr	r0
    2e28:	a1 f7       	brne	.-24     	; 0x2e12 <__ftoa_engine+0xac>
    2e2a:	05 90       	lpm	r0, Z+
    2e2c:	07 94       	ror	r0
    2e2e:	20 f4       	brcc	.+8      	; 0x2e38 <__ftoa_engine+0xd2>
    2e30:	49 0f       	add	r20, r25
    2e32:	56 1f       	adc	r21, r22
    2e34:	c7 1f       	adc	r28, r23
    2e36:	d8 1f       	adc	r29, r24
    2e38:	99 0f       	add	r25, r25
    2e3a:	66 1f       	adc	r22, r22
    2e3c:	77 1f       	adc	r23, r23
    2e3e:	88 1f       	adc	r24, r24
    2e40:	06 94       	lsr	r0
    2e42:	a9 f7       	brne	.-22     	; 0x2e2e <__ftoa_engine+0xc8>
    2e44:	84 91       	lpm	r24, Z
    2e46:	10 95       	com	r17
    2e48:	17 70       	andi	r17, 0x07	; 7
    2e4a:	41 f0       	breq	.+16     	; 0x2e5c <__ftoa_engine+0xf6>
    2e4c:	d6 95       	lsr	r29
    2e4e:	c7 95       	ror	r28
    2e50:	57 95       	ror	r21
    2e52:	47 95       	ror	r20
    2e54:	f7 94       	ror	r15
    2e56:	e7 94       	ror	r14
    2e58:	1a 95       	dec	r17
    2e5a:	c1 f7       	brne	.-16     	; 0x2e4c <__ftoa_engine+0xe6>
    2e5c:	e8 ea       	ldi	r30, 0xA8	; 168
    2e5e:	f0 e0       	ldi	r31, 0x00	; 0
    2e60:	68 94       	set
    2e62:	15 90       	lpm	r1, Z+
    2e64:	15 91       	lpm	r17, Z+
    2e66:	35 91       	lpm	r19, Z+
    2e68:	65 91       	lpm	r22, Z+
    2e6a:	95 91       	lpm	r25, Z+
    2e6c:	05 90       	lpm	r0, Z+
    2e6e:	7f e2       	ldi	r23, 0x2F	; 47
    2e70:	73 95       	inc	r23
    2e72:	e1 18       	sub	r14, r1
    2e74:	f1 0a       	sbc	r15, r17
    2e76:	43 0b       	sbc	r20, r19
    2e78:	56 0b       	sbc	r21, r22
    2e7a:	c9 0b       	sbc	r28, r25
    2e7c:	d0 09       	sbc	r29, r0
    2e7e:	c0 f7       	brcc	.-16     	; 0x2e70 <__ftoa_engine+0x10a>
    2e80:	e1 0c       	add	r14, r1
    2e82:	f1 1e       	adc	r15, r17
    2e84:	43 1f       	adc	r20, r19
    2e86:	56 1f       	adc	r21, r22
    2e88:	c9 1f       	adc	r28, r25
    2e8a:	d0 1d       	adc	r29, r0
    2e8c:	7e f4       	brtc	.+30     	; 0x2eac <__ftoa_engine+0x146>
    2e8e:	70 33       	cpi	r23, 0x30	; 48
    2e90:	11 f4       	brne	.+4      	; 0x2e96 <__ftoa_engine+0x130>
    2e92:	8a 95       	dec	r24
    2e94:	e6 cf       	rjmp	.-52     	; 0x2e62 <__ftoa_engine+0xfc>
    2e96:	e8 94       	clt
    2e98:	01 50       	subi	r16, 0x01	; 1
    2e9a:	30 f0       	brcs	.+12     	; 0x2ea8 <__ftoa_engine+0x142>
    2e9c:	08 0f       	add	r16, r24
    2e9e:	0a f4       	brpl	.+2      	; 0x2ea2 <__ftoa_engine+0x13c>
    2ea0:	00 27       	eor	r16, r16
    2ea2:	02 17       	cp	r16, r18
    2ea4:	08 f4       	brcc	.+2      	; 0x2ea8 <__ftoa_engine+0x142>
    2ea6:	20 2f       	mov	r18, r16
    2ea8:	23 95       	inc	r18
    2eaa:	02 2f       	mov	r16, r18
    2eac:	7a 33       	cpi	r23, 0x3A	; 58
    2eae:	28 f0       	brcs	.+10     	; 0x2eba <__ftoa_engine+0x154>
    2eb0:	79 e3       	ldi	r23, 0x39	; 57
    2eb2:	7d 93       	st	X+, r23
    2eb4:	2a 95       	dec	r18
    2eb6:	e9 f7       	brne	.-6      	; 0x2eb2 <__ftoa_engine+0x14c>
    2eb8:	10 c0       	rjmp	.+32     	; 0x2eda <__ftoa_engine+0x174>
    2eba:	7d 93       	st	X+, r23
    2ebc:	2a 95       	dec	r18
    2ebe:	89 f6       	brne	.-94     	; 0x2e62 <__ftoa_engine+0xfc>
    2ec0:	06 94       	lsr	r0
    2ec2:	97 95       	ror	r25
    2ec4:	67 95       	ror	r22
    2ec6:	37 95       	ror	r19
    2ec8:	17 95       	ror	r17
    2eca:	17 94       	ror	r1
    2ecc:	e1 18       	sub	r14, r1
    2ece:	f1 0a       	sbc	r15, r17
    2ed0:	43 0b       	sbc	r20, r19
    2ed2:	56 0b       	sbc	r21, r22
    2ed4:	c9 0b       	sbc	r28, r25
    2ed6:	d0 09       	sbc	r29, r0
    2ed8:	98 f0       	brcs	.+38     	; 0x2f00 <__ftoa_engine+0x19a>
    2eda:	23 95       	inc	r18
    2edc:	7e 91       	ld	r23, -X
    2ede:	73 95       	inc	r23
    2ee0:	7a 33       	cpi	r23, 0x3A	; 58
    2ee2:	08 f0       	brcs	.+2      	; 0x2ee6 <__ftoa_engine+0x180>
    2ee4:	70 e3       	ldi	r23, 0x30	; 48
    2ee6:	7c 93       	st	X, r23
    2ee8:	20 13       	cpse	r18, r16
    2eea:	b8 f7       	brcc	.-18     	; 0x2eda <__ftoa_engine+0x174>
    2eec:	7e 91       	ld	r23, -X
    2eee:	70 61       	ori	r23, 0x10	; 16
    2ef0:	7d 93       	st	X+, r23
    2ef2:	30 f0       	brcs	.+12     	; 0x2f00 <__ftoa_engine+0x19a>
    2ef4:	83 95       	inc	r24
    2ef6:	71 e3       	ldi	r23, 0x31	; 49
    2ef8:	7d 93       	st	X+, r23
    2efa:	70 e3       	ldi	r23, 0x30	; 48
    2efc:	2a 95       	dec	r18
    2efe:	e1 f7       	brne	.-8      	; 0x2ef8 <__ftoa_engine+0x192>
    2f00:	11 24       	eor	r1, r1
    2f02:	ef 90       	pop	r14
    2f04:	ff 90       	pop	r15
    2f06:	0f 91       	pop	r16
    2f08:	1f 91       	pop	r17
    2f0a:	cf 91       	pop	r28
    2f0c:	df 91       	pop	r29
    2f0e:	99 27       	eor	r25, r25
    2f10:	87 fd       	sbrc	r24, 7
    2f12:	90 95       	com	r25
    2f14:	08 95       	ret

00002f16 <strnlen_P>:
    2f16:	fc 01       	movw	r30, r24
    2f18:	05 90       	lpm	r0, Z+
    2f1a:	61 50       	subi	r22, 0x01	; 1
    2f1c:	70 40       	sbci	r23, 0x00	; 0
    2f1e:	01 10       	cpse	r0, r1
    2f20:	d8 f7       	brcc	.-10     	; 0x2f18 <strnlen_P+0x2>
    2f22:	80 95       	com	r24
    2f24:	90 95       	com	r25
    2f26:	8e 0f       	add	r24, r30
    2f28:	9f 1f       	adc	r25, r31
    2f2a:	08 95       	ret

00002f2c <strcat>:
    2f2c:	fb 01       	movw	r30, r22
    2f2e:	dc 01       	movw	r26, r24
    2f30:	0d 90       	ld	r0, X+
    2f32:	00 20       	and	r0, r0
    2f34:	e9 f7       	brne	.-6      	; 0x2f30 <strcat+0x4>
    2f36:	11 97       	sbiw	r26, 0x01	; 1
    2f38:	01 90       	ld	r0, Z+
    2f3a:	0d 92       	st	X+, r0
    2f3c:	00 20       	and	r0, r0
    2f3e:	e1 f7       	brne	.-8      	; 0x2f38 <strcat+0xc>
    2f40:	08 95       	ret

00002f42 <strcpy>:
    2f42:	fb 01       	movw	r30, r22
    2f44:	dc 01       	movw	r26, r24
    2f46:	01 90       	ld	r0, Z+
    2f48:	0d 92       	st	X+, r0
    2f4a:	00 20       	and	r0, r0
    2f4c:	e1 f7       	brne	.-8      	; 0x2f46 <strcpy+0x4>
    2f4e:	08 95       	ret

00002f50 <strnlen>:
    2f50:	fc 01       	movw	r30, r24
    2f52:	61 50       	subi	r22, 0x01	; 1
    2f54:	70 40       	sbci	r23, 0x00	; 0
    2f56:	01 90       	ld	r0, Z+
    2f58:	01 10       	cpse	r0, r1
    2f5a:	d8 f7       	brcc	.-10     	; 0x2f52 <strnlen+0x2>
    2f5c:	80 95       	com	r24
    2f5e:	90 95       	com	r25
    2f60:	8e 0f       	add	r24, r30
    2f62:	9f 1f       	adc	r25, r31
    2f64:	08 95       	ret

00002f66 <fputc>:
    2f66:	0f 93       	push	r16
    2f68:	1f 93       	push	r17
    2f6a:	cf 93       	push	r28
    2f6c:	df 93       	push	r29
    2f6e:	fb 01       	movw	r30, r22
    2f70:	23 81       	ldd	r18, Z+3	; 0x03
    2f72:	21 fd       	sbrc	r18, 1
    2f74:	03 c0       	rjmp	.+6      	; 0x2f7c <fputc+0x16>
    2f76:	8f ef       	ldi	r24, 0xFF	; 255
    2f78:	9f ef       	ldi	r25, 0xFF	; 255
    2f7a:	2c c0       	rjmp	.+88     	; 0x2fd4 <fputc+0x6e>
    2f7c:	22 ff       	sbrs	r18, 2
    2f7e:	16 c0       	rjmp	.+44     	; 0x2fac <fputc+0x46>
    2f80:	46 81       	ldd	r20, Z+6	; 0x06
    2f82:	57 81       	ldd	r21, Z+7	; 0x07
    2f84:	24 81       	ldd	r18, Z+4	; 0x04
    2f86:	35 81       	ldd	r19, Z+5	; 0x05
    2f88:	42 17       	cp	r20, r18
    2f8a:	53 07       	cpc	r21, r19
    2f8c:	44 f4       	brge	.+16     	; 0x2f9e <fputc+0x38>
    2f8e:	a0 81       	ld	r26, Z
    2f90:	b1 81       	ldd	r27, Z+1	; 0x01
    2f92:	9d 01       	movw	r18, r26
    2f94:	2f 5f       	subi	r18, 0xFF	; 255
    2f96:	3f 4f       	sbci	r19, 0xFF	; 255
    2f98:	20 83       	st	Z, r18
    2f9a:	31 83       	std	Z+1, r19	; 0x01
    2f9c:	8c 93       	st	X, r24
    2f9e:	26 81       	ldd	r18, Z+6	; 0x06
    2fa0:	37 81       	ldd	r19, Z+7	; 0x07
    2fa2:	2f 5f       	subi	r18, 0xFF	; 255
    2fa4:	3f 4f       	sbci	r19, 0xFF	; 255
    2fa6:	26 83       	std	Z+6, r18	; 0x06
    2fa8:	37 83       	std	Z+7, r19	; 0x07
    2faa:	14 c0       	rjmp	.+40     	; 0x2fd4 <fputc+0x6e>
    2fac:	8b 01       	movw	r16, r22
    2fae:	ec 01       	movw	r28, r24
    2fb0:	fb 01       	movw	r30, r22
    2fb2:	00 84       	ldd	r0, Z+8	; 0x08
    2fb4:	f1 85       	ldd	r31, Z+9	; 0x09
    2fb6:	e0 2d       	mov	r30, r0
    2fb8:	09 95       	icall
    2fba:	89 2b       	or	r24, r25
    2fbc:	e1 f6       	brne	.-72     	; 0x2f76 <fputc+0x10>
    2fbe:	d8 01       	movw	r26, r16
    2fc0:	16 96       	adiw	r26, 0x06	; 6
    2fc2:	8d 91       	ld	r24, X+
    2fc4:	9c 91       	ld	r25, X
    2fc6:	17 97       	sbiw	r26, 0x07	; 7
    2fc8:	01 96       	adiw	r24, 0x01	; 1
    2fca:	16 96       	adiw	r26, 0x06	; 6
    2fcc:	8d 93       	st	X+, r24
    2fce:	9c 93       	st	X, r25
    2fd0:	17 97       	sbiw	r26, 0x07	; 7
    2fd2:	ce 01       	movw	r24, r28
    2fd4:	df 91       	pop	r29
    2fd6:	cf 91       	pop	r28
    2fd8:	1f 91       	pop	r17
    2fda:	0f 91       	pop	r16
    2fdc:	08 95       	ret

00002fde <sprintf>:
    2fde:	ae e0       	ldi	r26, 0x0E	; 14
    2fe0:	b0 e0       	ldi	r27, 0x00	; 0
    2fe2:	e5 ef       	ldi	r30, 0xF5	; 245
    2fe4:	f7 e1       	ldi	r31, 0x17	; 23
    2fe6:	0c 94 7c 16 	jmp	0x2cf8	; 0x2cf8 <__prologue_saves__+0x1c>
    2fea:	0d 89       	ldd	r16, Y+21	; 0x15
    2fec:	1e 89       	ldd	r17, Y+22	; 0x16
    2fee:	86 e0       	ldi	r24, 0x06	; 6
    2ff0:	8c 83       	std	Y+4, r24	; 0x04
    2ff2:	09 83       	std	Y+1, r16	; 0x01
    2ff4:	1a 83       	std	Y+2, r17	; 0x02
    2ff6:	8f ef       	ldi	r24, 0xFF	; 255
    2ff8:	9f e7       	ldi	r25, 0x7F	; 127
    2ffa:	8d 83       	std	Y+5, r24	; 0x05
    2ffc:	9e 83       	std	Y+6, r25	; 0x06
    2ffe:	ae 01       	movw	r20, r28
    3000:	47 5e       	subi	r20, 0xE7	; 231
    3002:	5f 4f       	sbci	r21, 0xFF	; 255
    3004:	6f 89       	ldd	r22, Y+23	; 0x17
    3006:	78 8d       	ldd	r23, Y+24	; 0x18
    3008:	ce 01       	movw	r24, r28
    300a:	01 96       	adiw	r24, 0x01	; 1
    300c:	0e 94 dd 12 	call	0x25ba	; 0x25ba <vfprintf>
    3010:	ef 81       	ldd	r30, Y+7	; 0x07
    3012:	f8 85       	ldd	r31, Y+8	; 0x08
    3014:	e0 0f       	add	r30, r16
    3016:	f1 1f       	adc	r31, r17
    3018:	10 82       	st	Z, r1
    301a:	2e 96       	adiw	r28, 0x0e	; 14
    301c:	e4 e0       	ldi	r30, 0x04	; 4
    301e:	0c 94 95 16 	jmp	0x2d2a	; 0x2d2a <__epilogue_restores__+0x1c>

00003022 <__ultoa_invert>:
    3022:	fa 01       	movw	r30, r20
    3024:	aa 27       	eor	r26, r26
    3026:	28 30       	cpi	r18, 0x08	; 8
    3028:	51 f1       	breq	.+84     	; 0x307e <__ultoa_invert+0x5c>
    302a:	20 31       	cpi	r18, 0x10	; 16
    302c:	81 f1       	breq	.+96     	; 0x308e <__ultoa_invert+0x6c>
    302e:	e8 94       	clt
    3030:	6f 93       	push	r22
    3032:	6e 7f       	andi	r22, 0xFE	; 254
    3034:	6e 5f       	subi	r22, 0xFE	; 254
    3036:	7f 4f       	sbci	r23, 0xFF	; 255
    3038:	8f 4f       	sbci	r24, 0xFF	; 255
    303a:	9f 4f       	sbci	r25, 0xFF	; 255
    303c:	af 4f       	sbci	r26, 0xFF	; 255
    303e:	b1 e0       	ldi	r27, 0x01	; 1
    3040:	3e d0       	rcall	.+124    	; 0x30be <__ultoa_invert+0x9c>
    3042:	b4 e0       	ldi	r27, 0x04	; 4
    3044:	3c d0       	rcall	.+120    	; 0x30be <__ultoa_invert+0x9c>
    3046:	67 0f       	add	r22, r23
    3048:	78 1f       	adc	r23, r24
    304a:	89 1f       	adc	r24, r25
    304c:	9a 1f       	adc	r25, r26
    304e:	a1 1d       	adc	r26, r1
    3050:	68 0f       	add	r22, r24
    3052:	79 1f       	adc	r23, r25
    3054:	8a 1f       	adc	r24, r26
    3056:	91 1d       	adc	r25, r1
    3058:	a1 1d       	adc	r26, r1
    305a:	6a 0f       	add	r22, r26
    305c:	71 1d       	adc	r23, r1
    305e:	81 1d       	adc	r24, r1
    3060:	91 1d       	adc	r25, r1
    3062:	a1 1d       	adc	r26, r1
    3064:	20 d0       	rcall	.+64     	; 0x30a6 <__ultoa_invert+0x84>
    3066:	09 f4       	brne	.+2      	; 0x306a <__ultoa_invert+0x48>
    3068:	68 94       	set
    306a:	3f 91       	pop	r19
    306c:	2a e0       	ldi	r18, 0x0A	; 10
    306e:	26 9f       	mul	r18, r22
    3070:	11 24       	eor	r1, r1
    3072:	30 19       	sub	r19, r0
    3074:	30 5d       	subi	r19, 0xD0	; 208
    3076:	31 93       	st	Z+, r19
    3078:	de f6       	brtc	.-74     	; 0x3030 <__ultoa_invert+0xe>
    307a:	cf 01       	movw	r24, r30
    307c:	08 95       	ret
    307e:	46 2f       	mov	r20, r22
    3080:	47 70       	andi	r20, 0x07	; 7
    3082:	40 5d       	subi	r20, 0xD0	; 208
    3084:	41 93       	st	Z+, r20
    3086:	b3 e0       	ldi	r27, 0x03	; 3
    3088:	0f d0       	rcall	.+30     	; 0x30a8 <__ultoa_invert+0x86>
    308a:	c9 f7       	brne	.-14     	; 0x307e <__ultoa_invert+0x5c>
    308c:	f6 cf       	rjmp	.-20     	; 0x307a <__ultoa_invert+0x58>
    308e:	46 2f       	mov	r20, r22
    3090:	4f 70       	andi	r20, 0x0F	; 15
    3092:	40 5d       	subi	r20, 0xD0	; 208
    3094:	4a 33       	cpi	r20, 0x3A	; 58
    3096:	18 f0       	brcs	.+6      	; 0x309e <__ultoa_invert+0x7c>
    3098:	49 5d       	subi	r20, 0xD9	; 217
    309a:	31 fd       	sbrc	r19, 1
    309c:	40 52       	subi	r20, 0x20	; 32
    309e:	41 93       	st	Z+, r20
    30a0:	02 d0       	rcall	.+4      	; 0x30a6 <__ultoa_invert+0x84>
    30a2:	a9 f7       	brne	.-22     	; 0x308e <__ultoa_invert+0x6c>
    30a4:	ea cf       	rjmp	.-44     	; 0x307a <__ultoa_invert+0x58>
    30a6:	b4 e0       	ldi	r27, 0x04	; 4
    30a8:	a6 95       	lsr	r26
    30aa:	97 95       	ror	r25
    30ac:	87 95       	ror	r24
    30ae:	77 95       	ror	r23
    30b0:	67 95       	ror	r22
    30b2:	ba 95       	dec	r27
    30b4:	c9 f7       	brne	.-14     	; 0x30a8 <__ultoa_invert+0x86>
    30b6:	00 97       	sbiw	r24, 0x00	; 0
    30b8:	61 05       	cpc	r22, r1
    30ba:	71 05       	cpc	r23, r1
    30bc:	08 95       	ret
    30be:	9b 01       	movw	r18, r22
    30c0:	ac 01       	movw	r20, r24
    30c2:	0a 2e       	mov	r0, r26
    30c4:	06 94       	lsr	r0
    30c6:	57 95       	ror	r21
    30c8:	47 95       	ror	r20
    30ca:	37 95       	ror	r19
    30cc:	27 95       	ror	r18
    30ce:	ba 95       	dec	r27
    30d0:	c9 f7       	brne	.-14     	; 0x30c4 <__ultoa_invert+0xa2>
    30d2:	62 0f       	add	r22, r18
    30d4:	73 1f       	adc	r23, r19
    30d6:	84 1f       	adc	r24, r20
    30d8:	95 1f       	adc	r25, r21
    30da:	a0 1d       	adc	r26, r0
    30dc:	08 95       	ret

000030de <eeprom_read_block>:
    30de:	60 50       	subi	r22, 0x00	; 0
    30e0:	7c 4e       	sbci	r23, 0xEC	; 236
    30e2:	0c 94 aa 18 	jmp	0x3154	; 0x3154 <memcpy>

000030e6 <eeprom_update_block>:
    30e6:	dc 01       	movw	r26, r24
    30e8:	a4 0f       	add	r26, r20
    30ea:	b5 1f       	adc	r27, r21
    30ec:	41 50       	subi	r20, 0x01	; 1
    30ee:	50 40       	sbci	r21, 0x00	; 0
    30f0:	48 f0       	brcs	.+18     	; 0x3104 <eeprom_update_block+0x1e>
    30f2:	cb 01       	movw	r24, r22
    30f4:	84 0f       	add	r24, r20
    30f6:	95 1f       	adc	r25, r21
    30f8:	2e 91       	ld	r18, -X
    30fa:	0e 94 84 18 	call	0x3108	; 0x3108 <eeprom_update_r18>
    30fe:	41 50       	subi	r20, 0x01	; 1
    3100:	50 40       	sbci	r21, 0x00	; 0
    3102:	d0 f7       	brcc	.-12     	; 0x30f8 <eeprom_update_block+0x12>
    3104:	08 95       	ret

00003106 <eeprom_update_byte>:
    3106:	26 2f       	mov	r18, r22

00003108 <eeprom_update_r18>:
    3108:	0e 94 a6 18 	call	0x314c	; 0x314c <eeprom_mapen>
    310c:	00 80       	ld	r0, Z
    310e:	02 16       	cp	r0, r18
    3110:	19 f0       	breq	.+6      	; 0x3118 <eeprom_update_r18+0x10>
    3112:	0e 94 8f 18 	call	0x311e	; 0x311e <eeprom_write_r18>
    3116:	01 97       	sbiw	r24, 0x01	; 1
    3118:	01 97       	sbiw	r24, 0x01	; 1
    311a:	08 95       	ret

0000311c <eeprom_write_byte>:
    311c:	26 2f       	mov	r18, r22

0000311e <eeprom_write_r18>:
    311e:	af 93       	push	r26
    3120:	bf 93       	push	r27
    3122:	e0 e0       	ldi	r30, 0x00	; 0
    3124:	f0 e1       	ldi	r31, 0x10	; 16
    3126:	32 81       	ldd	r19, Z+2	; 0x02
    3128:	31 fd       	sbrc	r19, 1
    312a:	fd cf       	rjmp	.-6      	; 0x3126 <eeprom_write_r18+0x8>
    312c:	dc 01       	movw	r26, r24
    312e:	a0 50       	subi	r26, 0x00	; 0
    3130:	bc 4e       	sbci	r27, 0xEC	; 236
    3132:	2c 93       	st	X, r18
    3134:	2d e9       	ldi	r18, 0x9D	; 157
    3136:	24 bf       	out	0x34, r18	; 52
    3138:	23 e0       	ldi	r18, 0x03	; 3
    313a:	20 83       	st	Z, r18
    313c:	01 96       	adiw	r24, 0x01	; 1
    313e:	bf 91       	pop	r27
    3140:	af 91       	pop	r26
    3142:	08 95       	ret

00003144 <eeprom_read_byte>:
    3144:	03 d0       	rcall	.+6      	; 0x314c <eeprom_mapen>
    3146:	80 81       	ld	r24, Z
    3148:	99 27       	eor	r25, r25
    314a:	08 95       	ret

0000314c <eeprom_mapen>:
    314c:	fc 01       	movw	r30, r24
    314e:	e0 50       	subi	r30, 0x00	; 0
    3150:	fc 4e       	sbci	r31, 0xEC	; 236
    3152:	08 95       	ret

00003154 <memcpy>:
    3154:	fb 01       	movw	r30, r22
    3156:	dc 01       	movw	r26, r24
    3158:	02 c0       	rjmp	.+4      	; 0x315e <memcpy+0xa>
    315a:	01 90       	ld	r0, Z+
    315c:	0d 92       	st	X+, r0
    315e:	41 50       	subi	r20, 0x01	; 1
    3160:	50 40       	sbci	r21, 0x00	; 0
    3162:	d8 f7       	brcc	.-10     	; 0x315a <memcpy+0x6>
    3164:	08 95       	ret

00003166 <_exit>:
    3166:	f8 94       	cli

00003168 <__stop_program>:
    3168:	ff cf       	rjmp	.-2      	; 0x3168 <__stop_program>
