
specMech.elf:     file format elf32-avr

Sections:
Idx Name          Size      VMA       LMA       File off  Algn
  0 .data         00000000  00802800  00802800  000053f7  2**0
                  CONTENTS, ALLOC, LOAD, DATA
  1 .text         00004c0c  00000000  00000000  00000094  2**1
                  CONTENTS, ALLOC, LOAD, READONLY, CODE
  2 .rodata       00000757  00008c0c  00004c0c  00004ca0  2**0
                  CONTENTS, ALLOC, LOAD, READONLY, DATA
  3 .bss          0000084d  00802800  00802800  000053f7  2**0
                  ALLOC
  4 .comment      0000005c  00000000  00000000  000053f7  2**0
                  CONTENTS, READONLY
  5 .note.gnu.avr.deviceinfo 00000040  00000000  00000000  00005454  2**2
                  CONTENTS, READONLY
  6 .debug_aranges 00000628  00000000  00000000  00005498  2**3
                  CONTENTS, READONLY, DEBUGGING
  7 .debug_info   0000a48d  00000000  00000000  00005ac0  2**0
                  CONTENTS, READONLY, DEBUGGING
  8 .debug_abbrev 000045c7  00000000  00000000  0000ff4d  2**0
                  CONTENTS, READONLY, DEBUGGING
  9 .debug_line   000045ff  00000000  00000000  00014514  2**0
                  CONTENTS, READONLY, DEBUGGING
 10 .debug_frame  00001108  00000000  00000000  00018b14  2**2
                  CONTENTS, READONLY, DEBUGGING
 11 .debug_str    00002368  00000000  00000000  00019c1c  2**0
                  CONTENTS, READONLY, DEBUGGING
 12 .debug_loc    000048d4  00000000  00000000  0001bf84  2**0
                  CONTENTS, READONLY, DEBUGGING
 13 .debug_ranges 000003c8  00000000  00000000  00020858  2**0
                  CONTENTS, READONLY, DEBUGGING

Disassembly of section .text:

00000000 <__vectors>:
       0:	0c 94 33 01 	jmp	0x266	; 0x266 <__ctors_end>
       4:	0c 94 45 01 	jmp	0x28a	; 0x28a <__bad_interrupt>
       8:	0c 94 45 01 	jmp	0x28a	; 0x28a <__bad_interrupt>
       c:	0c 94 f9 18 	jmp	0x31f2	; 0x31f2 <__vector_3>
      10:	0c 94 45 01 	jmp	0x28a	; 0x28a <__bad_interrupt>
      14:	0c 94 45 01 	jmp	0x28a	; 0x28a <__bad_interrupt>
      18:	0c 94 45 01 	jmp	0x28a	; 0x28a <__bad_interrupt>
      1c:	0c 94 45 01 	jmp	0x28a	; 0x28a <__bad_interrupt>
      20:	0c 94 45 01 	jmp	0x28a	; 0x28a <__bad_interrupt>
      24:	0c 94 45 01 	jmp	0x28a	; 0x28a <__bad_interrupt>
      28:	0c 94 45 01 	jmp	0x28a	; 0x28a <__bad_interrupt>
      2c:	0c 94 45 01 	jmp	0x28a	; 0x28a <__bad_interrupt>
      30:	0c 94 dd 19 	jmp	0x33ba	; 0x33ba <__vector_12>
      34:	0c 94 45 01 	jmp	0x28a	; 0x28a <__bad_interrupt>
      38:	0c 94 45 01 	jmp	0x28a	; 0x28a <__bad_interrupt>
      3c:	0c 94 45 01 	jmp	0x28a	; 0x28a <__bad_interrupt>
      40:	0c 94 45 01 	jmp	0x28a	; 0x28a <__bad_interrupt>
      44:	0c 94 04 1c 	jmp	0x3808	; 0x3808 <__vector_17>
      48:	0c 94 52 1c 	jmp	0x38a4	; 0x38a4 <__vector_18>
      4c:	0c 94 45 01 	jmp	0x28a	; 0x28a <__bad_interrupt>
      50:	0c 94 50 0e 	jmp	0x1ca0	; 0x1ca0 <__vector_20>
      54:	0c 94 45 01 	jmp	0x28a	; 0x28a <__bad_interrupt>
      58:	0c 94 45 01 	jmp	0x28a	; 0x28a <__bad_interrupt>
      5c:	0c 94 45 01 	jmp	0x28a	; 0x28a <__bad_interrupt>
      60:	0c 94 45 01 	jmp	0x28a	; 0x28a <__bad_interrupt>
      64:	0c 94 45 01 	jmp	0x28a	; 0x28a <__bad_interrupt>
      68:	0c 94 8e 1c 	jmp	0x391c	; 0x391c <__vector_26>
      6c:	0c 94 b9 1c 	jmp	0x3972	; 0x3972 <__vector_27>
      70:	0c 94 45 01 	jmp	0x28a	; 0x28a <__bad_interrupt>
      74:	0c 94 5e 1d 	jmp	0x3abc	; 0x3abc <__vector_29>
      78:	0c 94 45 01 	jmp	0x28a	; 0x28a <__bad_interrupt>
      7c:	0c 94 45 01 	jmp	0x28a	; 0x28a <__bad_interrupt>
      80:	0c 94 45 01 	jmp	0x28a	; 0x28a <__bad_interrupt>
      84:	0c 94 45 01 	jmp	0x28a	; 0x28a <__bad_interrupt>
      88:	0c 94 45 01 	jmp	0x28a	; 0x28a <__bad_interrupt>
      8c:	0c 94 45 01 	jmp	0x28a	; 0x28a <__bad_interrupt>
      90:	0c 94 45 01 	jmp	0x28a	; 0x28a <__bad_interrupt>
      94:	0c 94 f5 1c 	jmp	0x39ea	; 0x39ea <__vector_37>
      98:	0c 94 2a 1d 	jmp	0x3a54	; 0x3a54 <__vector_38>
      9c:	0c 94 45 01 	jmp	0x28a	; 0x28a <__bad_interrupt>
      a0:	ac 04       	cpc	r10, r12
      a2:	d3 04       	cpc	r13, r3
      a4:	d3 04       	cpc	r13, r3
      a6:	d3 04       	cpc	r13, r3
      a8:	d3 04       	cpc	r13, r3
      aa:	d3 04       	cpc	r13, r3
      ac:	d3 04       	cpc	r13, r3
      ae:	d3 04       	cpc	r13, r3
      b0:	d3 04       	cpc	r13, r3
      b2:	af 04       	cpc	r10, r15
      b4:	d3 04       	cpc	r13, r3
      b6:	d3 04       	cpc	r13, r3
      b8:	d3 04       	cpc	r13, r3
      ba:	d3 04       	cpc	r13, r3
      bc:	d3 04       	cpc	r13, r3
      be:	d3 04       	cpc	r13, r3
      c0:	d3 04       	cpc	r13, r3
      c2:	d3 04       	cpc	r13, r3
      c4:	d3 04       	cpc	r13, r3
      c6:	d3 04       	cpc	r13, r3
      c8:	d3 04       	cpc	r13, r3
      ca:	d3 04       	cpc	r13, r3
      cc:	d3 04       	cpc	r13, r3
      ce:	d3 04       	cpc	r13, r3
      d0:	d3 04       	cpc	r13, r3
      d2:	d3 04       	cpc	r13, r3
      d4:	9a 04       	cpc	r9, r10
      d6:	d3 04       	cpc	r13, r3
      d8:	d3 04       	cpc	r13, r3
      da:	d3 04       	cpc	r13, r3
      dc:	d3 04       	cpc	r13, r3
      de:	d3 04       	cpc	r13, r3
      e0:	d3 04       	cpc	r13, r3
      e2:	d3 04       	cpc	r13, r3
      e4:	d3 04       	cpc	r13, r3
      e6:	d3 04       	cpc	r13, r3
      e8:	a0 04       	cpc	r10, r0
      ea:	d3 04       	cpc	r13, r3
      ec:	9d 04       	cpc	r9, r13
      ee:	d3 04       	cpc	r13, r3
      f0:	d3 04       	cpc	r13, r3
      f2:	a3 04       	cpc	r10, r3
      f4:	a6 04       	cpc	r10, r6
      f6:	a9 04       	cpc	r10, r9
      f8:	3d 0f       	add	r19, r29
      fa:	3d 0f       	add	r19, r29
      fc:	3d 0f       	add	r19, r29
      fe:	ea 13       	cpse	r30, r26
     100:	ea 13       	cpse	r30, r26
     102:	ea 13       	cpse	r30, r26
     104:	ea 13       	cpse	r30, r26
     106:	ea 13       	cpse	r30, r26
     108:	ea 13       	cpse	r30, r26
     10a:	ea 13       	cpse	r30, r26
     10c:	ea 13       	cpse	r30, r26
     10e:	ea 13       	cpse	r30, r26
     110:	ea 13       	cpse	r30, r26
     112:	ea 13       	cpse	r30, r26
     114:	ea 13       	cpse	r30, r26
     116:	ea 13       	cpse	r30, r26
     118:	ea 13       	cpse	r30, r26
     11a:	ea 13       	cpse	r30, r26
     11c:	ea 13       	cpse	r30, r26
     11e:	ea 13       	cpse	r30, r26
     120:	ea 13       	cpse	r30, r26
     122:	ac 13       	cpse	r26, r28
     124:	ea 13       	cpse	r30, r26
     126:	ea 13       	cpse	r30, r26
     128:	ea 13       	cpse	r30, r26
     12a:	ea 13       	cpse	r30, r26
     12c:	ea 13       	cpse	r30, r26
     12e:	ea 13       	cpse	r30, r26
     130:	ea 13       	cpse	r30, r26
     132:	ea 13       	cpse	r30, r26
     134:	ea 13       	cpse	r30, r26
     136:	ea 13       	cpse	r30, r26
     138:	c1 0f       	add	r28, r17
     13a:	c1 0f       	add	r28, r17
     13c:	c1 0f       	add	r28, r17
     13e:	ea 13       	cpse	r30, r26
     140:	6f 10       	cpse	r6, r15
     142:	ea 13       	cpse	r30, r26
     144:	ea 13       	cpse	r30, r26
     146:	ea 13       	cpse	r30, r26
     148:	ea 13       	cpse	r30, r26
     14a:	ea 13       	cpse	r30, r26
     14c:	ea 13       	cpse	r30, r26
     14e:	ea 13       	cpse	r30, r26
     150:	ea 13       	cpse	r30, r26
     152:	ea 13       	cpse	r30, r26
     154:	ac 11       	cpse	r26, r12
     156:	82 12       	cpse	r8, r18
     158:	ea 13       	cpse	r30, r26
     15a:	ea 13       	cpse	r30, r26
     15c:	ea 13       	cpse	r30, r26
     15e:	0b 13       	cpse	r16, r27
     160:	ea 13       	cpse	r30, r26
     162:	53 13       	cpse	r21, r19

00000164 <__trampolines_end>:
     164:	6e 61       	ori	r22, 0x1E	; 30
     166:	6e 00       	.word	0x006e	; ????

00000168 <__c.2332>:
     168:	69 6e 66 00 00 40 7a 10 f3 5a 00 a0 72 4e 18 09     inf..@z..Z..rN..
     178:	00 10 a5 d4 e8 00 00 e8 76 48 17 00 00 e4 0b 54     ........vH.....T
     188:	02 00 00 ca 9a 3b 00 00 00 e1 f5 05 00 00 80 96     .....;..........
     198:	98 00 00 00 40 42 0f 00 00 00 a0 86 01 00 00 00     ....@B..........
     1a8:	10 27 00 00 00 00 e8 03 00 00 00 00 64 00 00 00     .'..........d...
     1b8:	00 00 0a 00 00 00 00 00 01 00 00 00 00 00 2c 76     ..............,v
     1c8:	d8 88 dc 67 4f 08 23 df c1 df ae 59 e1 b1 b7 96     ...gO.#....Y....
     1d8:	e5 e3 e4 53 c6 3a e6 51 99 76 96 e8 e6 c2 84 26     ...S.:.Q.v.....&
     1e8:	eb 89 8c 9b 62 ed 40 7c 6f fc ef bc 9c 9f 40 f2     ....b.@|o.....@.
     1f8:	ba a5 6f a5 f4 90 05 5a 2a f7 5c 93 6b 6c f9 67     ..o....Z*.\.kl.g
     208:	6d c1 1b fc e0 e4 0d 47 fe f5 20 e6 b5 00 d0 ed     m......G.. .....
     218:	90 2e 03 00 94 35 77 05 00 80 84 1e 08 00 00 20     .....5w........ 
     228:	4e 0a 00 00 00 c8 0c 33 33 33 33 0f 98 6e 12 83     N......3333..n..
     238:	11 41 ef 8d 21 14 89 3b e6 55 16 cf fe e6 db 18     .A..!..;.U......
     248:	d1 84 4b 38 1b f7 7c 1d 90 1d a4 bb e4 24 20 32     ..K8..|......$ 2
     258:	84 72 5e 22 81 00 c9 f1 24 ec a1 e5 3d 27           .r^"....$...='

00000266 <__ctors_end>:
     266:	11 24       	eor	r1, r1
     268:	1f be       	out	0x3f, r1	; 63
     26a:	cf ef       	ldi	r28, 0xFF	; 255
     26c:	cd bf       	out	0x3d, r28	; 61
     26e:	df e3       	ldi	r29, 0x3F	; 63
     270:	de bf       	out	0x3e, r29	; 62

00000272 <__do_clear_bss>:
     272:	20 e3       	ldi	r18, 0x30	; 48
     274:	a0 e0       	ldi	r26, 0x00	; 0
     276:	b8 e2       	ldi	r27, 0x28	; 40
     278:	01 c0       	rjmp	.+2      	; 0x27c <.do_clear_bss_start>

0000027a <.do_clear_bss_loop>:
     27a:	1d 92       	st	X+, r1

0000027c <.do_clear_bss_start>:
     27c:	ad 34       	cpi	r26, 0x4D	; 77
     27e:	b2 07       	cpc	r27, r18
     280:	e1 f7       	brne	.-8      	; 0x27a <.do_clear_bss_loop>
     282:	0e 94 aa 08 	call	0x1154	; 0x1154 <main>
     286:	0c 94 04 26 	jmp	0x4c08	; 0x4c08 <_exit>

0000028a <__bad_interrupt>:
     28a:	0c 94 00 00 	jmp	0	; 0x0 <__vectors>

0000028e <read_AD590>:

	Output:
		Returns the temperature. -999.9 for invalid sensor value
------------------------------------------------------------------------------*/
uint8_t read_AD590(uint8_t sensor, float *temperature)
{
     28e:	8f 92       	push	r8
     290:	9f 92       	push	r9
     292:	af 92       	push	r10
     294:	bf 92       	push	r11
     296:	ef 92       	push	r14
     298:	ff 92       	push	r15
     29a:	0f 93       	push	r16
     29c:	1f 93       	push	r17
     29e:	cf 93       	push	r28
     2a0:	df 93       	push	r29
     2a2:	00 d0       	rcall	.+0      	; 0x2a4 <read_AD590+0x16>
     2a4:	00 d0       	rcall	.+0      	; 0x2a6 <read_AD590+0x18>
     2a6:	cd b7       	in	r28, 0x3d	; 61
     2a8:	de b7       	in	r29, 0x3e	; 62
     2aa:	7b 01       	movw	r14, r22

	uint8_t pins;
	float voltage, offset;

	offset = 0.0;
	switch (sensor) {		// Select the sensor(s) to turn on
     2ac:	81 30       	cpi	r24, 0x01	; 1
     2ae:	c9 f0       	breq	.+50     	; 0x2e2 <read_AD590+0x54>
     2b0:	18 f0       	brcs	.+6      	; 0x2b8 <read_AD590+0x2a>
     2b2:	82 30       	cpi	r24, 0x02	; 2
     2b4:	61 f0       	breq	.+24     	; 0x2ce <read_AD590+0x40>
     2b6:	10 c0       	rjmp	.+32     	; 0x2d8 <read_AD590+0x4a>
		case 0:
			pins = 0x01;	// t0
			offset = 7.6;
     2b8:	0f 2e       	mov	r0, r31
     2ba:	f3 e3       	ldi	r31, 0x33	; 51
     2bc:	8f 2e       	mov	r8, r31
     2be:	98 2c       	mov	r9, r8
     2c0:	f3 ef       	ldi	r31, 0xF3	; 243
     2c2:	af 2e       	mov	r10, r31
     2c4:	f0 e4       	ldi	r31, 0x40	; 64
     2c6:	bf 2e       	mov	r11, r31
     2c8:	f0 2d       	mov	r31, r0
	float voltage, offset;

	offset = 0.0;
	switch (sensor) {		// Select the sensor(s) to turn on
		case 0:
			pins = 0x01;	// t0
     2ca:	11 e0       	ldi	r17, 0x01	; 1
     2cc:	0e c0       	rjmp	.+28     	; 0x2ea <read_AD590+0x5c>
			pins = 0x04;	// t1
			offset = 0.0;
			break;
		case 2:
			pins = 0x10;	// t2
			offset = 0.0;
     2ce:	81 2c       	mov	r8, r1
     2d0:	91 2c       	mov	r9, r1
     2d2:	54 01       	movw	r10, r8
		case 1:
			pins = 0x04;	// t1
			offset = 0.0;
			break;
		case 2:
			pins = 0x10;	// t2
     2d4:	10 e1       	ldi	r17, 0x10	; 16
			offset = 0.0;
			break;
     2d6:	09 c0       	rjmp	.+18     	; 0x2ea <read_AD590+0x5c>
{

	uint8_t pins;
	float voltage, offset;

	offset = 0.0;
     2d8:	81 2c       	mov	r8, r1
     2da:	91 2c       	mov	r9, r1
     2dc:	54 01       	movw	r10, r8
		case 2:
			pins = 0x10;	// t2
			offset = 0.0;
			break;
		default:
			pins = 0x00;
     2de:	10 e0       	ldi	r17, 0x00	; 0
			break;
     2e0:	04 c0       	rjmp	.+8      	; 0x2ea <read_AD590+0x5c>
			pins = 0x01;	// t0
			offset = 7.6;
			break;
		case 1:
			pins = 0x04;	// t1
			offset = 0.0;
     2e2:	81 2c       	mov	r8, r1
     2e4:	91 2c       	mov	r9, r1
     2e6:	54 01       	movw	r10, r8
		case 0:
			pins = 0x01;	// t0
			offset = 7.6;
			break;
		case 1:
			pins = 0x04;	// t1
     2e8:	14 e0       	ldi	r17, 0x04	; 4
			pins = 0x00;
			break;
	}

	// Turn on the selected AD590 sensor
	write_MCP23008(AD590DRIVER, GPPU, 0x00);	// Disable pullups on input pins
     2ea:	40 e0       	ldi	r20, 0x00	; 0
     2ec:	66 e0       	ldi	r22, 0x06	; 6
     2ee:	87 e2       	ldi	r24, 0x27	; 39
     2f0:	0e 94 18 09 	call	0x1230	; 0x1230 <write_MCP23008>
	write_MCP23008(AD590DRIVER, IODIR, ~pins);	// Pins are inputs if the bit is high
     2f4:	41 2f       	mov	r20, r17
     2f6:	40 95       	com	r20
     2f8:	60 e0       	ldi	r22, 0x00	; 0
     2fa:	87 e2       	ldi	r24, 0x27	; 39
     2fc:	0e 94 18 09 	call	0x1230	; 0x1230 <write_MCP23008>
	write_MCP23008(AD590DRIVER, OLAT, pins);	// Set high the selected pins
     300:	41 2f       	mov	r20, r17
     302:	6a e0       	ldi	r22, 0x0A	; 10
     304:	87 e2       	ldi	r24, 0x27	; 39
     306:	0e 94 18 09 	call	0x1230	; 0x1230 <write_MCP23008>
	#else
		//round up by default
		__ticks_dc = (uint32_t)(ceil(fabs(__tmp)));
	#endif

	__builtin_avr_delay_cycles(__ticks_dc);
     30a:	86 e1       	ldi	r24, 0x16	; 22
     30c:	8a 95       	dec	r24
     30e:	f1 f7       	brne	.-4      	; 0x30c <read_AD590+0x7e>
     310:	00 00       	nop
	_delay_us(20);	// AD590 turn-on time

	// Use 0.512 volts range and 128 samples per second
	if (read_ADS1115(ADC_TE, PGA0512, AIN3, DR128, &voltage) == ERROR) {
     312:	8e 01       	movw	r16, r28
     314:	0f 5f       	subi	r16, 0xFF	; 255
     316:	1f 4f       	sbci	r17, 0xFF	; 255
     318:	20 e8       	ldi	r18, 0x80	; 128
     31a:	40 e7       	ldi	r20, 0x70	; 112
     31c:	68 e0       	ldi	r22, 0x08	; 8
     31e:	88 e4       	ldi	r24, 0x48	; 72
     320:	0e 94 c8 01 	call	0x390	; 0x390 <read_ADS1115>
     324:	83 36       	cpi	r24, 0x63	; 99
     326:	51 f4       	brne	.+20     	; 0x33c <read_AD590+0xae>
		*temperature = BADFLOAT;
     328:	40 e0       	ldi	r20, 0x00	; 0
     32a:	50 e8       	ldi	r21, 0x80	; 128
     32c:	66 e2       	ldi	r22, 0x26	; 38
     32e:	74 ec       	ldi	r23, 0xC4	; 196
     330:	f7 01       	movw	r30, r14
     332:	40 83       	st	Z, r20
     334:	51 83       	std	Z+1, r21	; 0x01
     336:	62 83       	std	Z+2, r22	; 0x02
     338:	73 83       	std	Z+3, r23	; 0x03
		return(ERROR);
     33a:	1c c0       	rjmp	.+56     	; 0x374 <read_AD590+0xe6>
	}
	*temperature = (AD590RESISTOR * voltage) - 273.15 + offset;	// Temperature & offset calibration
     33c:	20 e0       	ldi	r18, 0x00	; 0
     33e:	30 e0       	ldi	r19, 0x00	; 0
     340:	4a e7       	ldi	r20, 0x7A	; 122
     342:	54 e4       	ldi	r21, 0x44	; 68
     344:	69 81       	ldd	r22, Y+1	; 0x01
     346:	7a 81       	ldd	r23, Y+2	; 0x02
     348:	8b 81       	ldd	r24, Y+3	; 0x03
     34a:	9c 81       	ldd	r25, Y+4	; 0x04
     34c:	0e 94 24 1f 	call	0x3e48	; 0x3e48 <__mulsf3>
     350:	23 e3       	ldi	r18, 0x33	; 51
     352:	33 e9       	ldi	r19, 0x93	; 147
     354:	48 e8       	ldi	r20, 0x88	; 136
     356:	53 e4       	ldi	r21, 0x43	; 67
     358:	0e 94 89 1d 	call	0x3b12	; 0x3b12 <__subsf3>
     35c:	9b 01       	movw	r18, r22
     35e:	ac 01       	movw	r20, r24
     360:	c5 01       	movw	r24, r10
     362:	b4 01       	movw	r22, r8
     364:	0e 94 8a 1d 	call	0x3b14	; 0x3b14 <__addsf3>
     368:	f7 01       	movw	r30, r14
     36a:	60 83       	st	Z, r22
     36c:	71 83       	std	Z+1, r23	; 0x01
     36e:	82 83       	std	Z+2, r24	; 0x02
     370:	93 83       	std	Z+3, r25	; 0x03
	return(NOERROR);
     372:	80 e0       	ldi	r24, 0x00	; 0

}
     374:	24 96       	adiw	r28, 0x04	; 4
     376:	cd bf       	out	0x3d, r28	; 61
     378:	de bf       	out	0x3e, r29	; 62
     37a:	df 91       	pop	r29
     37c:	cf 91       	pop	r28
     37e:	1f 91       	pop	r17
     380:	0f 91       	pop	r16
     382:	ff 90       	pop	r15
     384:	ef 90       	pop	r14
     386:	bf 90       	pop	r11
     388:	af 90       	pop	r10
     38a:	9f 90       	pop	r9
     38c:	8f 90       	pop	r8
     38e:	08 95       	ret

00000390 <read_ADS1115>:
			default of 128 samples per second although we haven't explored
			any other options.
------------------------------------------------------------------------------*/
uint8_t read_ADS1115(uint8_t addr, uint8_t gain, uint8_t pins,
	uint8_t datarate, float *voltage)
{
     390:	8f 92       	push	r8
     392:	9f 92       	push	r9
     394:	af 92       	push	r10
     396:	bf 92       	push	r11
     398:	cf 92       	push	r12
     39a:	df 92       	push	r13
     39c:	ef 92       	push	r14
     39e:	ff 92       	push	r15
     3a0:	0f 93       	push	r16
     3a2:	1f 93       	push	r17
     3a4:	cf 93       	push	r28
     3a6:	df 93       	push	r29
     3a8:	f8 2e       	mov	r15, r24
     3aa:	e6 2e       	mov	r14, r22
     3ac:	68 01       	movw	r12, r16
	float scale;
	uint8_t confighi, configlo, flag;
	uint8_t converting, lowbyte, highbyte;

	// Write the CONFIG register
	confighi = 0b10000001 | gain | pins;
     3ae:	46 2b       	or	r20, r22
     3b0:	c4 2f       	mov	r28, r20
     3b2:	c1 68       	ori	r28, 0x81	; 129
	configlo = datarate | 0b00000011;				// Disable comparator
     3b4:	d2 2f       	mov	r29, r18
     3b6:	d3 60       	ori	r29, 0x03	; 3

	*voltage = BADFLOAT;
     3b8:	80 e0       	ldi	r24, 0x00	; 0
     3ba:	90 e8       	ldi	r25, 0x80	; 128
     3bc:	a6 e2       	ldi	r26, 0x26	; 38
     3be:	b4 ec       	ldi	r27, 0xC4	; 196
     3c0:	f8 01       	movw	r30, r16
     3c2:	80 83       	st	Z, r24
     3c4:	91 83       	std	Z+1, r25	; 0x01
     3c6:	a2 83       	std	Z+2, r26	; 0x02
     3c8:	b3 83       	std	Z+3, r27	; 0x03
	if (start_TWI(addr, TWIWRITE == ERROR)) {		// TWI start condition
     3ca:	60 e0       	ldi	r22, 0x00	; 0
     3cc:	8f 2d       	mov	r24, r15
     3ce:	0e 94 65 1a 	call	0x34ca	; 0x34ca <start_TWI>
     3d2:	08 2f       	mov	r16, r24
     3d4:	88 23       	and	r24, r24
     3d6:	21 f0       	breq	.+8      	; 0x3e0 <read_ADS1115+0x50>
		stop_TWI();
     3d8:	0e 94 b7 1a 	call	0x356e	; 0x356e <stop_TWI>
		return(ERROR);
     3dc:	13 e6       	ldi	r17, 0x63	; 99
     3de:	b4 c0       	rjmp	.+360    	; 0x548 <__LOCK_REGION_LENGTH__+0x148>
	}
	if ((write_TWI(ADS1115CONFIG) == ERROR)) {		// Write the CONFIG register
     3e0:	81 e0       	ldi	r24, 0x01	; 1
     3e2:	0e 94 bb 1a 	call	0x3576	; 0x3576 <write_TWI>
     3e6:	18 2f       	mov	r17, r24
     3e8:	83 36       	cpi	r24, 0x63	; 99
     3ea:	19 f4       	brne	.+6      	; 0x3f2 <read_ADS1115+0x62>
		stop_TWI();
     3ec:	0e 94 b7 1a 	call	0x356e	; 0x356e <stop_TWI>
		return(ERROR);
     3f0:	ab c0       	rjmp	.+342    	; 0x548 <__LOCK_REGION_LENGTH__+0x148>
	}
	if ((write_TWI(confighi) == ERROR)) {			// Write high byte
     3f2:	8c 2f       	mov	r24, r28
     3f4:	0e 94 bb 1a 	call	0x3576	; 0x3576 <write_TWI>
     3f8:	18 2f       	mov	r17, r24
     3fa:	83 36       	cpi	r24, 0x63	; 99
     3fc:	19 f4       	brne	.+6      	; 0x404 <__LOCK_REGION_LENGTH__+0x4>
		stop_TWI();
     3fe:	0e 94 b7 1a 	call	0x356e	; 0x356e <stop_TWI>
		return(ERROR);
     402:	a2 c0       	rjmp	.+324    	; 0x548 <__LOCK_REGION_LENGTH__+0x148>
	}
	if ((write_TWI(configlo) == ERROR)) {			// Write low byte
     404:	8d 2f       	mov	r24, r29
     406:	0e 94 bb 1a 	call	0x3576	; 0x3576 <write_TWI>
     40a:	18 2f       	mov	r17, r24
     40c:	83 36       	cpi	r24, 0x63	; 99
     40e:	19 f4       	brne	.+6      	; 0x416 <__LOCK_REGION_LENGTH__+0x16>
		stop_TWI();
     410:	0e 94 b7 1a 	call	0x356e	; 0x356e <stop_TWI>
		return(ERROR);
     414:	99 c0       	rjmp	.+306    	; 0x548 <__LOCK_REGION_LENGTH__+0x148>
	}
	stop_TWI();
     416:	0e 94 b7 1a 	call	0x356e	; 0x356e <stop_TWI>
     41a:	fc e1       	ldi	r31, 0x1C	; 28
     41c:	fa 95       	dec	r31
     41e:	f1 f7       	brne	.-4      	; 0x41c <__LOCK_REGION_LENGTH__+0x1c>

	_delay_us(25);									// Power-up time

	converting = YES;
     420:	c1 e0       	ldi	r28, 0x01	; 1
	while (converting) {							// Wait for conversion to finish
     422:	09 c0       	rjmp	.+18     	; 0x436 <__LOCK_REGION_LENGTH__+0x36>
		start_TWI(addr, TWIREAD);
     424:	61 e0       	ldi	r22, 0x01	; 1
     426:	8f 2d       	mov	r24, r15
     428:	0e 94 65 1a 	call	0x34ca	; 0x34ca <start_TWI>
		flag = readlast_TWI();
     42c:	0e 94 3e 1a 	call	0x347c	; 0x347c <readlast_TWI>
		if (flag & 0b10000000) {
     430:	88 23       	and	r24, r24
     432:	0c f4       	brge	.+2      	; 0x436 <__LOCK_REGION_LENGTH__+0x36>
			converting = NO;
     434:	c0 e0       	ldi	r28, 0x00	; 0
	stop_TWI();

	_delay_us(25);									// Power-up time

	converting = YES;
	while (converting) {							// Wait for conversion to finish
     436:	c1 11       	cpse	r28, r1
     438:	f5 cf       	rjmp	.-22     	; 0x424 <__LOCK_REGION_LENGTH__+0x24>
		flag = readlast_TWI();
		if (flag & 0b10000000) {
			converting = NO;
		}
	}
	stop_TWI();
     43a:	0e 94 b7 1a 	call	0x356e	; 0x356e <stop_TWI>

	start_TWI(addr, TWIWRITE);
     43e:	60 e0       	ldi	r22, 0x00	; 0
     440:	8f 2d       	mov	r24, r15
     442:	0e 94 65 1a 	call	0x34ca	; 0x34ca <start_TWI>
	write_TWI(ADS1115CONVERSION);					// Start the ADC conversion
     446:	80 e0       	ldi	r24, 0x00	; 0
     448:	0e 94 bb 1a 	call	0x3576	; 0x3576 <write_TWI>
	start_TWI(addr, TWIREAD);						// Read the data
     44c:	61 e0       	ldi	r22, 0x01	; 1
     44e:	8f 2d       	mov	r24, r15
     450:	0e 94 65 1a 	call	0x34ca	; 0x34ca <start_TWI>
	highbyte = read_TWI();
     454:	0e 94 14 1a 	call	0x3428	; 0x3428 <read_TWI>
     458:	c8 2f       	mov	r28, r24
	lowbyte = readlast_TWI();
     45a:	0e 94 3e 1a 	call	0x347c	; 0x347c <readlast_TWI>
     45e:	d8 2f       	mov	r29, r24
	stop_TWI();
     460:	0e 94 b7 1a 	call	0x356e	; 0x356e <stop_TWI>

	value = highbyte;
     464:	6c 2f       	mov	r22, r28
     466:	70 e0       	ldi	r23, 0x00	; 0
	value = value << 8;
     468:	76 2f       	mov	r23, r22
     46a:	66 27       	eor	r22, r22
	value |= lowbyte;
     46c:	6d 2b       	or	r22, r29

	switch (gain) {									// Convert to voltage
     46e:	84 e0       	ldi	r24, 0x04	; 4
     470:	e8 16       	cp	r14, r24
     472:	49 f1       	breq	.+82     	; 0x4c6 <__LOCK_REGION_LENGTH__+0xc6>
     474:	8e 15       	cp	r24, r14
     476:	30 f0       	brcs	.+12     	; 0x484 <__LOCK_REGION_LENGTH__+0x84>
     478:	ee 20       	and	r14, r14
     47a:	d9 f1       	breq	.+118    	; 0x4f2 <__LOCK_REGION_LENGTH__+0xf2>
     47c:	e2 e0       	ldi	r30, 0x02	; 2
     47e:	ee 16       	cp	r14, r30
     480:	69 f1       	breq	.+90     	; 0x4dc <__LOCK_REGION_LENGTH__+0xdc>
     482:	42 c0       	rjmp	.+132    	; 0x508 <__LOCK_REGION_LENGTH__+0x108>
     484:	f8 e0       	ldi	r31, 0x08	; 8
     486:	ef 16       	cp	r14, r31
     488:	09 f4       	brne	.+2      	; 0x48c <__LOCK_REGION_LENGTH__+0x8c>
     48a:	42 c0       	rjmp	.+132    	; 0x510 <__LOCK_REGION_LENGTH__+0x110>
     48c:	8a e0       	ldi	r24, 0x0A	; 10
     48e:	e8 16       	cp	r14, r24
     490:	21 f0       	breq	.+8      	; 0x49a <__LOCK_REGION_LENGTH__+0x9a>
     492:	e6 e0       	ldi	r30, 0x06	; 6
     494:	ee 12       	cpse	r14, r30
     496:	38 c0       	rjmp	.+112    	; 0x508 <__LOCK_REGION_LENGTH__+0x108>
     498:	0b c0       	rjmp	.+22     	; 0x4b0 <__LOCK_REGION_LENGTH__+0xb0>
		case PGA0256:
			scale = SCA0256;
     49a:	0f 2e       	mov	r0, r31
     49c:	f4 e7       	ldi	r31, 0x74	; 116
     49e:	8f 2e       	mov	r8, r31
     4a0:	f3 e1       	ldi	r31, 0x13	; 19
     4a2:	9f 2e       	mov	r9, r31
     4a4:	f3 e0       	ldi	r31, 0x03	; 3
     4a6:	af 2e       	mov	r10, r31
     4a8:	f7 e3       	ldi	r31, 0x37	; 55
     4aa:	bf 2e       	mov	r11, r31
     4ac:	f0 2d       	mov	r31, r0
     4ae:	3a c0       	rjmp	.+116    	; 0x524 <__LOCK_REGION_LENGTH__+0x124>
			break;
		case PGA0512:
			scale = SCA0512;
			break;
		case PGA1024:
			scale = SCA1024;
     4b0:	0f 2e       	mov	r0, r31
     4b2:	f4 e7       	ldi	r31, 0x74	; 116
     4b4:	8f 2e       	mov	r8, r31
     4b6:	f3 e1       	ldi	r31, 0x13	; 19
     4b8:	9f 2e       	mov	r9, r31
     4ba:	f3 e0       	ldi	r31, 0x03	; 3
     4bc:	af 2e       	mov	r10, r31
     4be:	f8 e3       	ldi	r31, 0x38	; 56
     4c0:	bf 2e       	mov	r11, r31
     4c2:	f0 2d       	mov	r31, r0
			break;
     4c4:	2f c0       	rjmp	.+94     	; 0x524 <__LOCK_REGION_LENGTH__+0x124>
		case PGA2048:
			scale = SCA2048;
     4c6:	0f 2e       	mov	r0, r31
     4c8:	f2 e1       	ldi	r31, 0x12	; 18
     4ca:	8f 2e       	mov	r8, r31
     4cc:	f3 e1       	ldi	r31, 0x13	; 19
     4ce:	9f 2e       	mov	r9, r31
     4d0:	f3 e8       	ldi	r31, 0x83	; 131
     4d2:	af 2e       	mov	r10, r31
     4d4:	f8 e3       	ldi	r31, 0x38	; 56
     4d6:	bf 2e       	mov	r11, r31
     4d8:	f0 2d       	mov	r31, r0
			break;
     4da:	24 c0       	rjmp	.+72     	; 0x524 <__LOCK_REGION_LENGTH__+0x124>
		case PGA4096:
			scale = SCA4096;
     4dc:	0f 2e       	mov	r0, r31
     4de:	f4 e7       	ldi	r31, 0x74	; 116
     4e0:	8f 2e       	mov	r8, r31
     4e2:	f3 e1       	ldi	r31, 0x13	; 19
     4e4:	9f 2e       	mov	r9, r31
     4e6:	f3 e0       	ldi	r31, 0x03	; 3
     4e8:	af 2e       	mov	r10, r31
     4ea:	f9 e3       	ldi	r31, 0x39	; 57
     4ec:	bf 2e       	mov	r11, r31
     4ee:	f0 2d       	mov	r31, r0
			break;
     4f0:	19 c0       	rjmp	.+50     	; 0x524 <__LOCK_REGION_LENGTH__+0x124>
		case PGA6144:
			scale = SCA6144;
     4f2:	0f 2e       	mov	r0, r31
     4f4:	fe e2       	ldi	r31, 0x2E	; 46
     4f6:	8f 2e       	mov	r8, r31
     4f8:	fd e9       	ldi	r31, 0x9D	; 157
     4fa:	9f 2e       	mov	r9, r31
     4fc:	f4 e4       	ldi	r31, 0x44	; 68
     4fe:	af 2e       	mov	r10, r31
     500:	f9 e3       	ldi	r31, 0x39	; 57
     502:	bf 2e       	mov	r11, r31
     504:	f0 2d       	mov	r31, r0
			break;
     506:	0e c0       	rjmp	.+28     	; 0x524 <__LOCK_REGION_LENGTH__+0x124>
		default:
			scale = 0.0;
     508:	81 2c       	mov	r8, r1
     50a:	91 2c       	mov	r9, r1
     50c:	54 01       	movw	r10, r8
			break;
     50e:	0a c0       	rjmp	.+20     	; 0x524 <__LOCK_REGION_LENGTH__+0x124>
	switch (gain) {									// Convert to voltage
		case PGA0256:
			scale = SCA0256;
			break;
		case PGA0512:
			scale = SCA0512;
     510:	0f 2e       	mov	r0, r31
     512:	f1 e7       	ldi	r31, 0x71	; 113
     514:	8f 2e       	mov	r8, r31
     516:	f3 e1       	ldi	r31, 0x13	; 19
     518:	9f 2e       	mov	r9, r31
     51a:	f3 e8       	ldi	r31, 0x83	; 131
     51c:	af 2e       	mov	r10, r31
     51e:	f7 e3       	ldi	r31, 0x37	; 55
     520:	bf 2e       	mov	r11, r31
     522:	f0 2d       	mov	r31, r0
		default:
			scale = 0.0;
			break;
	}

	*voltage = scale * (float) value;
     524:	07 2e       	mov	r0, r23
     526:	00 0c       	add	r0, r0
     528:	88 0b       	sbc	r24, r24
     52a:	99 0b       	sbc	r25, r25
     52c:	0e 94 6f 1e 	call	0x3cde	; 0x3cde <__floatsisf>
     530:	9b 01       	movw	r18, r22
     532:	ac 01       	movw	r20, r24
     534:	c5 01       	movw	r24, r10
     536:	b4 01       	movw	r22, r8
     538:	0e 94 24 1f 	call	0x3e48	; 0x3e48 <__mulsf3>
     53c:	f6 01       	movw	r30, r12
     53e:	60 83       	st	Z, r22
     540:	71 83       	std	Z+1, r23	; 0x01
     542:	82 83       	std	Z+2, r24	; 0x02
     544:	93 83       	std	Z+3, r25	; 0x03
	return(NOERROR);
     546:	10 2f       	mov	r17, r16

}
     548:	81 2f       	mov	r24, r17
     54a:	df 91       	pop	r29
     54c:	cf 91       	pop	r28
     54e:	1f 91       	pop	r17
     550:	0f 91       	pop	r16
     552:	ff 90       	pop	r15
     554:	ef 90       	pop	r14
     556:	df 90       	pop	r13
     558:	cf 90       	pop	r12
     55a:	bf 90       	pop	r11
     55c:	af 90       	pop	r10
     55e:	9f 90       	pop	r9
     560:	8f 90       	pop	r8
     562:	08 95       	ret

00000564 <get_cmdline>:
	if ((d >= '0') && (d <= '9')) {
		return(ERROR);
	}
	return(NOERROR);

}
     564:	cf 93       	push	r28
     566:	df 93       	push	r29
     568:	9c 01       	movw	r18, r24
     56a:	40 e0       	ldi	r20, 0x00	; 0
     56c:	1c c0       	rjmp	.+56     	; 0x5a6 <get_cmdline+0x42>
     56e:	c8 e3       	ldi	r28, 0x38	; 56
     570:	dc e2       	ldi	r29, 0x2C	; 44
     572:	e8 81       	ld	r30, Y
     574:	f0 e0       	ldi	r31, 0x00	; 0
     576:	e7 5c       	subi	r30, 0xC7	; 199
     578:	f4 4d       	sbci	r31, 0xD4	; 212
     57a:	80 81       	ld	r24, Z
     57c:	f9 01       	movw	r30, r18
     57e:	e4 0f       	add	r30, r20
     580:	f1 1d       	adc	r31, r1
     582:	80 83       	st	Z, r24
     584:	aa e3       	ldi	r26, 0x3A	; 58
     586:	bc e2       	ldi	r27, 0x2C	; 44
     588:	8c 91       	ld	r24, X
     58a:	81 50       	subi	r24, 0x01	; 1
     58c:	8c 93       	st	X, r24
     58e:	88 81       	ld	r24, Y
     590:	90 e0       	ldi	r25, 0x00	; 0
     592:	01 96       	adiw	r24, 0x01	; 1
     594:	6e ef       	ldi	r22, 0xFE	; 254
     596:	70 e0       	ldi	r23, 0x00	; 0
     598:	0e 94 0e 23 	call	0x461c	; 0x461c <__divmodhi4>
     59c:	88 83       	st	Y, r24
     59e:	80 81       	ld	r24, Z
     5a0:	88 23       	and	r24, r24
     5a2:	29 f0       	breq	.+10     	; 0x5ae <get_cmdline+0x4a>
     5a4:	4f 5f       	subi	r20, 0xFF	; 255
     5a6:	80 91 3a 2c 	lds	r24, 0x2C3A	; 0x802c3a <recv0_buf+0x101>
     5aa:	81 11       	cpse	r24, r1
     5ac:	e0 cf       	rjmp	.-64     	; 0x56e <get_cmdline+0xa>
     5ae:	f9 01       	movw	r30, r18
     5b0:	e4 0f       	add	r30, r20
     5b2:	f1 1d       	adc	r31, r1
     5b4:	10 82       	st	Z, r1
     5b6:	df 91       	pop	r29
     5b8:	cf 91       	pop	r28
     5ba:	08 95       	ret

000005bc <isaletter>:
	Checks if the character is in the range A-Z and a-z
------------------------------------------------------------------------------*/
uint8_t isaletter(char c)
{

	if ((c >= 'a' && c <= 'z') || (c >= 'A' && c <= 'Z')) {
     5bc:	9f e9       	ldi	r25, 0x9F	; 159
     5be:	98 0f       	add	r25, r24
     5c0:	9a 31       	cpi	r25, 0x1A	; 26
     5c2:	28 f0       	brcs	.+10     	; 0x5ce <isaletter+0x12>
     5c4:	81 54       	subi	r24, 0x41	; 65
     5c6:	8a 31       	cpi	r24, 0x1A	; 26
     5c8:	20 f4       	brcc	.+8      	; 0x5d2 <isaletter+0x16>
		return(ERROR);
     5ca:	83 e6       	ldi	r24, 0x63	; 99
     5cc:	08 95       	ret
     5ce:	83 e6       	ldi	r24, 0x63	; 99
     5d0:	08 95       	ret
	}
	return(NOERROR);
     5d2:	80 e0       	ldi	r24, 0x00	; 0

}
     5d4:	08 95       	ret

000005d6 <parse_cmd>:
		ID - An identifier selected by the user, a character string.
	These components are in the ParsedCMD structure defined in main.c. The pcmd
	variable is a ParsedCMD array.
------------------------------------------------------------------------------*/
void parse_cmd(char *ptr, uint8_t n)
{
     5d6:	ef 92       	push	r14
     5d8:	ff 92       	push	r15
     5da:	1f 93       	push	r17
     5dc:	cf 93       	push	r28
     5de:	df 93       	push	r29
     5e0:	ec 01       	movw	r28, r24

	uint8_t i;

		// Clear the command parts
	pcmd[n].cverb = '?';
     5e2:	e6 2e       	mov	r14, r22
     5e4:	f1 2c       	mov	r15, r1
     5e6:	84 e3       	ldi	r24, 0x34	; 52
     5e8:	8e 9d       	mul	r24, r14
     5ea:	f0 01       	movw	r30, r0
     5ec:	8f 9d       	mul	r24, r15
     5ee:	f0 0d       	add	r31, r0
     5f0:	11 24       	eor	r1, r1
     5f2:	ed 5f       	subi	r30, 0xFD	; 253
     5f4:	f7 4d       	sbci	r31, 0xD7	; 215
     5f6:	8f e3       	ldi	r24, 0x3F	; 63
     5f8:	80 83       	st	Z, r24
	pcmd[n].cobject = '?';
     5fa:	81 83       	std	Z+1, r24	; 0x01
	pcmd[n].cvalue[0] = '\0';
     5fc:	12 82       	std	Z+2, r1	; 0x02
	pcmd[n].cid[0] = '\0';
     5fe:	13 a6       	std	Z+43, r1	; 0x2b

		// Find the verb
	while (!isaletter(*ptr)) {		// the verb is a single letter
     600:	04 c0       	rjmp	.+8      	; 0x60a <parse_cmd+0x34>
		if (*ptr == '\0') {
     602:	11 23       	and	r17, r17
     604:	09 f4       	brne	.+2      	; 0x608 <parse_cmd+0x32>
     606:	75 c0       	rjmp	.+234    	; 0x6f2 <parse_cmd+0x11c>
			return;
		}
		ptr++;
     608:	21 96       	adiw	r28, 0x01	; 1
	pcmd[n].cobject = '?';
	pcmd[n].cvalue[0] = '\0';
	pcmd[n].cid[0] = '\0';

		// Find the verb
	while (!isaletter(*ptr)) {		// the verb is a single letter
     60a:	18 81       	ld	r17, Y
     60c:	81 2f       	mov	r24, r17
     60e:	0e 94 de 02 	call	0x5bc	; 0x5bc <isaletter>
     612:	88 23       	and	r24, r24
     614:	b1 f3       	breq	.-20     	; 0x602 <parse_cmd+0x2c>
		if (*ptr == '\0') {
			return;
		}
		ptr++;
	}
	pcmd[n].cverb = *ptr++;
     616:	21 96       	adiw	r28, 0x01	; 1
     618:	84 e3       	ldi	r24, 0x34	; 52
     61a:	8e 9d       	mul	r24, r14
     61c:	f0 01       	movw	r30, r0
     61e:	8f 9d       	mul	r24, r15
     620:	f0 0d       	add	r31, r0
     622:	11 24       	eor	r1, r1
     624:	ed 5f       	subi	r30, 0xFD	; 253
     626:	f7 4d       	sbci	r31, 0xD7	; 215
     628:	10 83       	st	Z, r17

		// Find the object
	while (!isaletter(*ptr)) {		// objects are single letters
     62a:	04 c0       	rjmp	.+8      	; 0x634 <parse_cmd+0x5e>
		if (*ptr == '\0') {
     62c:	11 23       	and	r17, r17
     62e:	09 f4       	brne	.+2      	; 0x632 <parse_cmd+0x5c>
     630:	60 c0       	rjmp	.+192    	; 0x6f2 <parse_cmd+0x11c>
			return;
		}
		ptr++;
     632:	21 96       	adiw	r28, 0x01	; 1
		ptr++;
	}
	pcmd[n].cverb = *ptr++;

		// Find the object
	while (!isaletter(*ptr)) {		// objects are single letters
     634:	18 81       	ld	r17, Y
     636:	81 2f       	mov	r24, r17
     638:	0e 94 de 02 	call	0x5bc	; 0x5bc <isaletter>
     63c:	88 23       	and	r24, r24
     63e:	b1 f3       	breq	.-20     	; 0x62c <parse_cmd+0x56>
		if (*ptr == '\0') {
			return;
		}
		ptr++;
	}
	pcmd[n].cobject = *ptr++;
     640:	21 96       	adiw	r28, 0x01	; 1
     642:	84 e3       	ldi	r24, 0x34	; 52
     644:	8e 9d       	mul	r24, r14
     646:	f0 01       	movw	r30, r0
     648:	8f 9d       	mul	r24, r15
     64a:	f0 0d       	add	r31, r0
     64c:	11 24       	eor	r1, r1
     64e:	ed 5f       	subi	r30, 0xFD	; 253
     650:	f7 4d       	sbci	r31, 0xD7	; 215
     652:	11 83       	std	Z+1, r17	; 0x01

		// Get the value, if there is one
	for (i = 0; i < CVALUESIZE; i++) {
     654:	80 e0       	ldi	r24, 0x00	; 0
     656:	2a c0       	rjmp	.+84     	; 0x6ac <parse_cmd+0xd6>
		if (*ptr == '\0') {
     658:	98 81       	ld	r25, Y
     65a:	91 11       	cpse	r25, r1
     65c:	0c c0       	rjmp	.+24     	; 0x676 <parse_cmd+0xa0>
			pcmd[n].cvalue[i] = '\0';
     65e:	94 e3       	ldi	r25, 0x34	; 52
     660:	9e 9d       	mul	r25, r14
     662:	f0 01       	movw	r30, r0
     664:	9f 9d       	mul	r25, r15
     666:	f0 0d       	add	r31, r0
     668:	11 24       	eor	r1, r1
     66a:	ed 5f       	subi	r30, 0xFD	; 253
     66c:	f7 4d       	sbci	r31, 0xD7	; 215
     66e:	e8 0f       	add	r30, r24
     670:	f1 1d       	adc	r31, r1
     672:	12 82       	std	Z+2, r1	; 0x02
			return;
     674:	3e c0       	rjmp	.+124    	; 0x6f2 <parse_cmd+0x11c>
		}
		if (*ptr == ';') {			// Command ID separator
     676:	9b 33       	cpi	r25, 0x3B	; 59
     678:	61 f4       	brne	.+24     	; 0x692 <parse_cmd+0xbc>
			pcmd[n].cvalue[i] = '\0';
     67a:	94 e3       	ldi	r25, 0x34	; 52
     67c:	9e 9d       	mul	r25, r14
     67e:	f0 01       	movw	r30, r0
     680:	9f 9d       	mul	r25, r15
     682:	f0 0d       	add	r31, r0
     684:	11 24       	eor	r1, r1
     686:	ed 5f       	subi	r30, 0xFD	; 253
     688:	f7 4d       	sbci	r31, 0xD7	; 215
     68a:	e8 0f       	add	r30, r24
     68c:	f1 1d       	adc	r31, r1
     68e:	12 82       	std	Z+2, r1	; 0x02
			break;
     690:	0f c0       	rjmp	.+30     	; 0x6b0 <parse_cmd+0xda>
		}
		pcmd[n].cvalue[i] = *ptr++;
     692:	21 96       	adiw	r28, 0x01	; 1
     694:	24 e3       	ldi	r18, 0x34	; 52
     696:	2e 9d       	mul	r18, r14
     698:	f0 01       	movw	r30, r0
     69a:	2f 9d       	mul	r18, r15
     69c:	f0 0d       	add	r31, r0
     69e:	11 24       	eor	r1, r1
     6a0:	ed 5f       	subi	r30, 0xFD	; 253
     6a2:	f7 4d       	sbci	r31, 0xD7	; 215
     6a4:	e8 0f       	add	r30, r24
     6a6:	f1 1d       	adc	r31, r1
     6a8:	92 83       	std	Z+2, r25	; 0x02
		ptr++;
	}
	pcmd[n].cobject = *ptr++;

		// Get the value, if there is one
	for (i = 0; i < CVALUESIZE; i++) {
     6aa:	8f 5f       	subi	r24, 0xFF	; 255
     6ac:	89 32       	cpi	r24, 0x29	; 41
     6ae:	a0 f2       	brcs	.-88     	; 0x658 <parse_cmd+0x82>
		}
		pcmd[n].cvalue[i] = *ptr++;
	}

		// get the optional command ID if there is one
	ptr++;
     6b0:	21 96       	adiw	r28, 0x01	; 1
	for (i = 0; i < CIDSIZE; i++) {
     6b2:	80 e0       	ldi	r24, 0x00	; 0
     6b4:	1c c0       	rjmp	.+56     	; 0x6ee <parse_cmd+0x118>
		if (*ptr == '\0') {
     6b6:	98 81       	ld	r25, Y
     6b8:	91 11       	cpse	r25, r1
     6ba:	0c c0       	rjmp	.+24     	; 0x6d4 <parse_cmd+0xfe>
			pcmd[n].cid[i] = '\0';
     6bc:	94 e3       	ldi	r25, 0x34	; 52
     6be:	9e 9d       	mul	r25, r14
     6c0:	f0 01       	movw	r30, r0
     6c2:	9f 9d       	mul	r25, r15
     6c4:	f0 0d       	add	r31, r0
     6c6:	11 24       	eor	r1, r1
     6c8:	ed 5f       	subi	r30, 0xFD	; 253
     6ca:	f7 4d       	sbci	r31, 0xD7	; 215
     6cc:	e8 0f       	add	r30, r24
     6ce:	f1 1d       	adc	r31, r1
     6d0:	13 a6       	std	Z+43, r1	; 0x2b
			return;
     6d2:	0f c0       	rjmp	.+30     	; 0x6f2 <parse_cmd+0x11c>
		}
		pcmd[n].cid[i] = *ptr++;
     6d4:	21 96       	adiw	r28, 0x01	; 1
     6d6:	24 e3       	ldi	r18, 0x34	; 52
     6d8:	2e 9d       	mul	r18, r14
     6da:	f0 01       	movw	r30, r0
     6dc:	2f 9d       	mul	r18, r15
     6de:	f0 0d       	add	r31, r0
     6e0:	11 24       	eor	r1, r1
     6e2:	ed 5f       	subi	r30, 0xFD	; 253
     6e4:	f7 4d       	sbci	r31, 0xD7	; 215
     6e6:	e8 0f       	add	r30, r24
     6e8:	f1 1d       	adc	r31, r1
     6ea:	93 a7       	std	Z+43, r25	; 0x2b
		pcmd[n].cvalue[i] = *ptr++;
	}

		// get the optional command ID if there is one
	ptr++;
	for (i = 0; i < CIDSIZE; i++) {
     6ec:	8f 5f       	subi	r24, 0xFF	; 255
     6ee:	89 30       	cpi	r24, 0x09	; 9
     6f0:	10 f3       	brcs	.-60     	; 0x6b6 <parse_cmd+0xe0>
		pcmd[n].cid[i] = *ptr++;
	}	

	return;

}
     6f2:	df 91       	pop	r29
     6f4:	cf 91       	pop	r28
     6f6:	1f 91       	pop	r17
     6f8:	ff 90       	pop	r15
     6fa:	ef 90       	pop	r14
     6fc:	08 95       	ret

000006fe <printLine>:
		been run and the system has received a reboot acknowledge (the !). This
		is done to prevent unsolicited text being sent (error messages) at
		initialization or after a reboot.
------------------------------------------------------------------------------*/
void printLine(char *str)
{
     6fe:	0f 93       	push	r16
     700:	1f 93       	push	r17
     702:	cf 93       	push	r28
     704:	df 93       	push	r29
     706:	cd b7       	in	r28, 0x3d	; 61
     708:	de b7       	in	r29, 0x3e	; 62
     70a:	c5 50       	subi	r28, 0x05	; 5
     70c:	d1 40       	sbci	r29, 0x01	; 1
     70e:	cd bf       	out	0x3d, r28	; 61
     710:	de bf       	out	0x3e, r29	; 62

	char strbuf[BUFSIZE];
	const char prFormat[] = "$S%d%s";
     712:	27 e0       	ldi	r18, 0x07	; 7
     714:	e2 e1       	ldi	r30, 0x12	; 18
     716:	fc e8       	ldi	r31, 0x8C	; 140
     718:	de 01       	movw	r26, r28
     71a:	a1 50       	subi	r26, 0x01	; 1
     71c:	bf 4f       	sbci	r27, 0xFF	; 255
     71e:	01 90       	ld	r0, Z+
     720:	0d 92       	st	X+, r0
     722:	2a 95       	dec	r18
     724:	e1 f7       	brne	.-8      	; 0x71e <printLine+0x20>

	if (firstpass) {
     726:	20 91 0b 2a 	lds	r18, 0x2A0B	; 0x802a0b <firstpass>
     72a:	21 11       	cpse	r18, r1
     72c:	2a c0       	rjmp	.+84     	; 0x782 <printLine+0x84>
		return;
	}

	sprintf(strbuf, prFormat, get_SPECID, str);
     72e:	20 91 a8 04 	lds	r18, 0x04A8	; 0x8004a8 <__TEXT_REGION_LENGTH__+0x7f44a8>
     732:	22 ff       	sbrs	r18, 2
     734:	03 c0       	rjmp	.+6      	; 0x73c <printLine+0x3e>
     736:	22 e0       	ldi	r18, 0x02	; 2
     738:	30 e0       	ldi	r19, 0x00	; 0
     73a:	02 c0       	rjmp	.+4      	; 0x740 <printLine+0x42>
     73c:	21 e0       	ldi	r18, 0x01	; 1
     73e:	30 e0       	ldi	r19, 0x00	; 0
     740:	9f 93       	push	r25
     742:	8f 93       	push	r24
     744:	3f 93       	push	r19
     746:	2f 93       	push	r18
     748:	ce 01       	movw	r24, r28
     74a:	81 50       	subi	r24, 0x01	; 1
     74c:	9f 4f       	sbci	r25, 0xFF	; 255
     74e:	9f 93       	push	r25
     750:	8f 93       	push	r24
     752:	8e 01       	movw	r16, r28
     754:	0f 5f       	subi	r16, 0xFF	; 255
     756:	1f 4f       	sbci	r17, 0xFF	; 255
     758:	1f 93       	push	r17
     75a:	0f 93       	push	r16
     75c:	0e 94 40 25 	call	0x4a80	; 0x4a80 <sprintf>
	checksum_NMEA(strbuf);
     760:	c8 01       	movw	r24, r16
     762:	0e 94 e5 0a 	call	0x15ca	; 0x15ca <checksum_NMEA>
	send_USART(0, (uint8_t*) strbuf, strlen(strbuf));
     766:	f8 01       	movw	r30, r16
     768:	01 90       	ld	r0, Z+
     76a:	00 20       	and	r0, r0
     76c:	e9 f7       	brne	.-6      	; 0x768 <printLine+0x6a>
     76e:	31 97       	sbiw	r30, 0x01	; 1
     770:	af 01       	movw	r20, r30
     772:	40 1b       	sub	r20, r16
     774:	51 0b       	sbc	r21, r17
     776:	b8 01       	movw	r22, r16
     778:	80 e0       	ldi	r24, 0x00	; 0
     77a:	0e 94 66 1b 	call	0x36cc	; 0x36cc <send_USART>
     77e:	cd bf       	out	0x3d, r28	; 61
     780:	de bf       	out	0x3e, r29	; 62

}
     782:	cb 5f       	subi	r28, 0xFB	; 251
     784:	de 4f       	sbci	r29, 0xFE	; 254
     786:	cd bf       	out	0x3d, r28	; 61
     788:	de bf       	out	0x3e, r29	; 62
     78a:	df 91       	pop	r29
     78c:	cf 91       	pop	r28
     78e:	1f 91       	pop	r17
     790:	0f 91       	pop	r16
     792:	08 95       	ret

00000794 <echo_cmd>:
/*------------------------------------------------------------------------------
void echo_cmd(char *cmdline)
	Echo the command line back to the user, adding NMEA header and checksum.
------------------------------------------------------------------------------*/
void echo_cmd(char *cmdline)
{
     794:	cf 92       	push	r12
     796:	df 92       	push	r13
     798:	ef 92       	push	r14
     79a:	ff 92       	push	r15
     79c:	0f 93       	push	r16
     79e:	1f 93       	push	r17
     7a0:	cf 93       	push	r28
     7a2:	df 93       	push	r29
     7a4:	cd b7       	in	r28, 0x3d	; 61
     7a6:	de b7       	in	r29, 0x3e	; 62
     7a8:	cc 51       	subi	r28, 0x1C	; 28
     7aa:	d1 40       	sbci	r29, 0x01	; 1
     7ac:	cd bf       	out	0x3d, r28	; 61
     7ae:	de bf       	out	0x3e, r29	; 62
     7b0:	d8 2e       	mov	r13, r24
     7b2:	c9 2e       	mov	r12, r25

	const char format_CMD[] = "CMD,%s,%s";
     7b4:	8a e0       	ldi	r24, 0x0A	; 10
     7b6:	e9 e1       	ldi	r30, 0x19	; 25
     7b8:	fc e8       	ldi	r31, 0x8C	; 140
     7ba:	9e 01       	movw	r18, r28
     7bc:	2f 5f       	subi	r18, 0xFF	; 255
     7be:	3f 4f       	sbci	r19, 0xFF	; 255
     7c0:	79 01       	movw	r14, r18
     7c2:	d9 01       	movw	r26, r18
     7c4:	01 90       	ld	r0, Z+
     7c6:	0d 92       	st	X+, r0
     7c8:	8a 95       	dec	r24
     7ca:	e1 f7       	brne	.-8      	; 0x7c4 <echo_cmd+0x30>
	char currenttime[20], strbuf[BUFSIZE];

	get_time(currenttime);
     7cc:	8e 01       	movw	r16, r28
     7ce:	05 5f       	subi	r16, 0xF5	; 245
     7d0:	1f 4f       	sbci	r17, 0xFF	; 255
     7d2:	c8 01       	movw	r24, r16
     7d4:	0e 94 bf 05 	call	0xb7e	; 0xb7e <get_time>
	sprintf(strbuf, format_CMD, currenttime, cmdline);
     7d8:	cf 92       	push	r12
     7da:	df 92       	push	r13
     7dc:	1f 93       	push	r17
     7de:	0f 93       	push	r16
     7e0:	ff 92       	push	r15
     7e2:	ef 92       	push	r14
     7e4:	0c 5e       	subi	r16, 0xEC	; 236
     7e6:	1f 4f       	sbci	r17, 0xFF	; 255
     7e8:	1f 93       	push	r17
     7ea:	0f 93       	push	r16
     7ec:	0e 94 40 25 	call	0x4a80	; 0x4a80 <sprintf>
	printLine(strbuf);
     7f0:	c8 01       	movw	r24, r16
     7f2:	0e 94 7f 03 	call	0x6fe	; 0x6fe <printLine>

}
     7f6:	cd bf       	out	0x3d, r28	; 61
     7f8:	de bf       	out	0x3e, r29	; 62
     7fa:	c4 5e       	subi	r28, 0xE4	; 228
     7fc:	de 4f       	sbci	r29, 0xFE	; 254
     7fe:	cd bf       	out	0x3d, r28	; 61
     800:	de bf       	out	0x3e, r29	; 62
     802:	df 91       	pop	r29
     804:	cf 91       	pop	r28
     806:	1f 91       	pop	r17
     808:	0f 91       	pop	r16
     80a:	ff 90       	pop	r15
     80c:	ef 90       	pop	r14
     80e:	df 90       	pop	r13
     810:	cf 90       	pop	r12
     812:	08 95       	ret

00000814 <send_EXprompt>:
/*------------------------------------------------------------------------------
void send_EXprompt(void)
	Sends an exclamation mark on USART port 0
------------------------------------------------------------------------------*/
void send_EXprompt(void)
{
     814:	cf 93       	push	r28
     816:	df 93       	push	r29
     818:	00 d0       	rcall	.+0      	; 0x81a <send_EXprompt+0x6>
     81a:	cd b7       	in	r28, 0x3d	; 61
     81c:	de b7       	in	r29, 0x3e	; 62

	const char str[] = "!";
     81e:	81 e2       	ldi	r24, 0x21	; 33
     820:	90 e0       	ldi	r25, 0x00	; 0
     822:	89 83       	std	Y+1, r24	; 0x01
     824:	9a 83       	std	Y+2, r25	; 0x02

	send_USART(0, (uint8_t*) str, 1);
     826:	41 e0       	ldi	r20, 0x01	; 1
     828:	be 01       	movw	r22, r28
     82a:	6f 5f       	subi	r22, 0xFF	; 255
     82c:	7f 4f       	sbci	r23, 0xFF	; 255
     82e:	80 e0       	ldi	r24, 0x00	; 0
     830:	0e 94 66 1b 	call	0x36cc	; 0x36cc <send_USART>

}
     834:	0f 90       	pop	r0
     836:	0f 90       	pop	r0
     838:	df 91       	pop	r29
     83a:	cf 91       	pop	r28
     83c:	08 95       	ret

0000083e <rebootACKd>:
	Returns:
		YES if the reboot acknowledge string was received
		NO if it wasn't
------------------------------------------------------------------------------*/
uint8_t rebootACKd(char *cmdline)
{
     83e:	cf 93       	push	r28

	if (!rebootackd) {
     840:	c0 91 02 28 	lds	r28, 0x2802	; 0x802802 <rebootackd>
     844:	c1 11       	cpse	r28, r1
     846:	21 c0       	rjmp	.+66     	; 0x88a <rebootACKd+0x4c>
     848:	fc 01       	movw	r30, r24
		if ((cmdline[0] == '!') && (cmdline[1] == '\0')) {
     84a:	80 81       	ld	r24, Z
     84c:	81 32       	cpi	r24, 0x21	; 33
     84e:	91 f4       	brne	.+36     	; 0x874 <rebootACKd+0x36>
     850:	91 81       	ldd	r25, Z+1	; 0x01
     852:	91 11       	cpse	r25, r1
     854:	0f c0       	rjmp	.+30     	; 0x874 <rebootACKd+0x36>
			init_RTC(511);		// 1-sec RTC clock ticks
     856:	8f ef       	ldi	r24, 0xFF	; 255
     858:	91 e0       	ldi	r25, 0x01	; 1
     85a:	0e 94 cb 18 	call	0x3196	; 0x3196 <init_RTC>
			timeoutOLED = 5;	// 5-sec display timeout (minimum)
     85e:	85 e0       	ldi	r24, 0x05	; 5
     860:	90 e0       	ldi	r25, 0x00	; 0
     862:	80 93 0e 2a 	sts	0x2A0E, r24	; 0x802a0e <timeoutOLED>
     866:	90 93 0f 2a 	sts	0x2A0F, r25	; 0x802a0f <timeoutOLED+0x1>
			rebootackd = YES;
     86a:	81 e0       	ldi	r24, 0x01	; 1
     86c:	80 93 02 28 	sts	0x2802, r24	; 0x802802 <rebootackd>
			return(YES);
     870:	c1 e0       	ldi	r28, 0x01	; 1
     872:	0c c0       	rjmp	.+24     	; 0x88c <rebootACKd+0x4e>
		} else if ((cmdline[0] == '!') && (cmdline[1] != '\0')) {
     874:	81 32       	cpi	r24, 0x21	; 33
     876:	31 f4       	brne	.+12     	; 0x884 <rebootACKd+0x46>
     878:	81 81       	ldd	r24, Z+1	; 0x01
     87a:	88 23       	and	r24, r24
     87c:	19 f0       	breq	.+6      	; 0x884 <rebootACKd+0x46>
			reboot();
     87e:	0e 94 58 1d 	call	0x3ab0	; 0x3ab0 <reboot>
			return(NO);
     882:	04 c0       	rjmp	.+8      	; 0x88c <rebootACKd+0x4e>
		} else {
			send_EXprompt();
     884:	0e 94 0a 04 	call	0x814	; 0x814 <send_EXprompt>
//			send_prompt('!');
			return(NO);
     888:	01 c0       	rjmp	.+2      	; 0x88c <rebootACKd+0x4e>
		}
	}

	return(YES);
     88a:	c1 e0       	ldi	r28, 0x01	; 1

}
     88c:	8c 2f       	mov	r24, r28
     88e:	cf 91       	pop	r28
     890:	08 95       	ret

00000892 <send_GTprompt>:
/*------------------------------------------------------------------------------
void send_GTprompt(void)
	Sends a greater than (>) on USART port 0
------------------------------------------------------------------------------*/
void send_GTprompt(void)
{
     892:	cf 93       	push	r28
     894:	df 93       	push	r29
     896:	00 d0       	rcall	.+0      	; 0x898 <send_GTprompt+0x6>
     898:	cd b7       	in	r28, 0x3d	; 61
     89a:	de b7       	in	r29, 0x3e	; 62

	const char str[] = ">";
     89c:	8e e3       	ldi	r24, 0x3E	; 62
     89e:	90 e0       	ldi	r25, 0x00	; 0
     8a0:	89 83       	std	Y+1, r24	; 0x01
     8a2:	9a 83       	std	Y+2, r25	; 0x02

	send_USART(0, (uint8_t*) str, 1);
     8a4:	41 e0       	ldi	r20, 0x01	; 1
     8a6:	be 01       	movw	r22, r28
     8a8:	6f 5f       	subi	r22, 0xFF	; 255
     8aa:	7f 4f       	sbci	r23, 0xFF	; 255
     8ac:	80 e0       	ldi	r24, 0x00	; 0
     8ae:	0e 94 66 1b 	call	0x36cc	; 0x36cc <send_USART>

}
     8b2:	0f 90       	pop	r0
     8b4:	0f 90       	pop	r0
     8b6:	df 91       	pop	r29
     8b8:	cf 91       	pop	r28
     8ba:	08 95       	ret

000008bc <commands>:
/*------------------------------------------------------------------------------
void commands(void)
	Command loop
------------------------------------------------------------------------------*/
void commands(void)
{
     8bc:	cf 93       	push	r28
     8be:	df 93       	push	r29
     8c0:	cd b7       	in	r28, 0x3d	; 61
     8c2:	de b7       	in	r29, 0x3e	; 62
     8c4:	cf 5f       	subi	r28, 0xFF	; 255
     8c6:	d1 09       	sbc	r29, r1
     8c8:	cd bf       	out	0x3d, r28	; 61
     8ca:	de bf       	out	0x3e, r29	; 62

	char cmdline[BUFSIZE+1];		// BUFSIZE is the size of the ring buffer
	static uint8_t cstack = 0;		// pcmd index

	get_cmdline(cmdline);
     8cc:	ce 01       	movw	r24, r28
     8ce:	01 96       	adiw	r24, 0x01	; 1
     8d0:	0e 94 b2 02 	call	0x564	; 0x564 <get_cmdline>

	if (!rebootACKd(cmdline)) {		// Reboot not yet acknowledged
     8d4:	ce 01       	movw	r24, r28
     8d6:	01 96       	adiw	r24, 0x01	; 1
     8d8:	0e 94 1f 04 	call	0x83e	; 0x83e <rebootACKd>
     8dc:	88 23       	and	r24, r24
     8de:	09 f4       	brne	.+2      	; 0x8e2 <commands+0x26>
     8e0:	74 c0       	rjmp	.+232    	; 0x9ca <commands+0x10e>
		return;
	}

		// <CR> or ! alone are not errors
	if ((cmdline[0] == '\0') || (cmdline[0] == '!')) {
     8e2:	89 81       	ldd	r24, Y+1	; 0x01
     8e4:	88 23       	and	r24, r24
     8e6:	11 f0       	breq	.+4      	; 0x8ec <commands+0x30>
     8e8:	81 32       	cpi	r24, 0x21	; 33
     8ea:	29 f4       	brne	.+10     	; 0x8f6 <commands+0x3a>
		firstpass = NO;
     8ec:	10 92 0b 2a 	sts	0x2A0B, r1	; 0x802a0b <firstpass>
		send_GTprompt();
     8f0:	0e 94 49 04 	call	0x892	; 0x892 <send_GTprompt>
		return;
     8f4:	6a c0       	rjmp	.+212    	; 0x9ca <commands+0x10e>
	}

	echo_cmd(cmdline);
     8f6:	ce 01       	movw	r24, r28
     8f8:	01 96       	adiw	r24, 0x01	; 1
     8fa:	0e 94 ca 03 	call	0x794	; 0x794 <echo_cmd>
	parse_cmd(cmdline, cstack);
     8fe:	60 91 00 28 	lds	r22, 0x2800	; 0x802800 <_edata>
     902:	ce 01       	movw	r24, r28
     904:	01 96       	adiw	r24, 0x01	; 1
     906:	0e 94 eb 02 	call	0x5d6	; 0x5d6 <parse_cmd>

	switch (pcmd[cstack].cverb) {
     90a:	80 91 00 28 	lds	r24, 0x2800	; 0x802800 <_edata>
     90e:	24 e3       	ldi	r18, 0x34	; 52
     910:	82 9f       	mul	r24, r18
     912:	f0 01       	movw	r30, r0
     914:	11 24       	eor	r1, r1
     916:	ed 5f       	subi	r30, 0xFD	; 253
     918:	f7 4d       	sbci	r31, 0xD7	; 215
     91a:	e0 81       	ld	r30, Z
     91c:	4e 2f       	mov	r20, r30
     91e:	50 e0       	ldi	r21, 0x00	; 0
     920:	fa 01       	movw	r30, r20
     922:	e9 54       	subi	r30, 0x49	; 73
     924:	f1 09       	sbc	r31, r1
     926:	ec 32       	cpi	r30, 0x2C	; 44
     928:	f1 05       	cpc	r31, r1
     92a:	e8 f5       	brcc	.+122    	; 0x9a6 <commands+0xea>
     92c:	e0 5b       	subi	r30, 0xB0	; 176
     92e:	ff 4f       	sbci	r31, 0xFF	; 255
     930:	0c 94 41 23 	jmp	0x4682	; 0x4682 <__tablejump2__>
		case 'c':				// close
			close_PNEU(cstack);
     934:	0e 94 fc 0c 	call	0x19f8	; 0x19f8 <close_PNEU>
			break;
     938:	3c c0       	rjmp	.+120    	; 0x9b2 <commands+0xf6>

		case 'o':				// open
			open_PNEU(cstack);
     93a:	0e 94 a6 0d 	call	0x1b4c	; 0x1b4c <open_PNEU>
			break;
     93e:	39 c0       	rjmp	.+114    	; 0x9b2 <commands+0xf6>

		case 'm':				// move
			move_MOTOR_CMD(cstack);
     940:	0e 94 c5 17 	call	0x2f8a	; 0x2f8a <move_MOTOR_CMD>
			break;
     944:	36 c0       	rjmp	.+108    	; 0x9b2 <commands+0xf6>

		case 'r':				// report
			report(cstack);
     946:	0e 94 95 0e 	call	0x1d2a	; 0x1d2a <report>
			break;
     94a:	33 c0       	rjmp	.+102    	; 0x9b2 <commands+0xf6>

		case 's':				// set
			set(cstack);
     94c:	0e 94 1b 19 	call	0x3236	; 0x3236 <set>
			break;
     950:	30 c0       	rjmp	.+96     	; 0x9b2 <commands+0xf6>

		case 't':
			testroutine();
     952:	0e 94 80 19 	call	0x3300	; 0x3300 <testroutine>
			break;
     956:	2d c0       	rjmp	.+90     	; 0x9b2 <commands+0xf6>

		case 'I':	// test init_MOTORS
			init_MOTORS();
     958:	0e 94 9d 18 	call	0x313a	; 0x313a <init_MOTORS>
			break;
     95c:	2a c0       	rjmp	.+84     	; 0x9b2 <commands+0xf6>

		case 'R':				// Reboot
			if (motorsMoving()) {
     95e:	0e 94 68 16 	call	0x2cd0	; 0x2cd0 <motorsMoving>
     962:	88 23       	and	r24, r24
     964:	39 f0       	breq	.+14     	; 0x974 <commands+0xb8>
				printError(ERR_MTR, "commands: Can't reboot, motor moving");
     966:	63 e2       	ldi	r22, 0x23	; 35
     968:	7c e8       	ldi	r23, 0x8C	; 140
     96a:	86 e3       	ldi	r24, 0x36	; 54
     96c:	91 e0       	ldi	r25, 0x01	; 1
     96e:	0e 94 9b 06 	call	0xd36	; 0xd36 <printError>
				break;
     972:	1f c0       	rjmp	.+62     	; 0x9b2 <commands+0xf6>
			} else {
				if (put_FRAM_ENCODERS() == ERROR) {
     974:	0e 94 95 16 	call	0x2d2a	; 0x2d2a <put_FRAM_ENCODERS>
     978:	83 36       	cpi	r24, 0x63	; 99
     97a:	31 f4       	brne	.+12     	; 0x988 <commands+0xcc>
					printError(ERR_FRAM, "commands: put_FRAM_ENCODERS error");
     97c:	68 e4       	ldi	r22, 0x48	; 72
     97e:	7c e8       	ldi	r23, 0x8C	; 140
     980:	83 e9       	ldi	r24, 0x93	; 147
     982:	91 e0       	ldi	r25, 0x01	; 1
     984:	0e 94 9b 06 	call	0xd36	; 0xd36 <printError>
				}
				timerSAVEENCODER = 0;
     988:	10 92 32 2a 	sts	0x2A32, r1	; 0x802a32 <timerSAVEENCODER>
				send_GTprompt();	// Aidan request
     98c:	0e 94 49 04 	call	0x892	; 0x892 <send_GTprompt>
	#else
		//round up by default
		__ticks_dc = (uint32_t)(ceil(fabs(__tmp)));
	#endif

	__builtin_avr_delay_cycles(__ticks_dc);
     990:	8a e6       	ldi	r24, 0x6A	; 106
     992:	94 e0       	ldi	r25, 0x04	; 4
     994:	21 e0       	ldi	r18, 0x01	; 1
     996:	81 50       	subi	r24, 0x01	; 1
     998:	90 40       	sbci	r25, 0x00	; 0
     99a:	20 40       	sbci	r18, 0x00	; 0
     99c:	e1 f7       	brne	.-8      	; 0x996 <commands+0xda>
     99e:	00 c0       	rjmp	.+0      	; 0x9a0 <commands+0xe4>
				_delay_ms(100);
				reboot();
     9a0:	0e 94 58 1d 	call	0x3ab0	; 0x3ab0 <reboot>
				return;
     9a4:	12 c0       	rjmp	.+36     	; 0x9ca <commands+0x10e>
			}

		default:
			printError(ERR_BADCOMMAND, "Not a command");
     9a6:	6a e6       	ldi	r22, 0x6A	; 106
     9a8:	7c e8       	ldi	r23, 0x8C	; 140
     9aa:	89 ec       	ldi	r24, 0xC9	; 201
     9ac:	90 e0       	ldi	r25, 0x00	; 0
     9ae:	0e 94 9b 06 	call	0xd36	; 0xd36 <printError>
			break;			
	}

	cstack = (cstack + 1) % CSTACKSIZE;
     9b2:	80 91 00 28 	lds	r24, 0x2800	; 0x802800 <_edata>
     9b6:	90 e0       	ldi	r25, 0x00	; 0
     9b8:	01 96       	adiw	r24, 0x01	; 1
     9ba:	6a e0       	ldi	r22, 0x0A	; 10
     9bc:	70 e0       	ldi	r23, 0x00	; 0
     9be:	0e 94 0e 23 	call	0x461c	; 0x461c <__divmodhi4>
     9c2:	80 93 00 28 	sts	0x2800, r24	; 0x802800 <_edata>
	send_GTprompt();
     9c6:	0e 94 49 04 	call	0x892	; 0x892 <send_GTprompt>

}
     9ca:	c1 50       	subi	r28, 0x01	; 1
     9cc:	df 4f       	sbci	r29, 0xFF	; 255
     9ce:	cd bf       	out	0x3d, r28	; 61
     9d0:	de bf       	out	0x3e, r29	; 62
     9d2:	df 91       	pop	r29
     9d4:	cf 91       	pop	r28
     9d6:	08 95       	ret

000009d8 <convert_ds2iso>:
	Output:
		isotime - 20 character array with the UTC time in ISO format:
			YYYY-MM-DDThh:mm:ss
------------------------------------------------------------------------------*/
void convert_ds2iso(char *isotime, uint8_t *ds3231time)
{
     9d8:	0f 93       	push	r16
     9da:	1f 93       	push	r17
     9dc:	cf 93       	push	r28
     9de:	df 93       	push	r29
     9e0:	cd b7       	in	r28, 0x3d	; 61
     9e2:	de b7       	in	r29, 0x3e	; 62
     9e4:	a0 97       	sbiw	r28, 0x20	; 32
     9e6:	cd bf       	out	0x3d, r28	; 61
     9e8:	de bf       	out	0x3e, r29	; 62

	const char format_ISO[] = "20%02x-%02x-%02xT%02x:%02x:%02x";
     9ea:	40 e2       	ldi	r20, 0x20	; 32
     9ec:	e8 e7       	ldi	r30, 0x78	; 120
     9ee:	fc e8       	ldi	r31, 0x8C	; 140
     9f0:	9e 01       	movw	r18, r28
     9f2:	2f 5f       	subi	r18, 0xFF	; 255
     9f4:	3f 4f       	sbci	r19, 0xFF	; 255
     9f6:	d9 01       	movw	r26, r18
     9f8:	01 90       	ld	r0, Z+
     9fa:	0d 92       	st	X+, r0
     9fc:	4a 95       	dec	r20
     9fe:	e1 f7       	brne	.-8      	; 0x9f8 <convert_ds2iso+0x20>
	uint8_t year, month, date, hours, minutes, seconds;

	seconds = (*ds3231time++);
     a00:	fb 01       	movw	r30, r22
     a02:	b0 81       	ld	r27, Z
	minutes = (*ds3231time++);
     a04:	a1 81       	ldd	r26, Z+1	; 0x01
	hours = (*ds3231time++);
     a06:	12 81       	ldd	r17, Z+2	; 0x02
	date = (*ds3231time++);		// dummy assignment for day of week
	date = (*ds3231time++);
     a08:	04 81       	ldd	r16, Z+4	; 0x04
	month = (*ds3231time++);
     a0a:	55 81       	ldd	r21, Z+5	; 0x05
	year = (*ds3231time);
     a0c:	46 81       	ldd	r20, Z+6	; 0x06

	sprintf(isotime, format_ISO, year, month, date, hours, minutes, seconds);
     a0e:	1f 92       	push	r1
     a10:	bf 93       	push	r27
     a12:	1f 92       	push	r1
     a14:	af 93       	push	r26
     a16:	1f 92       	push	r1
     a18:	1f 93       	push	r17
     a1a:	1f 92       	push	r1
     a1c:	0f 93       	push	r16
     a1e:	1f 92       	push	r1
     a20:	5f 93       	push	r21
     a22:	1f 92       	push	r1
     a24:	4f 93       	push	r20
     a26:	3f 93       	push	r19
     a28:	2f 93       	push	r18
     a2a:	9f 93       	push	r25
     a2c:	8f 93       	push	r24
     a2e:	0e 94 40 25 	call	0x4a80	; 0x4a80 <sprintf>

}
     a32:	cd bf       	out	0x3d, r28	; 61
     a34:	de bf       	out	0x3e, r29	; 62
     a36:	a0 96       	adiw	r28, 0x20	; 32
     a38:	cd bf       	out	0x3d, r28	; 61
     a3a:	de bf       	out	0x3e, r29	; 62
     a3c:	df 91       	pop	r29
     a3e:	cf 91       	pop	r28
     a40:	1f 91       	pop	r17
     a42:	0f 91       	pop	r16
     a44:	08 95       	ret

00000a46 <convert_iso2ds>:
	Creates a 7-byte ds3231time array.

	ISO time format is YYYY-MM-DDThh:mm:ss
------------------------------------------------------------------------------*/
void convert_iso2ds(uint8_t *ds3231time, char *isotime)
{
     a46:	dc 01       	movw	r26, r24
     a48:	fb 01       	movw	r30, r22

	ds3231time[0] = (((isotime[17]-48) << 4) | (isotime[18]-48));	// sec
     a4a:	81 89       	ldd	r24, Z+17	; 0x11
     a4c:	90 e0       	ldi	r25, 0x00	; 0
     a4e:	c0 97       	sbiw	r24, 0x30	; 48
     a50:	82 95       	swap	r24
     a52:	92 95       	swap	r25
     a54:	90 7f       	andi	r25, 0xF0	; 240
     a56:	98 27       	eor	r25, r24
     a58:	80 7f       	andi	r24, 0xF0	; 240
     a5a:	98 27       	eor	r25, r24
     a5c:	92 89       	ldd	r25, Z+18	; 0x12
     a5e:	90 53       	subi	r25, 0x30	; 48
     a60:	89 2b       	or	r24, r25
     a62:	8c 93       	st	X, r24
	ds3231time[1] = (((isotime[14]-48) << 4) | (isotime[15]-48));	// min
     a64:	86 85       	ldd	r24, Z+14	; 0x0e
     a66:	90 e0       	ldi	r25, 0x00	; 0
     a68:	c0 97       	sbiw	r24, 0x30	; 48
     a6a:	82 95       	swap	r24
     a6c:	92 95       	swap	r25
     a6e:	90 7f       	andi	r25, 0xF0	; 240
     a70:	98 27       	eor	r25, r24
     a72:	80 7f       	andi	r24, 0xF0	; 240
     a74:	98 27       	eor	r25, r24
     a76:	97 85       	ldd	r25, Z+15	; 0x0f
     a78:	90 53       	subi	r25, 0x30	; 48
     a7a:	89 2b       	or	r24, r25
     a7c:	11 96       	adiw	r26, 0x01	; 1
     a7e:	8c 93       	st	X, r24
     a80:	11 97       	sbiw	r26, 0x01	; 1
	ds3231time[2] = (((isotime[11]-48) << 4) | (isotime[12]-48));	// hr
     a82:	83 85       	ldd	r24, Z+11	; 0x0b
     a84:	90 e0       	ldi	r25, 0x00	; 0
     a86:	c0 97       	sbiw	r24, 0x30	; 48
     a88:	82 95       	swap	r24
     a8a:	92 95       	swap	r25
     a8c:	90 7f       	andi	r25, 0xF0	; 240
     a8e:	98 27       	eor	r25, r24
     a90:	80 7f       	andi	r24, 0xF0	; 240
     a92:	98 27       	eor	r25, r24
     a94:	94 85       	ldd	r25, Z+12	; 0x0c
     a96:	90 53       	subi	r25, 0x30	; 48
     a98:	89 2b       	or	r24, r25
     a9a:	12 96       	adiw	r26, 0x02	; 2
     a9c:	8c 93       	st	X, r24
     a9e:	12 97       	sbiw	r26, 0x02	; 2
	ds3231time[3] = 1;												// day of wk
     aa0:	81 e0       	ldi	r24, 0x01	; 1
     aa2:	13 96       	adiw	r26, 0x03	; 3
     aa4:	8c 93       	st	X, r24
     aa6:	13 97       	sbiw	r26, 0x03	; 3
	ds3231time[4] = (((isotime[8]-48) << 4) | (isotime[9]-48));		// date
     aa8:	80 85       	ldd	r24, Z+8	; 0x08
     aaa:	90 e0       	ldi	r25, 0x00	; 0
     aac:	c0 97       	sbiw	r24, 0x30	; 48
     aae:	82 95       	swap	r24
     ab0:	92 95       	swap	r25
     ab2:	90 7f       	andi	r25, 0xF0	; 240
     ab4:	98 27       	eor	r25, r24
     ab6:	80 7f       	andi	r24, 0xF0	; 240
     ab8:	98 27       	eor	r25, r24
     aba:	91 85       	ldd	r25, Z+9	; 0x09
     abc:	90 53       	subi	r25, 0x30	; 48
     abe:	89 2b       	or	r24, r25
     ac0:	14 96       	adiw	r26, 0x04	; 4
     ac2:	8c 93       	st	X, r24
     ac4:	14 97       	sbiw	r26, 0x04	; 4
	ds3231time[5] = (((isotime[5]-48) << 4) | (isotime[6]-48));		// mon
     ac6:	25 81       	ldd	r18, Z+5	; 0x05
     ac8:	30 e0       	ldi	r19, 0x00	; 0
     aca:	20 53       	subi	r18, 0x30	; 48
     acc:	31 09       	sbc	r19, r1
     ace:	22 95       	swap	r18
     ad0:	32 95       	swap	r19
     ad2:	30 7f       	andi	r19, 0xF0	; 240
     ad4:	32 27       	eor	r19, r18
     ad6:	20 7f       	andi	r18, 0xF0	; 240
     ad8:	32 27       	eor	r19, r18
     ada:	86 81       	ldd	r24, Z+6	; 0x06
     adc:	80 53       	subi	r24, 0x30	; 48
     ade:	28 2b       	or	r18, r24
     ae0:	15 96       	adiw	r26, 0x05	; 5
     ae2:	2c 93       	st	X, r18
     ae4:	15 97       	sbiw	r26, 0x05	; 5
	ds3231time[6] = (((isotime[2]-48) << 4) | (isotime[3]-48));		// yr
     ae6:	22 81       	ldd	r18, Z+2	; 0x02
     ae8:	30 e0       	ldi	r19, 0x00	; 0
     aea:	20 53       	subi	r18, 0x30	; 48
     aec:	31 09       	sbc	r19, r1
     aee:	22 95       	swap	r18
     af0:	32 95       	swap	r19
     af2:	30 7f       	andi	r19, 0xF0	; 240
     af4:	32 27       	eor	r19, r18
     af6:	20 7f       	andi	r18, 0xF0	; 240
     af8:	32 27       	eor	r19, r18
     afa:	83 81       	ldd	r24, Z+3	; 0x03
     afc:	80 53       	subi	r24, 0x30	; 48
     afe:	28 2b       	or	r18, r24
     b00:	16 96       	adiw	r26, 0x06	; 6
     b02:	2c 93       	st	X, r18
     b04:	08 95       	ret

00000b06 <read_DS3231>:

	The clock time is UTC. Communications to the outside is via the ISO time
	format: YYYY-MM-DDThh:mm:ss (19 characters).
------------------------------------------------------------------------------*/
uint8_t read_DS3231(uint8_t addr, uint8_t ds3231time[])
{
     b06:	ef 92       	push	r14
     b08:	ff 92       	push	r15
     b0a:	0f 93       	push	r16
     b0c:	1f 93       	push	r17
     b0e:	cf 93       	push	r28
     b10:	7b 01       	movw	r14, r22

	uint8_t i;

	if (start_TWI(addr, TWIWRITE) == ERROR) {
     b12:	60 e0       	ldi	r22, 0x00	; 0
     b14:	0e 94 65 1a 	call	0x34ca	; 0x34ca <start_TWI>
     b18:	c8 2f       	mov	r28, r24
     b1a:	83 36       	cpi	r24, 0x63	; 99
     b1c:	19 f4       	brne	.+6      	; 0xb24 <read_DS3231+0x1e>
		stop_TWI();
     b1e:	0e 94 b7 1a 	call	0x356e	; 0x356e <stop_TWI>
		return(ERROR);
     b22:	26 c0       	rjmp	.+76     	; 0xb70 <read_DS3231+0x6a>
    }  

	if (write_TWI(0x00) == ERROR) {	// Register 00h
     b24:	80 e0       	ldi	r24, 0x00	; 0
     b26:	0e 94 bb 1a 	call	0x3576	; 0x3576 <write_TWI>
     b2a:	c8 2f       	mov	r28, r24
     b2c:	83 36       	cpi	r24, 0x63	; 99
     b2e:	19 f4       	brne	.+6      	; 0xb36 <read_DS3231+0x30>
		stop_TWI();
     b30:	0e 94 b7 1a 	call	0x356e	; 0x356e <stop_TWI>
		return(ERROR);
     b34:	1d c0       	rjmp	.+58     	; 0xb70 <read_DS3231+0x6a>
	}

	if (start_TWI(DS3231ADDR, TWIREAD) == ERROR) {
     b36:	61 e0       	ldi	r22, 0x01	; 1
     b38:	88 e6       	ldi	r24, 0x68	; 104
     b3a:	0e 94 65 1a 	call	0x34ca	; 0x34ca <start_TWI>
     b3e:	c8 2f       	mov	r28, r24
     b40:	83 36       	cpi	r24, 0x63	; 99
     b42:	61 f4       	brne	.+24     	; 0xb5c <read_DS3231+0x56>
		stop_TWI();
     b44:	0e 94 b7 1a 	call	0x356e	; 0x356e <stop_TWI>
		return(ERROR);
     b48:	13 c0       	rjmp	.+38     	; 0xb70 <read_DS3231+0x6a>
	}

	for (i = 0; i < 6; i++) {
		ds3231time[i] = read_TWI();
     b4a:	87 01       	movw	r16, r14
     b4c:	0c 0f       	add	r16, r28
     b4e:	11 1d       	adc	r17, r1
     b50:	0e 94 14 1a 	call	0x3428	; 0x3428 <read_TWI>
     b54:	f8 01       	movw	r30, r16
     b56:	80 83       	st	Z, r24
	if (start_TWI(DS3231ADDR, TWIREAD) == ERROR) {
		stop_TWI();
		return(ERROR);
	}

	for (i = 0; i < 6; i++) {
     b58:	cf 5f       	subi	r28, 0xFF	; 255
     b5a:	01 c0       	rjmp	.+2      	; 0xb5e <read_DS3231+0x58>
     b5c:	c0 e0       	ldi	r28, 0x00	; 0
     b5e:	c6 30       	cpi	r28, 0x06	; 6
     b60:	a0 f3       	brcs	.-24     	; 0xb4a <read_DS3231+0x44>
		ds3231time[i] = read_TWI();
	}

	ds3231time[6] = readlast_TWI();
     b62:	0e 94 3e 1a 	call	0x347c	; 0x347c <readlast_TWI>
     b66:	f7 01       	movw	r30, r14
     b68:	86 83       	std	Z+6, r24	; 0x06

	stop_TWI();
     b6a:	0e 94 b7 1a 	call	0x356e	; 0x356e <stop_TWI>

	return(NOERROR);
     b6e:	c0 e0       	ldi	r28, 0x00	; 0

}
     b70:	8c 2f       	mov	r24, r28
     b72:	cf 91       	pop	r28
     b74:	1f 91       	pop	r17
     b76:	0f 91       	pop	r16
     b78:	ff 90       	pop	r15
     b7a:	ef 90       	pop	r14
     b7c:	08 95       	ret

00000b7e <get_time>:

	Returns
		0 on success or TWI error
------------------------------------------------------------------------------*/
uint8_t get_time(char *isotime)
{
     b7e:	ef 92       	push	r14
     b80:	ff 92       	push	r15
     b82:	1f 93       	push	r17
     b84:	cf 93       	push	r28
     b86:	df 93       	push	r29
     b88:	cd b7       	in	r28, 0x3d	; 61
     b8a:	de b7       	in	r29, 0x3e	; 62
     b8c:	27 97       	sbiw	r28, 0x07	; 7
     b8e:	cd bf       	out	0x3d, r28	; 61
     b90:	de bf       	out	0x3e, r29	; 62
     b92:	7c 01       	movw	r14, r24

	uint8_t ds3231time[7];

	if (read_DS3231(DS3231ADDR, ds3231time) == ERROR) {
     b94:	be 01       	movw	r22, r28
     b96:	6f 5f       	subi	r22, 0xFF	; 255
     b98:	7f 4f       	sbci	r23, 0xFF	; 255
     b9a:	88 e6       	ldi	r24, 0x68	; 104
     b9c:	0e 94 83 05 	call	0xb06	; 0xb06 <read_DS3231>
     ba0:	18 2f       	mov	r17, r24
     ba2:	83 36       	cpi	r24, 0x63	; 99
     ba4:	79 f4       	brne	.+30     	; 0xbc4 <get_time+0x46>
		printError(ERR_GETTIME, "get_time DS3231");
     ba6:	68 e9       	ldi	r22, 0x98	; 152
     ba8:	7c e8       	ldi	r23, 0x8C	; 140
     baa:	85 e6       	ldi	r24, 0x65	; 101
     bac:	90 e0       	ldi	r25, 0x00	; 0
     bae:	0e 94 9b 06 	call	0xd36	; 0xd36 <printError>
		strcpy(isotime, "DateTime?");
     bb2:	8a e0       	ldi	r24, 0x0A	; 10
     bb4:	e8 ea       	ldi	r30, 0xA8	; 168
     bb6:	fc e8       	ldi	r31, 0x8C	; 140
     bb8:	d7 01       	movw	r26, r14
     bba:	01 90       	ld	r0, Z+
     bbc:	0d 92       	st	X+, r0
     bbe:	8a 95       	dec	r24
     bc0:	e1 f7       	brne	.-8      	; 0xbba <get_time+0x3c>
		return(ERROR);
     bc2:	07 c0       	rjmp	.+14     	; 0xbd2 <get_time+0x54>
	}

	convert_ds2iso(isotime, ds3231time);
     bc4:	be 01       	movw	r22, r28
     bc6:	6f 5f       	subi	r22, 0xFF	; 255
     bc8:	7f 4f       	sbci	r23, 0xFF	; 255
     bca:	c7 01       	movw	r24, r14
     bcc:	0e 94 ec 04 	call	0x9d8	; 0x9d8 <convert_ds2iso>
	return(NOERROR);
     bd0:	10 e0       	ldi	r17, 0x00	; 0

}
     bd2:	81 2f       	mov	r24, r17
     bd4:	27 96       	adiw	r28, 0x07	; 7
     bd6:	cd bf       	out	0x3d, r28	; 61
     bd8:	de bf       	out	0x3e, r29	; 62
     bda:	df 91       	pop	r29
     bdc:	cf 91       	pop	r28
     bde:	1f 91       	pop	r17
     be0:	ff 90       	pop	r15
     be2:	ef 90       	pop	r14
     be4:	08 95       	ret

00000be6 <write_DS3231>:
	Returns:
		ERROR for TWI start error
		NOERROR otherwise
------------------------------------------------------------------------------*/
uint8_t write_DS3231(uint8_t addr, uint8_t *ds3231time)
{
     be6:	ef 92       	push	r14
     be8:	ff 92       	push	r15
     bea:	0f 93       	push	r16
     bec:	1f 93       	push	r17
     bee:	cf 93       	push	r28
     bf0:	df 93       	push	r29
     bf2:	8b 01       	movw	r16, r22

	uint8_t i;

	if (start_TWI(addr, TWIWRITE) == ERROR) {
     bf4:	60 e0       	ldi	r22, 0x00	; 0
     bf6:	0e 94 65 1a 	call	0x34ca	; 0x34ca <start_TWI>
     bfa:	c8 2f       	mov	r28, r24
     bfc:	83 36       	cpi	r24, 0x63	; 99
     bfe:	19 f4       	brne	.+6      	; 0xc06 <write_DS3231+0x20>
		stop_TWI();
     c00:	0e 94 b7 1a 	call	0x356e	; 0x356e <stop_TWI>
		return(ERROR);
     c04:	20 c0       	rjmp	.+64     	; 0xc46 <write_DS3231+0x60>
	}

	if (write_TWI(0x00) == ERROR) {	// Start with register 0x00 (seconds)
     c06:	80 e0       	ldi	r24, 0x00	; 0
     c08:	0e 94 bb 1a 	call	0x3576	; 0x3576 <write_TWI>
     c0c:	c8 2f       	mov	r28, r24
     c0e:	83 36       	cpi	r24, 0x63	; 99
     c10:	a1 f4       	brne	.+40     	; 0xc3a <write_DS3231+0x54>
		stop_TWI();
     c12:	0e 94 b7 1a 	call	0x356e	; 0x356e <stop_TWI>
		return(ERROR);
     c16:	17 c0       	rjmp	.+46     	; 0xc46 <write_DS3231+0x60>
	}

	for (i = 0; i < 7; i++) {
		if (write_TWI(*ds3231time++) == ERROR) {	// send the new time
     c18:	78 01       	movw	r14, r16
     c1a:	8f ef       	ldi	r24, 0xFF	; 255
     c1c:	e8 1a       	sub	r14, r24
     c1e:	f8 0a       	sbc	r15, r24
     c20:	f8 01       	movw	r30, r16
     c22:	80 81       	ld	r24, Z
     c24:	0e 94 bb 1a 	call	0x3576	; 0x3576 <write_TWI>
     c28:	c8 2f       	mov	r28, r24
     c2a:	83 36       	cpi	r24, 0x63	; 99
     c2c:	19 f4       	brne	.+6      	; 0xc34 <write_DS3231+0x4e>
			stop_TWI();
     c2e:	0e 94 b7 1a 	call	0x356e	; 0x356e <stop_TWI>
			return(ERROR);
     c32:	09 c0       	rjmp	.+18     	; 0xc46 <write_DS3231+0x60>
	if (write_TWI(0x00) == ERROR) {	// Start with register 0x00 (seconds)
		stop_TWI();
		return(ERROR);
	}

	for (i = 0; i < 7; i++) {
     c34:	df 5f       	subi	r29, 0xFF	; 255
		if (write_TWI(*ds3231time++) == ERROR) {	// send the new time
     c36:	87 01       	movw	r16, r14
     c38:	01 c0       	rjmp	.+2      	; 0xc3c <write_DS3231+0x56>
     c3a:	d0 e0       	ldi	r29, 0x00	; 0
	if (write_TWI(0x00) == ERROR) {	// Start with register 0x00 (seconds)
		stop_TWI();
		return(ERROR);
	}

	for (i = 0; i < 7; i++) {
     c3c:	d7 30       	cpi	r29, 0x07	; 7
     c3e:	60 f3       	brcs	.-40     	; 0xc18 <write_DS3231+0x32>
		if (write_TWI(*ds3231time++) == ERROR) {	// send the new time
			stop_TWI();
			return(ERROR);
		}
	}
	stop_TWI();
     c40:	0e 94 b7 1a 	call	0x356e	; 0x356e <stop_TWI>

	return(NOERROR);
     c44:	c0 e0       	ldi	r28, 0x00	; 0

}
     c46:	8c 2f       	mov	r24, r28
     c48:	df 91       	pop	r29
     c4a:	cf 91       	pop	r28
     c4c:	1f 91       	pop	r17
     c4e:	0f 91       	pop	r16
     c50:	ff 90       	pop	r15
     c52:	ef 90       	pop	r14
     c54:	08 95       	ret

00000c56 <put_time>:

	Returns
		0 on success or TWI error
------------------------------------------------------------------------------*/
uint8_t put_time(char *isotime)
{
     c56:	1f 93       	push	r17
     c58:	cf 93       	push	r28
     c5a:	df 93       	push	r29
     c5c:	cd b7       	in	r28, 0x3d	; 61
     c5e:	de b7       	in	r29, 0x3e	; 62
     c60:	27 97       	sbiw	r28, 0x07	; 7
     c62:	cd bf       	out	0x3d, r28	; 61
     c64:	de bf       	out	0x3e, r29	; 62

	uint8_t ds3231time[7];

	convert_iso2ds(ds3231time, isotime);
     c66:	bc 01       	movw	r22, r24
     c68:	ce 01       	movw	r24, r28
     c6a:	01 96       	adiw	r24, 0x01	; 1
     c6c:	0e 94 23 05 	call	0xa46	; 0xa46 <convert_iso2ds>
	if (write_DS3231(DS3231ADDR, ds3231time) == ERROR) {
     c70:	be 01       	movw	r22, r28
     c72:	6f 5f       	subi	r22, 0xFF	; 255
     c74:	7f 4f       	sbci	r23, 0xFF	; 255
     c76:	88 e6       	ldi	r24, 0x68	; 104
     c78:	0e 94 f3 05 	call	0xbe6	; 0xbe6 <write_DS3231>
     c7c:	18 2f       	mov	r17, r24
     c7e:	83 36       	cpi	r24, 0x63	; 99
     c80:	39 f4       	brne	.+14     	; 0xc90 <put_time+0x3a>
		printError(ERR_PUTTIME, "put_time DS3231");
     c82:	62 eb       	ldi	r22, 0xB2	; 178
     c84:	7c e8       	ldi	r23, 0x8C	; 140
     c86:	86 e6       	ldi	r24, 0x66	; 102
     c88:	90 e0       	ldi	r25, 0x00	; 0
     c8a:	0e 94 9b 06 	call	0xd36	; 0xd36 <printError>
		return(ERROR);
     c8e:	01 c0       	rjmp	.+2      	; 0xc92 <put_time+0x3c>
	}
	return(NOERROR);
     c90:	10 e0       	ldi	r17, 0x00	; 0

}
     c92:	81 2f       	mov	r24, r17
     c94:	27 96       	adiw	r28, 0x07	; 7
     c96:	cd bf       	out	0x3d, r28	; 61
     c98:	de bf       	out	0x3e, r29	; 62
     c9a:	df 91       	pop	r29
     c9c:	cf 91       	pop	r28
     c9e:	1f 91       	pop	r17
     ca0:	08 95       	ret

00000ca2 <get_BOOTTIME>:
	TWI must be enabled first (init_TWI()) since it calls get_time().
------------------------------------------------------------------------------*/
void get_BOOTTIME(char *boottime)
{

	eeprom_read_block((void *)boottime, (const void *)BOOTTIMEADDR, BOOTTIMESIZE);
     ca2:	45 e1       	ldi	r20, 0x15	; 21
     ca4:	50 e0       	ldi	r21, 0x00	; 0
     ca6:	6b e0       	ldi	r22, 0x0B	; 11
     ca8:	70 e0       	ldi	r23, 0x00	; 0
     caa:	0e 94 c0 25 	call	0x4b80	; 0x4b80 <eeprom_read_block>
     cae:	08 95       	ret

00000cb0 <get_VERSION>:
}

void get_VERSION(char *version)
{

	eeprom_read_block((void *)version, (const void *)VERSIONADDR, VERSIONSIZE);
     cb0:	4b e0       	ldi	r20, 0x0B	; 11
     cb2:	50 e0       	ldi	r21, 0x00	; 0
     cb4:	60 e0       	ldi	r22, 0x00	; 0
     cb6:	70 e0       	ldi	r23, 0x00	; 0
     cb8:	0e 94 c0 25 	call	0x4b80	; 0x4b80 <eeprom_read_block>
     cbc:	08 95       	ret

00000cbe <update_BOOTTIME>:
	update_VERSION();

}

void update_BOOTTIME(void)
{
     cbe:	cf 93       	push	r28
     cc0:	df 93       	push	r29
     cc2:	cd b7       	in	r28, 0x3d	; 61
     cc4:	de b7       	in	r29, 0x3e	; 62
     cc6:	65 97       	sbiw	r28, 0x15	; 21
     cc8:	cd bf       	out	0x3d, r28	; 61
     cca:	de bf       	out	0x3e, r29	; 62

	char boottime[21];

	get_time(boottime);
     ccc:	ce 01       	movw	r24, r28
     cce:	01 96       	adiw	r24, 0x01	; 1
     cd0:	0e 94 bf 05 	call	0xb7e	; 0xb7e <get_time>
	eeprom_update_block((const void *)boottime, (void *)BOOTTIMEADDR, BOOTTIMESIZE);
     cd4:	45 e1       	ldi	r20, 0x15	; 21
     cd6:	50 e0       	ldi	r21, 0x00	; 0
     cd8:	6b e0       	ldi	r22, 0x0B	; 11
     cda:	70 e0       	ldi	r23, 0x00	; 0
     cdc:	ce 01       	movw	r24, r28
     cde:	01 96       	adiw	r24, 0x01	; 1
     ce0:	0e 94 c4 25 	call	0x4b88	; 0x4b88 <eeprom_update_block>

}
     ce4:	65 96       	adiw	r28, 0x15	; 21
     ce6:	cd bf       	out	0x3d, r28	; 61
     ce8:	de bf       	out	0x3e, r29	; 62
     cea:	df 91       	pop	r29
     cec:	cf 91       	pop	r28
     cee:	08 95       	ret

00000cf0 <update_VERSION>:

void update_VERSION(void)
{
     cf0:	cf 93       	push	r28
     cf2:	df 93       	push	r29
     cf4:	cd b7       	in	r28, 0x3d	; 61
     cf6:	de b7       	in	r29, 0x3e	; 62
     cf8:	2b 97       	sbiw	r28, 0x0b	; 11
     cfa:	cd bf       	out	0x3d, r28	; 61
     cfc:	de bf       	out	0x3e, r29	; 62

	char version[11];

	strcpy(version, VERSION);
     cfe:	8b e0       	ldi	r24, 0x0B	; 11
     d00:	e2 ec       	ldi	r30, 0xC2	; 194
     d02:	fc e8       	ldi	r31, 0x8C	; 140
     d04:	de 01       	movw	r26, r28
     d06:	11 96       	adiw	r26, 0x01	; 1
     d08:	01 90       	ld	r0, Z+
     d0a:	0d 92       	st	X+, r0
     d0c:	8a 95       	dec	r24
     d0e:	e1 f7       	brne	.-8      	; 0xd08 <update_VERSION+0x18>
	eeprom_update_block((const void *)version, (void *)VERSIONADDR, VERSIONSIZE);
     d10:	4b e0       	ldi	r20, 0x0B	; 11
     d12:	50 e0       	ldi	r21, 0x00	; 0
     d14:	60 e0       	ldi	r22, 0x00	; 0
     d16:	70 e0       	ldi	r23, 0x00	; 0
     d18:	ce 01       	movw	r24, r28
     d1a:	01 96       	adiw	r24, 0x01	; 1
     d1c:	0e 94 c4 25 	call	0x4b88	; 0x4b88 <eeprom_update_block>

}
     d20:	2b 96       	adiw	r28, 0x0b	; 11
     d22:	cd bf       	out	0x3d, r28	; 61
     d24:	de bf       	out	0x3e, r29	; 62
     d26:	df 91       	pop	r29
     d28:	cf 91       	pop	r28
     d2a:	08 95       	ret

00000d2c <init_EEPROM>:
}

void init_EEPROM(void)
{

	update_BOOTTIME();
     d2c:	0e 94 5f 06 	call	0xcbe	; 0xcbe <update_BOOTTIME>
	update_VERSION();
     d30:	0e 94 78 06 	call	0xcf0	; 0xcf0 <update_VERSION>
     d34:	08 95       	ret

00000d36 <printError>:
/*------------------------------------------------------------------------------
void printError(uint8_t errorNumber, char *errorString)
	Prints an error report on USART0
------------------------------------------------------------------------------*/
void printError(uint16_t errorNumber, char *errorString)
{
     d36:	0f 93       	push	r16
     d38:	1f 93       	push	r17
     d3a:	cf 93       	push	r28
     d3c:	df 93       	push	r29
     d3e:	cd b7       	in	r28, 0x3d	; 61
     d40:	de b7       	in	r29, 0x3e	; 62
     d42:	c8 50       	subi	r28, 0x08	; 8
     d44:	d1 40       	sbci	r29, 0x01	; 1
     d46:	cd bf       	out	0x3d, r28	; 61
     d48:	de bf       	out	0x3e, r29	; 62

	char strbuf[BUFSIZE];
	const char errorFormat[] = "ERR,%d,%s";
     d4a:	2a e0       	ldi	r18, 0x0A	; 10
     d4c:	ed ec       	ldi	r30, 0xCD	; 205
     d4e:	fc e8       	ldi	r31, 0x8C	; 140
     d50:	de 01       	movw	r26, r28
     d52:	a1 50       	subi	r26, 0x01	; 1
     d54:	bf 4f       	sbci	r27, 0xFF	; 255
     d56:	01 90       	ld	r0, Z+
     d58:	0d 92       	st	X+, r0
     d5a:	2a 95       	dec	r18
     d5c:	e1 f7       	brne	.-8      	; 0xd56 <printError+0x20>

	if (!squelchErrors) {
     d5e:	20 91 01 28 	lds	r18, 0x2801	; 0x802801 <squelchErrors>
     d62:	21 11       	cpse	r18, r1
     d64:	15 c0       	rjmp	.+42     	; 0xd90 <printError+0x5a>
		sprintf(strbuf, errorFormat, errorNumber, errorString);
     d66:	7f 93       	push	r23
     d68:	6f 93       	push	r22
     d6a:	9f 93       	push	r25
     d6c:	8f 93       	push	r24
     d6e:	ce 01       	movw	r24, r28
     d70:	81 50       	subi	r24, 0x01	; 1
     d72:	9f 4f       	sbci	r25, 0xFF	; 255
     d74:	9f 93       	push	r25
     d76:	8f 93       	push	r24
     d78:	8e 01       	movw	r16, r28
     d7a:	0f 5f       	subi	r16, 0xFF	; 255
     d7c:	1f 4f       	sbci	r17, 0xFF	; 255
     d7e:	1f 93       	push	r17
     d80:	0f 93       	push	r16
     d82:	0e 94 40 25 	call	0x4a80	; 0x4a80 <sprintf>
		printLine(strbuf);
     d86:	c8 01       	movw	r24, r16
     d88:	0e 94 7f 03 	call	0x6fe	; 0x6fe <printLine>
     d8c:	cd bf       	out	0x3d, r28	; 61
     d8e:	de bf       	out	0x3e, r29	; 62
	}

}
     d90:	c8 5f       	subi	r28, 0xF8	; 248
     d92:	de 4f       	sbci	r29, 0xFE	; 254
     d94:	cd bf       	out	0x3d, r28	; 61
     d96:	de bf       	out	0x3e, r29	; 62
     d98:	df 91       	pop	r29
     d9a:	cf 91       	pop	r28
     d9c:	1f 91       	pop	r17
     d9e:	0f 91       	pop	r16
     da0:	08 95       	ret

00000da2 <read_FRAM>:
	Returns:
		ERROR on start_TWI error (NACK)
		NOERROR otherwise
------------------------------------------------------------------------------*/
uint8_t read_FRAM(uint8_t addr, uint16_t memaddr, uint8_t *val, uint8_t nbytes)
{
     da2:	cf 92       	push	r12
     da4:	df 92       	push	r13
     da6:	ef 92       	push	r14
     da8:	ff 92       	push	r15
     daa:	0f 93       	push	r16
     dac:	1f 93       	push	r17
     dae:	cf 93       	push	r28
     db0:	df 93       	push	r29
     db2:	d8 2f       	mov	r29, r24
     db4:	d6 2e       	mov	r13, r22
     db6:	07 2f       	mov	r16, r23
     db8:	7a 01       	movw	r14, r20
     dba:	12 2f       	mov	r17, r18
	uint8_t i, memhigh, memlow;

	memlow = memaddr & 0xFF;						// high byte
	memhigh = (memaddr >> 8);						// low byte

	if (start_TWI(addr, TWIWRITE) == ERROR) {		// TWI start
     dbc:	60 e0       	ldi	r22, 0x00	; 0
     dbe:	0e 94 65 1a 	call	0x34ca	; 0x34ca <start_TWI>
     dc2:	c8 2f       	mov	r28, r24
     dc4:	83 36       	cpi	r24, 0x63	; 99
     dc6:	19 f4       	brne	.+6      	; 0xdce <read_FRAM+0x2c>
		stop_TWI();
     dc8:	0e 94 b7 1a 	call	0x356e	; 0x356e <stop_TWI>
		return(ERROR);
     dcc:	2e c0       	rjmp	.+92     	; 0xe2a <read_FRAM+0x88>
	}

	if (write_TWI(memhigh) == ERROR) {			// Send memory address
     dce:	80 2f       	mov	r24, r16
     dd0:	0e 94 bb 1a 	call	0x3576	; 0x3576 <write_TWI>
     dd4:	c8 2f       	mov	r28, r24
     dd6:	83 36       	cpi	r24, 0x63	; 99
     dd8:	41 f1       	breq	.+80     	; 0xe2a <read_FRAM+0x88>
		return(ERROR);
	}
	if (write_TWI(memlow) == ERROR) {
     dda:	8d 2d       	mov	r24, r13
     ddc:	0e 94 bb 1a 	call	0x3576	; 0x3576 <write_TWI>
     de0:	c8 2f       	mov	r28, r24
     de2:	83 36       	cpi	r24, 0x63	; 99
     de4:	11 f1       	breq	.+68     	; 0xe2a <read_FRAM+0x88>
		return(ERROR);
	}

	if (start_TWI(addr, TWIREAD) == ERROR) {		// Repeated start
     de6:	61 e0       	ldi	r22, 0x01	; 1
     de8:	8d 2f       	mov	r24, r29
     dea:	0e 94 65 1a 	call	0x34ca	; 0x34ca <start_TWI>
     dee:	c8 2f       	mov	r28, r24
     df0:	83 36       	cpi	r24, 0x63	; 99
     df2:	d9 f0       	breq	.+54     	; 0xe2a <read_FRAM+0x88>
     df4:	c0 e0       	ldi	r28, 0x00	; 0
     df6:	08 c0       	rjmp	.+16     	; 0xe08 <read_FRAM+0x66>
		return(ERROR);
	}

	for (i = 0; i < (nbytes-1); i++) {
		val[i] = read_TWI();						// Read memory
     df8:	67 01       	movw	r12, r14
     dfa:	cc 0e       	add	r12, r28
     dfc:	d1 1c       	adc	r13, r1
     dfe:	0e 94 14 1a 	call	0x3428	; 0x3428 <read_TWI>
     e02:	f6 01       	movw	r30, r12
     e04:	80 83       	st	Z, r24

	if (start_TWI(addr, TWIREAD) == ERROR) {		// Repeated start
		return(ERROR);
	}

	for (i = 0; i < (nbytes-1); i++) {
     e06:	cf 5f       	subi	r28, 0xFF	; 255
     e08:	2c 2f       	mov	r18, r28
     e0a:	30 e0       	ldi	r19, 0x00	; 0
     e0c:	81 2f       	mov	r24, r17
     e0e:	90 e0       	ldi	r25, 0x00	; 0
     e10:	01 97       	sbiw	r24, 0x01	; 1
     e12:	28 17       	cp	r18, r24
     e14:	39 07       	cpc	r19, r25
     e16:	84 f3       	brlt	.-32     	; 0xdf8 <read_FRAM+0x56>
		val[i] = read_TWI();						// Read memory
	}
	val[nbytes-1] = readlast_TWI();
     e18:	ec 01       	movw	r28, r24
     e1a:	ce 0d       	add	r28, r14
     e1c:	df 1d       	adc	r29, r15
     e1e:	0e 94 3e 1a 	call	0x347c	; 0x347c <readlast_TWI>
     e22:	88 83       	st	Y, r24

	stop_TWI();
     e24:	0e 94 b7 1a 	call	0x356e	; 0x356e <stop_TWI>

	return(NOERROR);
     e28:	c0 e0       	ldi	r28, 0x00	; 0

}
     e2a:	8c 2f       	mov	r24, r28
     e2c:	df 91       	pop	r29
     e2e:	cf 91       	pop	r28
     e30:	1f 91       	pop	r17
     e32:	0f 91       	pop	r16
     e34:	ff 90       	pop	r15
     e36:	ef 90       	pop	r14
     e38:	df 90       	pop	r13
     e3a:	cf 90       	pop	r12
     e3c:	08 95       	ret

00000e3e <get_SETTIME>:
	Input: None
	Output: The data from FRAM, presumably containing the time
	Returns: ERROR or NOERROR
------------------------------------------------------------------------------*/
uint8_t get_SETTIME(char *lastsettime)
{
     e3e:	ef 92       	push	r14
     e40:	ff 92       	push	r15
     e42:	1f 93       	push	r17
     e44:	cf 93       	push	r28
     e46:	df 93       	push	r29
     e48:	cd b7       	in	r28, 0x3d	; 61
     e4a:	de b7       	in	r29, 0x3e	; 62
     e4c:	2a 97       	sbiw	r28, 0x0a	; 10
     e4e:	cd bf       	out	0x3d, r28	; 61
     e50:	de bf       	out	0x3e, r29	; 62
     e52:	7c 01       	movw	r14, r24

	const char timeset[] = "Time Set?";
     e54:	8a e0       	ldi	r24, 0x0A	; 10
     e56:	e7 ed       	ldi	r30, 0xD7	; 215
     e58:	fc e8       	ldi	r31, 0x8C	; 140
     e5a:	de 01       	movw	r26, r28
     e5c:	11 96       	adiw	r26, 0x01	; 1
     e5e:	01 90       	ld	r0, Z+
     e60:	0d 92       	st	X+, r0
     e62:	8a 95       	dec	r24
     e64:	e1 f7       	brne	.-8      	; 0xe5e <get_SETTIME+0x20>
	if (read_FRAM(FRAMTWIADDR, SETTIMEADDR, (uint8_t*) lastsettime, ISOTIMELEN) == ERROR) {;
     e66:	24 e1       	ldi	r18, 0x14	; 20
     e68:	a7 01       	movw	r20, r14
     e6a:	60 e0       	ldi	r22, 0x00	; 0
     e6c:	70 e0       	ldi	r23, 0x00	; 0
     e6e:	80 e5       	ldi	r24, 0x50	; 80
     e70:	0e 94 d1 06 	call	0xda2	; 0xda2 <read_FRAM>
     e74:	18 2f       	mov	r17, r24
     e76:	83 36       	cpi	r24, 0x63	; 99
     e78:	39 f4       	brne	.+14     	; 0xe88 <get_SETTIME+0x4a>
		strcpy(lastsettime, timeset);
     e7a:	be 01       	movw	r22, r28
     e7c:	6f 5f       	subi	r22, 0xFF	; 255
     e7e:	7f 4f       	sbci	r23, 0xFF	; 255
     e80:	c7 01       	movw	r24, r14
     e82:	0e 94 dd 24 	call	0x49ba	; 0x49ba <strcpy>
		return(ERROR);
     e86:	01 c0       	rjmp	.+2      	; 0xe8a <get_SETTIME+0x4c>
	}
	return(NOERROR);
     e88:	10 e0       	ldi	r17, 0x00	; 0
}
     e8a:	81 2f       	mov	r24, r17
     e8c:	2a 96       	adiw	r28, 0x0a	; 10
     e8e:	cd bf       	out	0x3d, r28	; 61
     e90:	de bf       	out	0x3e, r29	; 62
     e92:	df 91       	pop	r29
     e94:	cf 91       	pop	r28
     e96:	1f 91       	pop	r17
     e98:	ff 90       	pop	r15
     e9a:	ef 90       	pop	r14
     e9c:	08 95       	ret

00000e9e <write_FRAM>:
	Returns:
		ERROR if start_TWI fails (NACK)
		NOERROR otherwise
------------------------------------------------------------------------------*/
uint8_t write_FRAM(uint8_t addr, uint16_t memaddr, uint8_t *val, uint8_t nbytes)
{
     e9e:	ef 92       	push	r14
     ea0:	ff 92       	push	r15
     ea2:	0f 93       	push	r16
     ea4:	1f 93       	push	r17
     ea6:	cf 93       	push	r28
     ea8:	df 93       	push	r29
     eaa:	f6 2e       	mov	r15, r22
     eac:	17 2f       	mov	r17, r23
     eae:	ea 01       	movw	r28, r20
     eb0:	02 2f       	mov	r16, r18
	uint8_t i, memhigh, memlow;

	memlow = memaddr & 0xFF;
	memhigh = (memaddr >> 8);

	if (start_TWI(addr, TWIWRITE) == ERROR) {	// TWI START
     eb2:	60 e0       	ldi	r22, 0x00	; 0
     eb4:	0e 94 65 1a 	call	0x34ca	; 0x34ca <start_TWI>
     eb8:	83 36       	cpi	r24, 0x63	; 99
     eba:	e1 f0       	breq	.+56     	; 0xef4 <write_FRAM+0x56>
		return(ERROR);
	}

	if (write_TWI(memhigh) == ERROR) {			// FRAM address to write
     ebc:	81 2f       	mov	r24, r17
     ebe:	0e 94 bb 1a 	call	0x3576	; 0x3576 <write_TWI>
     ec2:	83 36       	cpi	r24, 0x63	; 99
     ec4:	b9 f0       	breq	.+46     	; 0xef4 <write_FRAM+0x56>
		return(ERROR);
	}
	if (write_TWI(memlow) == ERROR) {			// FRAM address to write
     ec6:	8f 2d       	mov	r24, r15
     ec8:	0e 94 bb 1a 	call	0x3576	; 0x3576 <write_TWI>
     ecc:	83 36       	cpi	r24, 0x63	; 99
     ece:	91 f0       	breq	.+36     	; 0xef4 <write_FRAM+0x56>
     ed0:	10 e0       	ldi	r17, 0x00	; 0
     ed2:	0b c0       	rjmp	.+22     	; 0xeea <write_FRAM+0x4c>
		return(ERROR);
	}

	for (i = 0; i < nbytes; i++) {
		if (write_TWI(*val++) == ERROR) {		// Write to FRAM
     ed4:	7e 01       	movw	r14, r28
     ed6:	8f ef       	ldi	r24, 0xFF	; 255
     ed8:	e8 1a       	sub	r14, r24
     eda:	f8 0a       	sbc	r15, r24
     edc:	88 81       	ld	r24, Y
     ede:	0e 94 bb 1a 	call	0x3576	; 0x3576 <write_TWI>
     ee2:	83 36       	cpi	r24, 0x63	; 99
     ee4:	39 f0       	breq	.+14     	; 0xef4 <write_FRAM+0x56>
	}
	if (write_TWI(memlow) == ERROR) {			// FRAM address to write
		return(ERROR);
	}

	for (i = 0; i < nbytes; i++) {
     ee6:	1f 5f       	subi	r17, 0xFF	; 255
		if (write_TWI(*val++) == ERROR) {		// Write to FRAM
     ee8:	e7 01       	movw	r28, r14
	}
	if (write_TWI(memlow) == ERROR) {			// FRAM address to write
		return(ERROR);
	}

	for (i = 0; i < nbytes; i++) {
     eea:	10 17       	cp	r17, r16
     eec:	98 f3       	brcs	.-26     	; 0xed4 <write_FRAM+0x36>
		if (write_TWI(*val++) == ERROR) {		// Write to FRAM
			return(ERROR);
		}
	}

	stop_TWI();
     eee:	0e 94 b7 1a 	call	0x356e	; 0x356e <stop_TWI>

	return(NOERROR);
     ef2:	80 e0       	ldi	r24, 0x00	; 0

}
     ef4:	df 91       	pop	r29
     ef6:	cf 91       	pop	r28
     ef8:	1f 91       	pop	r17
     efa:	0f 91       	pop	r16
     efc:	ff 90       	pop	r15
     efe:	ef 90       	pop	r14
     f00:	08 95       	ret

00000f02 <get_humidity>:

	Honeywell HiH-4031 humidity sensors. Voltage output is roughly 0.75 V to
	4.0 V, 0% to 100% RH at 0 C. There is a temperature correction required.
------------------------------------------------------------------------------*/
float get_humidity(uint8_t sensor)
{
     f02:	8f 92       	push	r8
     f04:	9f 92       	push	r9
     f06:	af 92       	push	r10
     f08:	bf 92       	push	r11
     f0a:	cf 92       	push	r12
     f0c:	df 92       	push	r13
     f0e:	ef 92       	push	r14
     f10:	ff 92       	push	r15
     f12:	0f 93       	push	r16
     f14:	1f 93       	push	r17
     f16:	cf 93       	push	r28
     f18:	df 93       	push	r29
     f1a:	00 d0       	rcall	.+0      	; 0xf1c <get_humidity+0x1a>
     f1c:	00 d0       	rcall	.+0      	; 0xf1e <get_humidity+0x1c>
     f1e:	cd b7       	in	r28, 0x3d	; 61
     f20:	de b7       	in	r29, 0x3e	; 62

	uint8_t adcpin;
	float voltage, humidity, temperature;

	switch (sensor) {
     f22:	81 30       	cpi	r24, 0x01	; 1
     f24:	59 f0       	breq	.+22     	; 0xf3c <get_humidity+0x3a>
     f26:	18 f0       	brcs	.+6      	; 0xf2e <get_humidity+0x2c>
     f28:	82 30       	cpi	r24, 0x02	; 2
     f2a:	79 f0       	breq	.+30     	; 0xf4a <get_humidity+0x48>
     f2c:	15 c0       	rjmp	.+42     	; 0xf58 <get_humidity+0x56>
		case 0:
			temperature = get_temperature(0);
     f2e:	80 e0       	ldi	r24, 0x00	; 0
     f30:	0e 94 58 19 	call	0x32b0	; 0x32b0 <get_temperature>
     f34:	6b 01       	movw	r12, r22
     f36:	7c 01       	movw	r14, r24
			adcpin = AIN0;		// production
     f38:	40 e4       	ldi	r20, 0x40	; 64
			break;
     f3a:	17 c0       	rjmp	.+46     	; 0xf6a <get_humidity+0x68>

		case 1:
			temperature = get_temperature(1);
     f3c:	81 e0       	ldi	r24, 0x01	; 1
     f3e:	0e 94 58 19 	call	0x32b0	; 0x32b0 <get_temperature>
     f42:	6b 01       	movw	r12, r22
     f44:	7c 01       	movw	r14, r24
			adcpin = AIN1;
     f46:	40 e5       	ldi	r20, 0x50	; 80
			break;
     f48:	10 c0       	rjmp	.+32     	; 0xf6a <get_humidity+0x68>

		case 2:
			temperature = get_temperature(2);
     f4a:	82 e0       	ldi	r24, 0x02	; 2
     f4c:	0e 94 58 19 	call	0x32b0	; 0x32b0 <get_temperature>
     f50:	6b 01       	movw	r12, r22
     f52:	7c 01       	movw	r14, r24
			adcpin = AIN2;
     f54:	40 e6       	ldi	r20, 0x60	; 96
			break;
     f56:	09 c0       	rjmp	.+18     	; 0xf6a <get_humidity+0x68>

		default:
			// flag an error
			adcpin = AIN1;			// to avoid uninitialized note
			temperature = 20.0;		// to avoid uninitialized note
     f58:	0f 2e       	mov	r0, r31
     f5a:	c1 2c       	mov	r12, r1
     f5c:	d1 2c       	mov	r13, r1
     f5e:	f0 ea       	ldi	r31, 0xA0	; 160
     f60:	ef 2e       	mov	r14, r31
     f62:	f1 e4       	ldi	r31, 0x41	; 65
     f64:	ff 2e       	mov	r15, r31
     f66:	f0 2d       	mov	r31, r0
			adcpin = AIN2;
			break;

		default:
			// flag an error
			adcpin = AIN1;			// to avoid uninitialized note
     f68:	40 e5       	ldi	r20, 0x50	; 80
			temperature = 20.0;		// to avoid uninitialized note
			break;
	}

	if (read_ADS1115(ADC_RH, PGA6144, adcpin, DR128, &voltage) == ERROR) {
     f6a:	8e 01       	movw	r16, r28
     f6c:	0f 5f       	subi	r16, 0xFF	; 255
     f6e:	1f 4f       	sbci	r17, 0xFF	; 255
     f70:	20 e8       	ldi	r18, 0x80	; 128
     f72:	60 e0       	ldi	r22, 0x00	; 0
     f74:	88 e4       	ldi	r24, 0x48	; 72
     f76:	0e 94 c8 01 	call	0x390	; 0x390 <read_ADS1115>
     f7a:	83 36       	cpi	r24, 0x63	; 99
     f7c:	79 f1       	breq	.+94     	; 0xfdc <get_humidity+0xda>
		humidity = BADFLOAT;
	}
	else {
		humidity = ((voltage / 5.0) - 0.16) / 0.0062;
     f7e:	20 e0       	ldi	r18, 0x00	; 0
     f80:	30 e0       	ldi	r19, 0x00	; 0
     f82:	40 ea       	ldi	r20, 0xA0	; 160
     f84:	50 e4       	ldi	r21, 0x40	; 64
     f86:	69 81       	ldd	r22, Y+1	; 0x01
     f88:	7a 81       	ldd	r23, Y+2	; 0x02
     f8a:	8b 81       	ldd	r24, Y+3	; 0x03
     f8c:	9c 81       	ldd	r25, Y+4	; 0x04
     f8e:	0e 94 fb 1d 	call	0x3bf6	; 0x3bf6 <__divsf3>
     f92:	2a e0       	ldi	r18, 0x0A	; 10
     f94:	37 ed       	ldi	r19, 0xD7	; 215
     f96:	43 e2       	ldi	r20, 0x23	; 35
     f98:	5e e3       	ldi	r21, 0x3E	; 62
     f9a:	0e 94 89 1d 	call	0x3b12	; 0x3b12 <__subsf3>
     f9e:	2f e5       	ldi	r18, 0x5F	; 95
     fa0:	39 e2       	ldi	r19, 0x29	; 41
     fa2:	4b ec       	ldi	r20, 0xCB	; 203
     fa4:	5b e3       	ldi	r21, 0x3B	; 59
     fa6:	0e 94 fb 1d 	call	0x3bf6	; 0x3bf6 <__divsf3>
     faa:	4b 01       	movw	r8, r22
     fac:	5c 01       	movw	r10, r24
		humidity = (humidity / (1.0546 - 0.00216 * temperature));
     fae:	29 ec       	ldi	r18, 0xC9	; 201
     fb0:	3e e8       	ldi	r19, 0x8E	; 142
     fb2:	4d e0       	ldi	r20, 0x0D	; 13
     fb4:	5b e3       	ldi	r21, 0x3B	; 59
     fb6:	c7 01       	movw	r24, r14
     fb8:	b6 01       	movw	r22, r12
     fba:	0e 94 24 1f 	call	0x3e48	; 0x3e48 <__mulsf3>
     fbe:	9b 01       	movw	r18, r22
     fc0:	ac 01       	movw	r20, r24
     fc2:	62 e2       	ldi	r22, 0x22	; 34
     fc4:	7d ef       	ldi	r23, 0xFD	; 253
     fc6:	86 e8       	ldi	r24, 0x86	; 134
     fc8:	9f e3       	ldi	r25, 0x3F	; 63
     fca:	0e 94 89 1d 	call	0x3b12	; 0x3b12 <__subsf3>
     fce:	9b 01       	movw	r18, r22
     fd0:	ac 01       	movw	r20, r24
     fd2:	c5 01       	movw	r24, r10
     fd4:	b4 01       	movw	r22, r8
     fd6:	0e 94 fb 1d 	call	0x3bf6	; 0x3bf6 <__divsf3>
     fda:	04 c0       	rjmp	.+8      	; 0xfe4 <get_humidity+0xe2>
			temperature = 20.0;		// to avoid uninitialized note
			break;
	}

	if (read_ADS1115(ADC_RH, PGA6144, adcpin, DR128, &voltage) == ERROR) {
		humidity = BADFLOAT;
     fdc:	60 e0       	ldi	r22, 0x00	; 0
     fde:	70 e8       	ldi	r23, 0x80	; 128
     fe0:	86 e2       	ldi	r24, 0x26	; 38
     fe2:	94 ec       	ldi	r25, 0xC4	; 196
		humidity = (humidity / (1.0546 - 0.00216 * temperature));
	}

	return(humidity);

}
     fe4:	24 96       	adiw	r28, 0x04	; 4
     fe6:	cd bf       	out	0x3d, r28	; 61
     fe8:	de bf       	out	0x3e, r29	; 62
     fea:	df 91       	pop	r29
     fec:	cf 91       	pop	r28
     fee:	1f 91       	pop	r17
     ff0:	0f 91       	pop	r16
     ff2:	ff 90       	pop	r15
     ff4:	ef 90       	pop	r14
     ff6:	df 90       	pop	r13
     ff8:	cf 90       	pop	r12
     ffa:	bf 90       	pop	r11
     ffc:	af 90       	pop	r10
     ffe:	9f 90       	pop	r9
    1000:	8f 90       	pop	r8
    1002:	08 95       	ret

00001004 <initialize>:
#include "errors.h" //TESTING

uint8_t rebootackd;

void initialize(void)
{
    1004:	cf 93       	push	r28
    1006:	df 93       	push	r29
    1008:	cd b7       	in	r28, 0x3d	; 61
    100a:	de b7       	in	r29, 0x3e	; 62
    100c:	2b 97       	sbiw	r28, 0x0b	; 11
    100e:	cd bf       	out	0x3d, r28	; 61
    1010:	de bf       	out	0x3e, r29	; 62

	char versionstr[11];

	rebootackd = NO;
    1012:	10 92 02 28 	sts	0x2802, r1	; 0x802802 <rebootackd>
	timerOLED = 0;					// See oled.h
    1016:	10 92 0c 2a 	sts	0x2A0C, r1	; 0x802a0c <timerOLED>
    101a:	10 92 0d 2a 	sts	0x2A0D, r1	; 0x802a0d <timerOLED+0x1>
	timeoutOLED = 30 * (512/32);	// 30 seconds for version display
    101e:	80 ee       	ldi	r24, 0xE0	; 224
    1020:	91 e0       	ldi	r25, 0x01	; 1
    1022:	80 93 0e 2a 	sts	0x2A0E, r24	; 0x802a0e <timeoutOLED>
    1026:	90 93 0f 2a 	sts	0x2A0F, r25	; 0x802a0f <timeoutOLED+0x1>

	init_PORTS();
    102a:	0e 94 7f 0e 	call	0x1cfe	; 0x1cfe <init_PORTS>
	init_TWI();
    102e:	0e 94 09 1a 	call	0x3412	; 0x3412 <init_TWI>
	init_RTC(32);	// Fast, 1/16 sec, for blinking LED at startup
    1032:	80 e2       	ldi	r24, 0x20	; 32
    1034:	90 e0       	ldi	r25, 0x00	; 0
    1036:	0e 94 cb 18 	call	0x3196	; 0x3196 <init_RTC>
	init_MMA8451();	// Accelerometer; needs TWI
    103a:	0e 94 b3 0a 	call	0x1566	; 0x1566 <init_MMA8451>
	init_OLED();	// Needs TWI
    103e:	0e 94 f2 0b 	call	0x17e4	; 0x17e4 <init_OLED>
	init_EEPROM();	// Needs TWI to get boot time from clock
    1042:	0e 94 96 06 	call	0xd2c	; 0xd2c <init_EEPROM>
	init_USART();
    1046:	0e 94 0e 1b 	call	0x361c	; 0x361c <init_USART>
	sei();
    104a:	78 94       	sei

	init_MOTORS();	// Needs USART & interrupts on
    104c:	0e 94 9d 18 	call	0x313a	; 0x313a <init_MOTORS>
	get_VERSION(versionstr);
    1050:	ce 01       	movw	r24, r28
    1052:	01 96       	adiw	r24, 0x01	; 1
    1054:	0e 94 58 06 	call	0xcb0	; 0xcb0 <get_VERSION>
	writestr_OLED(0,"specMech Version", 1);
    1058:	41 e0       	ldi	r20, 0x01	; 1
    105a:	61 ee       	ldi	r22, 0xE1	; 225
    105c:	7c e8       	ldi	r23, 0x8C	; 140
    105e:	80 e0       	ldi	r24, 0x00	; 0
    1060:	0e 94 03 0c 	call	0x1806	; 0x1806 <writestr_OLED>
	writestr_OLED(0, versionstr, 2);
    1064:	42 e0       	ldi	r20, 0x02	; 2
    1066:	be 01       	movw	r22, r28
    1068:	6f 5f       	subi	r22, 0xFF	; 255
    106a:	7f 4f       	sbci	r23, 0xFF	; 255
    106c:	80 e0       	ldi	r24, 0x00	; 0
    106e:	0e 94 03 0c 	call	0x1806	; 0x1806 <writestr_OLED>

}
    1072:	2b 96       	adiw	r28, 0x0b	; 11
    1074:	cd bf       	out	0x3d, r28	; 61
    1076:	de bf       	out	0x3e, r29	; 62
    1078:	df 91       	pop	r29
    107a:	cf 91       	pop	r28
    107c:	08 95       	ret

0000107e <read_ionpump>:
	Returns:
		The log10(pressure) where pressure is in Pascals. Subtracting 2.125
		from this value provides the log10(pressure) for pressure in Torr.
		If the voltage is out of range, -999.9 is returned..
------------------------------------------------------------------------------*/
float read_ionpump(uint8_t pumpid) {
    107e:	cf 92       	push	r12
    1080:	df 92       	push	r13
    1082:	ef 92       	push	r14
    1084:	ff 92       	push	r15
    1086:	0f 93       	push	r16
    1088:	1f 93       	push	r17
    108a:	cf 93       	push	r28
    108c:	df 93       	push	r29
    108e:	00 d0       	rcall	.+0      	; 0x1090 <read_ionpump+0x12>
    1090:	00 d0       	rcall	.+0      	; 0x1092 <read_ionpump+0x14>
    1092:	cd b7       	in	r28, 0x3d	; 61
    1094:	de b7       	in	r29, 0x3e	; 62

	uint8_t pins;
	float voltage, vacuum;

	if (pumpid == REDPUMP) {
    1096:	81 30       	cpi	r24, 0x01	; 1
    1098:	21 f0       	breq	.+8      	; 0x10a2 <read_ionpump+0x24>
		pins = AIN01;
	} else if (pumpid == BLUEPUMP) {
    109a:	82 30       	cpi	r24, 0x02	; 2
    109c:	c1 f5       	brne	.+112    	; 0x110e <read_ionpump+0x90>
		pins = AIN23;
    109e:	40 e3       	ldi	r20, 0x30	; 48
    10a0:	01 c0       	rjmp	.+2      	; 0x10a4 <read_ionpump+0x26>

	uint8_t pins;
	float voltage, vacuum;

	if (pumpid == REDPUMP) {
		pins = AIN01;
    10a2:	40 e0       	ldi	r20, 0x00	; 0
		pins = AIN23;
	} else {
		return(BADFLOAT);
	}

	if (read_ADS1115(ADC_IP, PGA4096, pins, DR128, &voltage) == ERROR) {
    10a4:	8e 01       	movw	r16, r28
    10a6:	0f 5f       	subi	r16, 0xFF	; 255
    10a8:	1f 4f       	sbci	r17, 0xFF	; 255
    10aa:	20 e8       	ldi	r18, 0x80	; 128
    10ac:	62 e0       	ldi	r22, 0x02	; 2
    10ae:	89 e4       	ldi	r24, 0x49	; 73
    10b0:	0e 94 c8 01 	call	0x390	; 0x390 <read_ADS1115>
    10b4:	83 36       	cpi	r24, 0x63	; 99
    10b6:	81 f1       	breq	.+96     	; 0x1118 <read_ionpump+0x9a>
		return(BADFLOAT);
	}
	if (voltage < 0.4) {						// Useful range for the Modion pump
    10b8:	c9 80       	ldd	r12, Y+1	; 0x01
    10ba:	da 80       	ldd	r13, Y+2	; 0x02
    10bc:	eb 80       	ldd	r14, Y+3	; 0x03
    10be:	fc 80       	ldd	r15, Y+4	; 0x04
    10c0:	2d ec       	ldi	r18, 0xCD	; 205
    10c2:	3c ec       	ldi	r19, 0xCC	; 204
    10c4:	4c ec       	ldi	r20, 0xCC	; 204
    10c6:	5e e3       	ldi	r21, 0x3E	; 62
    10c8:	c7 01       	movw	r24, r14
    10ca:	b6 01       	movw	r22, r12
    10cc:	0e 94 f6 1d 	call	0x3bec	; 0x3bec <__cmpsf2>
    10d0:	88 23       	and	r24, r24
    10d2:	3c f1       	brlt	.+78     	; 0x1122 <read_ionpump+0xa4>
		return(BADFLOAT);							// after ISO224 op-amp is 0.5 to 2.0 V
	} else if (voltage > 2.0) {
    10d4:	20 e0       	ldi	r18, 0x00	; 0
    10d6:	30 e0       	ldi	r19, 0x00	; 0
    10d8:	40 e0       	ldi	r20, 0x00	; 0
    10da:	50 e4       	ldi	r21, 0x40	; 64
    10dc:	c7 01       	movw	r24, r14
    10de:	b6 01       	movw	r22, r12
    10e0:	0e 94 1f 1f 	call	0x3e3e	; 0x3e3e <__gesf2>
    10e4:	18 16       	cp	r1, r24
    10e6:	14 f1       	brlt	.+68     	; 0x112c <read_ionpump+0xae>
		return(BADFLOAT);
	}

	vacuum = ISO224SLOPE * voltage + ISO224INTER;
    10e8:	29 e7       	ldi	r18, 0x79	; 121
    10ea:	39 ee       	ldi	r19, 0xE9	; 233
    10ec:	42 e0       	ldi	r20, 0x02	; 2
    10ee:	50 e4       	ldi	r21, 0x40	; 64
    10f0:	c7 01       	movw	r24, r14
    10f2:	b6 01       	movw	r22, r12
    10f4:	0e 94 24 1f 	call	0x3e48	; 0x3e48 <__mulsf3>
    10f8:	2e e6       	ldi	r18, 0x6E	; 110
    10fa:	33 ea       	ldi	r19, 0xA3	; 163
    10fc:	4b ed       	ldi	r20, 0xDB	; 219
    10fe:	50 e4       	ldi	r21, 0x40	; 64
    1100:	0e 94 89 1d 	call	0x3b12	; 0x3b12 <__subsf3>
	return(vacuum);
    1104:	56 2f       	mov	r21, r22
    1106:	47 2f       	mov	r20, r23
    1108:	38 2f       	mov	r19, r24
    110a:	29 2f       	mov	r18, r25
    110c:	13 c0       	rjmp	.+38     	; 0x1134 <read_ionpump+0xb6>
	if (pumpid == REDPUMP) {
		pins = AIN01;
	} else if (pumpid == BLUEPUMP) {
		pins = AIN23;
	} else {
		return(BADFLOAT);
    110e:	50 e0       	ldi	r21, 0x00	; 0
    1110:	40 e8       	ldi	r20, 0x80	; 128
    1112:	36 e2       	ldi	r19, 0x26	; 38
    1114:	24 ec       	ldi	r18, 0xC4	; 196
    1116:	0e c0       	rjmp	.+28     	; 0x1134 <read_ionpump+0xb6>
	}

	if (read_ADS1115(ADC_IP, PGA4096, pins, DR128, &voltage) == ERROR) {
		return(BADFLOAT);
    1118:	50 e0       	ldi	r21, 0x00	; 0
    111a:	40 e8       	ldi	r20, 0x80	; 128
    111c:	36 e2       	ldi	r19, 0x26	; 38
    111e:	24 ec       	ldi	r18, 0xC4	; 196
    1120:	09 c0       	rjmp	.+18     	; 0x1134 <read_ionpump+0xb6>
	}
	if (voltage < 0.4) {						// Useful range for the Modion pump
		return(BADFLOAT);							// after ISO224 op-amp is 0.5 to 2.0 V
    1122:	50 e0       	ldi	r21, 0x00	; 0
    1124:	40 e8       	ldi	r20, 0x80	; 128
    1126:	36 e2       	ldi	r19, 0x26	; 38
    1128:	24 ec       	ldi	r18, 0xC4	; 196
    112a:	04 c0       	rjmp	.+8      	; 0x1134 <read_ionpump+0xb6>
	} else if (voltage > 2.0) {
		return(BADFLOAT);
    112c:	50 e0       	ldi	r21, 0x00	; 0
    112e:	40 e8       	ldi	r20, 0x80	; 128
    1130:	36 e2       	ldi	r19, 0x26	; 38
    1132:	24 ec       	ldi	r18, 0xC4	; 196
	}

	vacuum = ISO224SLOPE * voltage + ISO224INTER;
	return(vacuum);

}
    1134:	65 2f       	mov	r22, r21
    1136:	74 2f       	mov	r23, r20
    1138:	83 2f       	mov	r24, r19
    113a:	92 2f       	mov	r25, r18
    113c:	24 96       	adiw	r28, 0x04	; 4
    113e:	cd bf       	out	0x3d, r28	; 61
    1140:	de bf       	out	0x3e, r29	; 62
    1142:	df 91       	pop	r29
    1144:	cf 91       	pop	r28
    1146:	1f 91       	pop	r17
    1148:	0f 91       	pop	r16
    114a:	ff 90       	pop	r15
    114c:	ef 90       	pop	r14
    114e:	df 90       	pop	r13
    1150:	cf 90       	pop	r12
    1152:	08 95       	ret

00001154 <main>:
void read_PNEUSensors(char*, char*, char*, char*);	//TESTING

int main(void)
{

	firstpass = YES;		// Set to NO in commands.c
    1154:	81 e0       	ldi	r24, 0x01	; 1
    1156:	80 93 0b 2a 	sts	0x2A0B, r24	; 0x802a0b <firstpass>
	squelchErrors = YES;	// Don't need this?
    115a:	80 93 01 28 	sts	0x2801, r24	; 0x802801 <squelchErrors>
	initialize();
    115e:	0e 94 02 08 	call	0x1004	; 0x1004 <initialize>
	squelchErrors = NO;
    1162:	10 92 01 28 	sts	0x2801, r1	; 0x802801 <squelchErrors>

	for (;;) {
		if (recv0_buf.done) {
    1166:	80 91 3c 2c 	lds	r24, 0x2C3C	; 0x802c3c <recv0_buf+0x103>
    116a:	88 23       	and	r24, r24
    116c:	21 f0       	breq	.+8      	; 0x1176 <main+0x22>
			recv0_buf.done = NO;
    116e:	10 92 3c 2c 	sts	0x2C3C, r1	; 0x802c3c <recv0_buf+0x103>
			commands();
    1172:	0e 94 5e 04 	call	0x8bc	; 0x8bc <commands>
		}
		if (timerOLED > timeoutOLED) {	// Display timeout
    1176:	20 91 0c 2a 	lds	r18, 0x2A0C	; 0x802a0c <timerOLED>
    117a:	30 91 0d 2a 	lds	r19, 0x2A0D	; 0x802a0d <timerOLED+0x1>
    117e:	80 91 0e 2a 	lds	r24, 0x2A0E	; 0x802a0e <timeoutOLED>
    1182:	90 91 0f 2a 	lds	r25, 0x2A0F	; 0x802a0f <timeoutOLED+0x1>
    1186:	82 17       	cp	r24, r18
    1188:	93 07       	cpc	r25, r19
    118a:	78 f4       	brcc	.+30     	; 0x11aa <main+0x56>
			squelchErrors = YES;
    118c:	81 e0       	ldi	r24, 0x01	; 1
    118e:	80 93 01 28 	sts	0x2801, r24	; 0x802801 <squelchErrors>
			clear_OLED(0);
    1192:	80 e0       	ldi	r24, 0x00	; 0
    1194:	0e 94 60 0c 	call	0x18c0	; 0x18c0 <clear_OLED>
			clear_OLED(1);
    1198:	81 e0       	ldi	r24, 0x01	; 1
    119a:	0e 94 60 0c 	call	0x18c0	; 0x18c0 <clear_OLED>
			timerOLED = 0;
    119e:	10 92 0c 2a 	sts	0x2A0C, r1	; 0x802a0c <timerOLED>
    11a2:	10 92 0d 2a 	sts	0x2A0D, r1	; 0x802a0d <timerOLED+0x1>
			squelchErrors = NO;
    11a6:	10 92 01 28 	sts	0x2801, r1	; 0x802801 <squelchErrors>
		} if ((timerSAVEENCODER > timeoutSAVEENCODER) && rebootackd) {
    11aa:	90 91 32 2a 	lds	r25, 0x2A32	; 0x802a32 <timerSAVEENCODER>
    11ae:	80 91 2d 2a 	lds	r24, 0x2A2D	; 0x802a2d <timeoutSAVEENCODER>
    11b2:	89 17       	cp	r24, r25
    11b4:	c0 f6       	brcc	.-80     	; 0x1166 <main+0x12>
    11b6:	80 91 02 28 	lds	r24, 0x2802	; 0x802802 <rebootackd>
    11ba:	88 23       	and	r24, r24
    11bc:	a1 f2       	breq	.-88     	; 0x1166 <main+0x12>
			squelchErrors = YES;
    11be:	81 e0       	ldi	r24, 0x01	; 1
    11c0:	80 93 01 28 	sts	0x2801, r24	; 0x802801 <squelchErrors>
			put_FRAM_ENCODERS();	// Maybe set a global error variable?
    11c4:	0e 94 95 16 	call	0x2d2a	; 0x2d2a <put_FRAM_ENCODERS>
			timerSAVEENCODER = 0;
    11c8:	10 92 32 2a 	sts	0x2A32, r1	; 0x802a32 <timerSAVEENCODER>
			squelchErrors = NO;
    11cc:	10 92 01 28 	sts	0x2801, r1	; 0x802801 <squelchErrors>
    11d0:	ca cf       	rjmp	.-108    	; 0x1166 <main+0x12>

000011d2 <read_MCP23008>:
	Returns:
		ERROR if TWI error
		NOERROR Otherwise
------------------------------------------------------------------------------*/
uint8_t read_MCP23008(uint8_t addr, uint8_t reg)
{
    11d2:	cf 93       	push	r28
    11d4:	df 93       	push	r29
    11d6:	c8 2f       	mov	r28, r24
    11d8:	d6 2f       	mov	r29, r22

	uint8_t value;

	if (start_TWI(addr, TWIWRITE) == ERROR) {
    11da:	60 e0       	ldi	r22, 0x00	; 0
    11dc:	0e 94 65 1a 	call	0x34ca	; 0x34ca <start_TWI>
    11e0:	83 36       	cpi	r24, 0x63	; 99
    11e2:	51 f4       	brne	.+20     	; 0x11f8 <read_MCP23008+0x26>
		printError(ERR_MCP23008, "MCP23008 read error");
    11e4:	62 ef       	ldi	r22, 0xF2	; 242
    11e6:	7c e8       	ldi	r23, 0x8C	; 140
    11e8:	82 e9       	ldi	r24, 0x92	; 146
    11ea:	91 e0       	ldi	r25, 0x01	; 1
    11ec:	0e 94 9b 06 	call	0xd36	; 0xd36 <printError>
		stop_TWI();
    11f0:	0e 94 b7 1a 	call	0x356e	; 0x356e <stop_TWI>
		return(0xFF);
    11f4:	8f ef       	ldi	r24, 0xFF	; 255
    11f6:	19 c0       	rjmp	.+50     	; 0x122a <read_MCP23008+0x58>
	}
	write_TWI(reg);
    11f8:	8d 2f       	mov	r24, r29
    11fa:	0e 94 bb 1a 	call	0x3576	; 0x3576 <write_TWI>
	if (start_TWI(addr, TWIREAD) == ERROR) {
    11fe:	61 e0       	ldi	r22, 0x01	; 1
    1200:	8c 2f       	mov	r24, r28
    1202:	0e 94 65 1a 	call	0x34ca	; 0x34ca <start_TWI>
    1206:	83 36       	cpi	r24, 0x63	; 99
    1208:	51 f4       	brne	.+20     	; 0x121e <read_MCP23008+0x4c>
		printError(ERR_MCP23008, "MCP23008 read error");
    120a:	62 ef       	ldi	r22, 0xF2	; 242
    120c:	7c e8       	ldi	r23, 0x8C	; 140
    120e:	82 e9       	ldi	r24, 0x92	; 146
    1210:	91 e0       	ldi	r25, 0x01	; 1
    1212:	0e 94 9b 06 	call	0xd36	; 0xd36 <printError>
		stop_TWI();
    1216:	0e 94 b7 1a 	call	0x356e	; 0x356e <stop_TWI>
		return(0xFF);
    121a:	8f ef       	ldi	r24, 0xFF	; 255
    121c:	06 c0       	rjmp	.+12     	; 0x122a <read_MCP23008+0x58>
	}
	value = readlast_TWI();
    121e:	0e 94 3e 1a 	call	0x347c	; 0x347c <readlast_TWI>
    1222:	c8 2f       	mov	r28, r24
	stop_TWI();
    1224:	0e 94 b7 1a 	call	0x356e	; 0x356e <stop_TWI>
	return(value);
    1228:	8c 2f       	mov	r24, r28

}
    122a:	df 91       	pop	r29
    122c:	cf 91       	pop	r28
    122e:	08 95       	ret

00001230 <write_MCP23008>:

	Returns:
		0 if OK, TWI error if not (see twi.c)
------------------------------------------------------------------------------*/
uint8_t write_MCP23008(uint8_t addr, uint8_t reg, uint8_t val)
{
    1230:	1f 93       	push	r17
    1232:	cf 93       	push	r28
    1234:	df 93       	push	r29
    1236:	d6 2f       	mov	r29, r22
    1238:	14 2f       	mov	r17, r20

	uint8_t retval;

	if (start_TWI(addr, TWIWRITE) == ERROR) {
    123a:	60 e0       	ldi	r22, 0x00	; 0
    123c:	0e 94 65 1a 	call	0x34ca	; 0x34ca <start_TWI>
    1240:	c8 2f       	mov	r28, r24
    1242:	83 36       	cpi	r24, 0x63	; 99
    1244:	49 f4       	brne	.+18     	; 0x1258 <write_MCP23008+0x28>
		printError(ERR_MCP23008, "MCP23008 write error");
    1246:	66 e0       	ldi	r22, 0x06	; 6
    1248:	7d e8       	ldi	r23, 0x8D	; 141
    124a:	82 e9       	ldi	r24, 0x92	; 146
    124c:	91 e0       	ldi	r25, 0x01	; 1
    124e:	0e 94 9b 06 	call	0xd36	; 0xd36 <printError>
		stop_TWI();
    1252:	0e 94 b7 1a 	call	0x356e	; 0x356e <stop_TWI>
		return(ERROR);
    1256:	15 c0       	rjmp	.+42     	; 0x1282 <write_MCP23008+0x52>
	}
	if ((retval = write_TWI(reg))) {
    1258:	8d 2f       	mov	r24, r29
    125a:	0e 94 bb 1a 	call	0x3576	; 0x3576 <write_TWI>
    125e:	88 23       	and	r24, r24
    1260:	21 f0       	breq	.+8      	; 0x126a <write_MCP23008+0x3a>
		stop_TWI();
    1262:	0e 94 b7 1a 	call	0x356e	; 0x356e <stop_TWI>
		return(ERROR);
    1266:	c3 e6       	ldi	r28, 0x63	; 99
    1268:	0c c0       	rjmp	.+24     	; 0x1282 <write_MCP23008+0x52>
	}
	if ((retval = write_TWI(val))) {
    126a:	81 2f       	mov	r24, r17
    126c:	0e 94 bb 1a 	call	0x3576	; 0x3576 <write_TWI>
    1270:	88 23       	and	r24, r24
    1272:	21 f0       	breq	.+8      	; 0x127c <write_MCP23008+0x4c>
		stop_TWI();
    1274:	0e 94 b7 1a 	call	0x356e	; 0x356e <stop_TWI>
		return(ERROR);
    1278:	c3 e6       	ldi	r28, 0x63	; 99
    127a:	03 c0       	rjmp	.+6      	; 0x1282 <write_MCP23008+0x52>
	}
	stop_TWI();
    127c:	0e 94 b7 1a 	call	0x356e	; 0x356e <stop_TWI>
	return(NOERROR);
    1280:	c0 e0       	ldi	r28, 0x00	; 0
	
}
    1282:	8c 2f       	mov	r24, r28
    1284:	df 91       	pop	r29
    1286:	cf 91       	pop	r28
    1288:	1f 91       	pop	r17
    128a:	08 95       	ret

0000128c <read_MCP9808>:
#include "errors.h"
#include "mcp9808.h"
#include "twi.h"

uint8_t read_MCP9808(float *temperature)
{
    128c:	8f 92       	push	r8
    128e:	9f 92       	push	r9
    1290:	af 92       	push	r10
    1292:	bf 92       	push	r11
    1294:	ff 92       	push	r15
    1296:	0f 93       	push	r16
    1298:	1f 93       	push	r17
    129a:	cf 93       	push	r28
    129c:	df 93       	push	r29
    129e:	8c 01       	movw	r16, r24

	uint8_t highbyte, lowbyte, sign;
	float temp;

	if (start_TWI(MCP9808ADDR, TWIWRITE) == ERROR) {
    12a0:	60 e0       	ldi	r22, 0x00	; 0
    12a2:	88 e1       	ldi	r24, 0x18	; 24
    12a4:	0e 94 65 1a 	call	0x34ca	; 0x34ca <start_TWI>
    12a8:	83 36       	cpi	r24, 0x63	; 99
    12aa:	51 f4       	brne	.+20     	; 0x12c0 <read_MCP9808+0x34>
		*temperature = BADFLOAT;
    12ac:	40 e0       	ldi	r20, 0x00	; 0
    12ae:	50 e8       	ldi	r21, 0x80	; 128
    12b0:	66 e2       	ldi	r22, 0x26	; 38
    12b2:	74 ec       	ldi	r23, 0xC4	; 196
    12b4:	f8 01       	movw	r30, r16
    12b6:	40 83       	st	Z, r20
    12b8:	51 83       	std	Z+1, r21	; 0x01
    12ba:	62 83       	std	Z+2, r22	; 0x02
    12bc:	73 83       	std	Z+3, r23	; 0x03
		return(ERROR);
    12be:	43 c0       	rjmp	.+134    	; 0x1346 <read_MCP9808+0xba>
	}
	write_TWI(TEMPREGISTER);
    12c0:	85 e0       	ldi	r24, 0x05	; 5
    12c2:	0e 94 bb 1a 	call	0x3576	; 0x3576 <write_TWI>
	start_TWI(MCP9808ADDR, TWIREAD);
    12c6:	61 e0       	ldi	r22, 0x01	; 1
    12c8:	88 e1       	ldi	r24, 0x18	; 24
    12ca:	0e 94 65 1a 	call	0x34ca	; 0x34ca <start_TWI>
	highbyte = read_TWI();
    12ce:	0e 94 14 1a 	call	0x3428	; 0x3428 <read_TWI>
    12d2:	c8 2f       	mov	r28, r24
	lowbyte = readlast_TWI();
    12d4:	0e 94 3e 1a 	call	0x347c	; 0x347c <readlast_TWI>
    12d8:	d8 2f       	mov	r29, r24
	stop_TWI();
    12da:	0e 94 b7 1a 	call	0x356e	; 0x356e <stop_TWI>

	sign = highbyte & 0x10;				// Save sign
    12de:	fc 2f       	mov	r31, r28
    12e0:	f0 71       	andi	r31, 0x10	; 16
    12e2:	ff 2e       	mov	r15, r31
	highbyte &= 0x0F;					// Clear threshold & sign bits
    12e4:	6c 2f       	mov	r22, r28
    12e6:	6f 70       	andi	r22, 0x0F	; 15
	temp = (((float)highbyte * 16.0) + ((float)lowbyte / 16.0));
    12e8:	70 e0       	ldi	r23, 0x00	; 0
    12ea:	80 e0       	ldi	r24, 0x00	; 0
    12ec:	90 e0       	ldi	r25, 0x00	; 0
    12ee:	0e 94 6d 1e 	call	0x3cda	; 0x3cda <__floatunsisf>
    12f2:	20 e0       	ldi	r18, 0x00	; 0
    12f4:	30 e0       	ldi	r19, 0x00	; 0
    12f6:	40 e8       	ldi	r20, 0x80	; 128
    12f8:	51 e4       	ldi	r21, 0x41	; 65
    12fa:	0e 94 24 1f 	call	0x3e48	; 0x3e48 <__mulsf3>
    12fe:	4b 01       	movw	r8, r22
    1300:	5c 01       	movw	r10, r24
    1302:	6d 2f       	mov	r22, r29
    1304:	70 e0       	ldi	r23, 0x00	; 0
    1306:	80 e0       	ldi	r24, 0x00	; 0
    1308:	90 e0       	ldi	r25, 0x00	; 0
    130a:	0e 94 6d 1e 	call	0x3cda	; 0x3cda <__floatunsisf>
    130e:	20 e0       	ldi	r18, 0x00	; 0
    1310:	30 e0       	ldi	r19, 0x00	; 0
    1312:	40 e8       	ldi	r20, 0x80	; 128
    1314:	5d e3       	ldi	r21, 0x3D	; 61
    1316:	0e 94 24 1f 	call	0x3e48	; 0x3e48 <__mulsf3>
    131a:	9b 01       	movw	r18, r22
    131c:	ac 01       	movw	r20, r24
    131e:	c5 01       	movw	r24, r10
    1320:	b4 01       	movw	r22, r8
    1322:	0e 94 8a 1d 	call	0x3b14	; 0x3b14 <__addsf3>
	if (sign) {
    1326:	ff 20       	and	r15, r15
    1328:	41 f0       	breq	.+16     	; 0x133a <read_MCP9808+0xae>
		temp = 256.0 - temp;
    132a:	9b 01       	movw	r18, r22
    132c:	ac 01       	movw	r20, r24
    132e:	60 e0       	ldi	r22, 0x00	; 0
    1330:	70 e0       	ldi	r23, 0x00	; 0
    1332:	80 e8       	ldi	r24, 0x80	; 128
    1334:	93 e4       	ldi	r25, 0x43	; 67
    1336:	0e 94 89 1d 	call	0x3b12	; 0x3b12 <__subsf3>
	}
	*temperature = temp;
    133a:	f8 01       	movw	r30, r16
    133c:	60 83       	st	Z, r22
    133e:	71 83       	std	Z+1, r23	; 0x01
    1340:	82 83       	std	Z+2, r24	; 0x02
    1342:	93 83       	std	Z+3, r25	; 0x03
	return(NOERROR);
    1344:	80 e0       	ldi	r24, 0x00	; 0
}
    1346:	df 91       	pop	r29
    1348:	cf 91       	pop	r28
    134a:	1f 91       	pop	r17
    134c:	0f 91       	pop	r16
    134e:	ff 90       	pop	r15
    1350:	bf 90       	pop	r11
    1352:	af 90       	pop	r10
    1354:	9f 90       	pop	r9
    1356:	8f 90       	pop	r8
    1358:	08 95       	ret

0000135a <read_MMA8451>:
	Returns:
		val - data starting in the MMA8451 register reg
		Function returns 0 if OK, TWI-error if not (see twi.c)
------------------------------------------------------------------------------*/
uint8_t read_MMA8451(uint8_t addr, uint8_t reg, uint8_t *val, uint8_t nbytes)
{
    135a:	ef 92       	push	r14
    135c:	ff 92       	push	r15
    135e:	0f 93       	push	r16
    1360:	1f 93       	push	r17
    1362:	cf 93       	push	r28
    1364:	df 93       	push	r29
    1366:	f8 2e       	mov	r15, r24
    1368:	e6 2e       	mov	r14, r22
    136a:	ea 01       	movw	r28, r20
    136c:	02 2f       	mov	r16, r18

	uint8_t i;

	if (start_TWI(addr, TWIWRITE) == ERROR) {
    136e:	60 e0       	ldi	r22, 0x00	; 0
    1370:	0e 94 65 1a 	call	0x34ca	; 0x34ca <start_TWI>
    1374:	18 2f       	mov	r17, r24
    1376:	83 36       	cpi	r24, 0x63	; 99
    1378:	19 f4       	brne	.+6      	; 0x1380 <read_MMA8451+0x26>
		stop_TWI();
    137a:	0e 94 b7 1a 	call	0x356e	; 0x356e <stop_TWI>
		return(ERROR);
    137e:	23 c0       	rjmp	.+70     	; 0x13c6 <read_MMA8451+0x6c>
	}
	if (write_TWI(reg) == ERROR) {
    1380:	8e 2d       	mov	r24, r14
    1382:	0e 94 bb 1a 	call	0x3576	; 0x3576 <write_TWI>
    1386:	18 2f       	mov	r17, r24
    1388:	83 36       	cpi	r24, 0x63	; 99
    138a:	e9 f0       	breq	.+58     	; 0x13c6 <read_MMA8451+0x6c>
		return(ERROR);
	}
	if (start_TWI(addr, TWIREAD) == ERROR) {
    138c:	61 e0       	ldi	r22, 0x01	; 1
    138e:	8f 2d       	mov	r24, r15
    1390:	0e 94 65 1a 	call	0x34ca	; 0x34ca <start_TWI>
    1394:	18 2f       	mov	r17, r24
    1396:	83 36       	cpi	r24, 0x63	; 99
    1398:	69 f4       	brne	.+26     	; 0x13b4 <read_MMA8451+0x5a>
		stop_TWI();
    139a:	0e 94 b7 1a 	call	0x356e	; 0x356e <stop_TWI>
		return(ERROR);
    139e:	13 c0       	rjmp	.+38     	; 0x13c6 <read_MMA8451+0x6c>
	}
	for (i = 1; i < nbytes; i++) {
		*val++ = read_TWI();
    13a0:	7e 01       	movw	r14, r28
    13a2:	8f ef       	ldi	r24, 0xFF	; 255
    13a4:	e8 1a       	sub	r14, r24
    13a6:	f8 0a       	sbc	r15, r24
    13a8:	0e 94 14 1a 	call	0x3428	; 0x3428 <read_TWI>
    13ac:	88 83       	st	Y, r24
	}
	if (start_TWI(addr, TWIREAD) == ERROR) {
		stop_TWI();
		return(ERROR);
	}
	for (i = 1; i < nbytes; i++) {
    13ae:	1f 5f       	subi	r17, 0xFF	; 255
		*val++ = read_TWI();
    13b0:	e7 01       	movw	r28, r14
    13b2:	01 c0       	rjmp	.+2      	; 0x13b6 <read_MMA8451+0x5c>
    13b4:	11 e0       	ldi	r17, 0x01	; 1
	}
	if (start_TWI(addr, TWIREAD) == ERROR) {
		stop_TWI();
		return(ERROR);
	}
	for (i = 1; i < nbytes; i++) {
    13b6:	10 17       	cp	r17, r16
    13b8:	98 f3       	brcs	.-26     	; 0x13a0 <read_MMA8451+0x46>
		*val++ = read_TWI();
	}
	*val = readlast_TWI();
    13ba:	0e 94 3e 1a 	call	0x347c	; 0x347c <readlast_TWI>
    13be:	88 83       	st	Y, r24
	stop_TWI();
    13c0:	0e 94 b7 1a 	call	0x356e	; 0x356e <stop_TWI>
	return(NOERROR);
    13c4:	10 e0       	ldi	r17, 0x00	; 0

}
    13c6:	81 2f       	mov	r24, r17
    13c8:	df 91       	pop	r29
    13ca:	cf 91       	pop	r28
    13cc:	1f 91       	pop	r17
    13ce:	0f 91       	pop	r16
    13d0:	ff 90       	pop	r15
    13d2:	ef 90       	pop	r14
    13d4:	08 95       	ret

000013d6 <get_orientation>:
uint8_t get_orientation(float *x, float *y, float *z)
	Put the accelerometer readout into x, y, and z after scaling to 980.6
	cm/s/s gravity.
------------------------------------------------------------------------------*/
uint8_t get_orientation(float *x, float *y, float *z)
{
    13d6:	cf 92       	push	r12
    13d8:	df 92       	push	r13
    13da:	ef 92       	push	r14
    13dc:	ff 92       	push	r15
    13de:	0f 93       	push	r16
    13e0:	1f 93       	push	r17
    13e2:	cf 93       	push	r28
    13e4:	df 93       	push	r29
    13e6:	cd b7       	in	r28, 0x3d	; 61
    13e8:	de b7       	in	r29, 0x3e	; 62
    13ea:	26 97       	sbiw	r28, 0x06	; 6
    13ec:	cd bf       	out	0x3d, r28	; 61
    13ee:	de bf       	out	0x3e, r29	; 62
    13f0:	6c 01       	movw	r12, r24
    13f2:	7b 01       	movw	r14, r22
    13f4:	8a 01       	movw	r16, r20

	uint8_t datain[6];
	int16_t ix, iy, iz;

	*x = *y = *z = BADFLOAT;
    13f6:	80 e0       	ldi	r24, 0x00	; 0
    13f8:	90 e8       	ldi	r25, 0x80	; 128
    13fa:	a6 e2       	ldi	r26, 0x26	; 38
    13fc:	b4 ec       	ldi	r27, 0xC4	; 196
    13fe:	fa 01       	movw	r30, r20
    1400:	80 83       	st	Z, r24
    1402:	91 83       	std	Z+1, r25	; 0x01
    1404:	a2 83       	std	Z+2, r26	; 0x02
    1406:	b3 83       	std	Z+3, r27	; 0x03
    1408:	fb 01       	movw	r30, r22
    140a:	80 83       	st	Z, r24
    140c:	91 83       	std	Z+1, r25	; 0x01
    140e:	a2 83       	std	Z+2, r26	; 0x02
    1410:	b3 83       	std	Z+3, r27	; 0x03
    1412:	f6 01       	movw	r30, r12
    1414:	80 83       	st	Z, r24
    1416:	91 83       	std	Z+1, r25	; 0x01
    1418:	a2 83       	std	Z+2, r26	; 0x02
    141a:	b3 83       	std	Z+3, r27	; 0x03

	if (read_MMA8451(MMA8451ADDR, MMA8451OUTXMSB, datain, 6) == ERROR) {
    141c:	26 e0       	ldi	r18, 0x06	; 6
    141e:	ae 01       	movw	r20, r28
    1420:	4f 5f       	subi	r20, 0xFF	; 255
    1422:	5f 4f       	sbci	r21, 0xFF	; 255
    1424:	61 e0       	ldi	r22, 0x01	; 1
    1426:	8d e1       	ldi	r24, 0x1D	; 29
    1428:	0e 94 ad 09 	call	0x135a	; 0x135a <read_MMA8451>
    142c:	83 36       	cpi	r24, 0x63	; 99
    142e:	09 f4       	brne	.+2      	; 0x1432 <get_orientation+0x5c>
    1430:	64 c0       	rjmp	.+200    	; 0x14fa <get_orientation+0x124>
		return(ERROR);
	}

	ix = datain[0];
    1432:	69 81       	ldd	r22, Y+1	; 0x01
    1434:	70 e0       	ldi	r23, 0x00	; 0
	ix <<= 8;
    1436:	76 2f       	mov	r23, r22
    1438:	66 27       	eor	r22, r22
	ix |= datain[1];
    143a:	8a 81       	ldd	r24, Y+2	; 0x02
    143c:	68 2b       	or	r22, r24
	ix >>= 2;
    143e:	75 95       	asr	r23
    1440:	67 95       	ror	r22
    1442:	75 95       	asr	r23
    1444:	67 95       	ror	r22
	*x = 980.6 * ((float) ix/4096.0);
    1446:	07 2e       	mov	r0, r23
    1448:	00 0c       	add	r0, r0
    144a:	88 0b       	sbc	r24, r24
    144c:	99 0b       	sbc	r25, r25
    144e:	0e 94 6f 1e 	call	0x3cde	; 0x3cde <__floatsisf>
    1452:	20 e0       	ldi	r18, 0x00	; 0
    1454:	30 e0       	ldi	r19, 0x00	; 0
    1456:	40 e8       	ldi	r20, 0x80	; 128
    1458:	59 e3       	ldi	r21, 0x39	; 57
    145a:	0e 94 24 1f 	call	0x3e48	; 0x3e48 <__mulsf3>
    145e:	26 e6       	ldi	r18, 0x66	; 102
    1460:	36 e2       	ldi	r19, 0x26	; 38
    1462:	45 e7       	ldi	r20, 0x75	; 117
    1464:	54 e4       	ldi	r21, 0x44	; 68
    1466:	0e 94 24 1f 	call	0x3e48	; 0x3e48 <__mulsf3>
    146a:	f6 01       	movw	r30, r12
    146c:	60 83       	st	Z, r22
    146e:	71 83       	std	Z+1, r23	; 0x01
    1470:	82 83       	std	Z+2, r24	; 0x02
    1472:	93 83       	std	Z+3, r25	; 0x03

	iy = datain[2];
    1474:	6b 81       	ldd	r22, Y+3	; 0x03
    1476:	70 e0       	ldi	r23, 0x00	; 0
	iy <<= 8;
    1478:	76 2f       	mov	r23, r22
    147a:	66 27       	eor	r22, r22
	iy |= datain[3];
    147c:	8c 81       	ldd	r24, Y+4	; 0x04
    147e:	68 2b       	or	r22, r24
	iy >>= 2;
    1480:	75 95       	asr	r23
    1482:	67 95       	ror	r22
    1484:	75 95       	asr	r23
    1486:	67 95       	ror	r22
	*y = 980.6 * ((float) iy/4096.0);
    1488:	07 2e       	mov	r0, r23
    148a:	00 0c       	add	r0, r0
    148c:	88 0b       	sbc	r24, r24
    148e:	99 0b       	sbc	r25, r25
    1490:	0e 94 6f 1e 	call	0x3cde	; 0x3cde <__floatsisf>
    1494:	20 e0       	ldi	r18, 0x00	; 0
    1496:	30 e0       	ldi	r19, 0x00	; 0
    1498:	40 e8       	ldi	r20, 0x80	; 128
    149a:	59 e3       	ldi	r21, 0x39	; 57
    149c:	0e 94 24 1f 	call	0x3e48	; 0x3e48 <__mulsf3>
    14a0:	26 e6       	ldi	r18, 0x66	; 102
    14a2:	36 e2       	ldi	r19, 0x26	; 38
    14a4:	45 e7       	ldi	r20, 0x75	; 117
    14a6:	54 e4       	ldi	r21, 0x44	; 68
    14a8:	0e 94 24 1f 	call	0x3e48	; 0x3e48 <__mulsf3>
    14ac:	f7 01       	movw	r30, r14
    14ae:	60 83       	st	Z, r22
    14b0:	71 83       	std	Z+1, r23	; 0x01
    14b2:	82 83       	std	Z+2, r24	; 0x02
    14b4:	93 83       	std	Z+3, r25	; 0x03

	iz = datain[4];
    14b6:	6d 81       	ldd	r22, Y+5	; 0x05
    14b8:	70 e0       	ldi	r23, 0x00	; 0
	iz <<= 8;
    14ba:	76 2f       	mov	r23, r22
    14bc:	66 27       	eor	r22, r22
	iz |= datain[5];
    14be:	8e 81       	ldd	r24, Y+6	; 0x06
    14c0:	68 2b       	or	r22, r24
	iz >>= 2;
    14c2:	75 95       	asr	r23
    14c4:	67 95       	ror	r22
    14c6:	75 95       	asr	r23
    14c8:	67 95       	ror	r22
	*z = 980.6 * ((float) iz/4096.0);
    14ca:	07 2e       	mov	r0, r23
    14cc:	00 0c       	add	r0, r0
    14ce:	88 0b       	sbc	r24, r24
    14d0:	99 0b       	sbc	r25, r25
    14d2:	0e 94 6f 1e 	call	0x3cde	; 0x3cde <__floatsisf>
    14d6:	20 e0       	ldi	r18, 0x00	; 0
    14d8:	30 e0       	ldi	r19, 0x00	; 0
    14da:	40 e8       	ldi	r20, 0x80	; 128
    14dc:	59 e3       	ldi	r21, 0x39	; 57
    14de:	0e 94 24 1f 	call	0x3e48	; 0x3e48 <__mulsf3>
    14e2:	26 e6       	ldi	r18, 0x66	; 102
    14e4:	36 e2       	ldi	r19, 0x26	; 38
    14e6:	45 e7       	ldi	r20, 0x75	; 117
    14e8:	54 e4       	ldi	r21, 0x44	; 68
    14ea:	0e 94 24 1f 	call	0x3e48	; 0x3e48 <__mulsf3>
    14ee:	f8 01       	movw	r30, r16
    14f0:	60 83       	st	Z, r22
    14f2:	71 83       	std	Z+1, r23	; 0x01
    14f4:	82 83       	std	Z+2, r24	; 0x02
    14f6:	93 83       	std	Z+3, r25	; 0x03

	return(0);
    14f8:	80 e0       	ldi	r24, 0x00	; 0

}
    14fa:	26 96       	adiw	r28, 0x06	; 6
    14fc:	cd bf       	out	0x3d, r28	; 61
    14fe:	de bf       	out	0x3e, r29	; 62
    1500:	df 91       	pop	r29
    1502:	cf 91       	pop	r28
    1504:	1f 91       	pop	r17
    1506:	0f 91       	pop	r16
    1508:	ff 90       	pop	r15
    150a:	ef 90       	pop	r14
    150c:	df 90       	pop	r13
    150e:	cf 90       	pop	r12
    1510:	08 95       	ret

00001512 <write_MMA8451>:

	Returns:
		0 if OK, TWI error if not (see twi.c)
------------------------------------------------------------------------------*/
uint8_t write_MMA8451(uint8_t addr, uint8_t reg, uint8_t val)
{
    1512:	1f 93       	push	r17
    1514:	cf 93       	push	r28
    1516:	df 93       	push	r29
    1518:	d6 2f       	mov	r29, r22
    151a:	14 2f       	mov	r17, r20

	uint8_t retval;

	if ((retval = start_TWI(addr, TWIWRITE))) {
    151c:	60 e0       	ldi	r22, 0x00	; 0
    151e:	0e 94 65 1a 	call	0x34ca	; 0x34ca <start_TWI>
    1522:	c8 2f       	mov	r28, r24
    1524:	88 23       	and	r24, r24
    1526:	21 f0       	breq	.+8      	; 0x1530 <write_MMA8451+0x1e>
		stop_TWI();
    1528:	0e 94 b7 1a 	call	0x356e	; 0x356e <stop_TWI>
		return(retval);
    152c:	8c 2f       	mov	r24, r28
    152e:	17 c0       	rjmp	.+46     	; 0x155e <write_MMA8451+0x4c>
	}
	if ((retval = write_TWI(reg))) {
    1530:	8d 2f       	mov	r24, r29
    1532:	0e 94 bb 1a 	call	0x3576	; 0x3576 <write_TWI>
    1536:	c8 2f       	mov	r28, r24
    1538:	88 23       	and	r24, r24
    153a:	21 f0       	breq	.+8      	; 0x1544 <write_MMA8451+0x32>
		stop_TWI();
    153c:	0e 94 b7 1a 	call	0x356e	; 0x356e <stop_TWI>
		return(retval);
    1540:	8c 2f       	mov	r24, r28
    1542:	0d c0       	rjmp	.+26     	; 0x155e <write_MMA8451+0x4c>
	}
	if ((retval = write_TWI(val))) {
    1544:	81 2f       	mov	r24, r17
    1546:	0e 94 bb 1a 	call	0x3576	; 0x3576 <write_TWI>
    154a:	c8 2f       	mov	r28, r24
    154c:	88 23       	and	r24, r24
    154e:	21 f0       	breq	.+8      	; 0x1558 <write_MMA8451+0x46>
		stop_TWI();
    1550:	0e 94 b7 1a 	call	0x356e	; 0x356e <stop_TWI>
		return(retval);
    1554:	8c 2f       	mov	r24, r28
    1556:	03 c0       	rjmp	.+6      	; 0x155e <write_MMA8451+0x4c>
	}
	stop_TWI();
    1558:	0e 94 b7 1a 	call	0x356e	; 0x356e <stop_TWI>
	return(0);
    155c:	80 e0       	ldi	r24, 0x00	; 0
	
}
    155e:	df 91       	pop	r29
    1560:	cf 91       	pop	r28
    1562:	1f 91       	pop	r17
    1564:	08 95       	ret

00001566 <init_MMA8451>:
	sampling frequency (1.56 Hz), a low cutoff frequency on the high pass
	filter (2.0 Hz), and oversampling and resolution. This gives us good
	consistency (better than 0.5 cm/s/s) at the cost of longer sampling times.
------------------------------------------------------------------------------*/
uint8_t init_MMA8451(void)
{
    1566:	cf 93       	push	r28
    1568:	df 93       	push	r29
    156a:	1f 92       	push	r1
    156c:	cd b7       	in	r28, 0x3d	; 61
    156e:	de b7       	in	r29, 0x3e	; 62

	uint8_t addr, retval;

	addr = MMA8451ADDR;
	write_MMA8451(addr, MMA8451CTRLREG2, 0x40);			// reset
    1570:	40 e4       	ldi	r20, 0x40	; 64
    1572:	6b e2       	ldi	r22, 0x2B	; 43
    1574:	8d e1       	ldi	r24, 0x1D	; 29
    1576:	0e 94 89 0a 	call	0x1512	; 0x1512 <write_MMA8451>
	read_MMA8451(addr, MMA8451CTRLREG2, &retval, 1);	// Wait to finish
    157a:	21 e0       	ldi	r18, 0x01	; 1
    157c:	ae 01       	movw	r20, r28
    157e:	4f 5f       	subi	r20, 0xFF	; 255
    1580:	5f 4f       	sbci	r21, 0xFF	; 255
    1582:	6b e2       	ldi	r22, 0x2B	; 43
    1584:	8d e1       	ldi	r24, 0x1D	; 29
    1586:	0e 94 ad 09 	call	0x135a	; 0x135a <read_MMA8451>
	while (retval & 0x40) {
    158a:	08 c0       	rjmp	.+16     	; 0x159c <init_MMA8451+0x36>
		read_MMA8451(addr, MMA8451CTRLREG2, &retval, 1);
    158c:	21 e0       	ldi	r18, 0x01	; 1
    158e:	ae 01       	movw	r20, r28
    1590:	4f 5f       	subi	r20, 0xFF	; 255
    1592:	5f 4f       	sbci	r21, 0xFF	; 255
    1594:	6b e2       	ldi	r22, 0x2B	; 43
    1596:	8d e1       	ldi	r24, 0x1D	; 29
    1598:	0e 94 ad 09 	call	0x135a	; 0x135a <read_MMA8451>
	uint8_t addr, retval;

	addr = MMA8451ADDR;
	write_MMA8451(addr, MMA8451CTRLREG2, 0x40);			// reset
	read_MMA8451(addr, MMA8451CTRLREG2, &retval, 1);	// Wait to finish
	while (retval & 0x40) {
    159c:	89 81       	ldd	r24, Y+1	; 0x01
    159e:	86 fd       	sbrc	r24, 6
    15a0:	f5 cf       	rjmp	.-22     	; 0x158c <init_MMA8451+0x26>
		read_MMA8451(addr, MMA8451CTRLREG2, &retval, 1);
	}

		// 2.0 Hz high frequency filter cutoff
	write_MMA8451(addr, MMA8451HFCUTOFF, 0b11000000);
    15a2:	40 ec       	ldi	r20, 0xC0	; 192
    15a4:	6f e0       	ldi	r22, 0x0F	; 15
    15a6:	8d e1       	ldi	r24, 0x1D	; 29
    15a8:	0e 94 89 0a 	call	0x1512	; 0x1512 <write_MMA8451>

		// High resolution mode
	write_MMA8451(addr, MMA8451CTRLREG2, 0b00000010);
    15ac:	42 e0       	ldi	r20, 0x02	; 2
    15ae:	6b e2       	ldi	r22, 0x2B	; 43
    15b0:	8d e1       	ldi	r24, 0x1D	; 29
    15b2:	0e 94 89 0a 	call	0x1512	; 0x1512 <write_MMA8451>

		// 1.56 Hz sampling, low noise, set active
	write_MMA8451(addr, MMA8451CTRLREG1, 0b00111101);
    15b6:	4d e3       	ldi	r20, 0x3D	; 61
    15b8:	6a e2       	ldi	r22, 0x2A	; 42
    15ba:	8d e1       	ldi	r24, 0x1D	; 29
    15bc:	0e 94 89 0a 	call	0x1512	; 0x1512 <write_MMA8451>

	return(retval);

}
    15c0:	89 81       	ldd	r24, Y+1	; 0x01
    15c2:	0f 90       	pop	r0
    15c4:	df 91       	pop	r29
    15c6:	cf 91       	pop	r28
    15c8:	08 95       	ret

000015ca <checksum_NMEA>:
/*------------------------------------------------------------------------------
void checksum_NMEA(char *str)
	Append checksum and \r\n to a string
------------------------------------------------------------------------------*/
void checksum_NMEA(char *str)
{
    15ca:	ef 92       	push	r14
    15cc:	ff 92       	push	r15
    15ce:	0f 93       	push	r16
    15d0:	1f 93       	push	r17
    15d2:	cf 93       	push	r28
    15d4:	df 93       	push	r29
    15d6:	cd b7       	in	r28, 0x3d	; 61
    15d8:	de b7       	in	r29, 0x3e	; 62
    15da:	2e 97       	sbiw	r28, 0x0e	; 14
    15dc:	cd bf       	out	0x3d, r28	; 61
    15de:	de bf       	out	0x3e, r29	; 62
    15e0:	8c 01       	movw	r16, r24
	const char format_CSM[] = "*%02X\r\n";
    15e2:	88 e0       	ldi	r24, 0x08	; 8
    15e4:	eb e1       	ldi	r30, 0x1B	; 27
    15e6:	fd e8       	ldi	r31, 0x8D	; 141
    15e8:	de 01       	movw	r26, r28
    15ea:	11 96       	adiw	r26, 0x01	; 1
    15ec:	01 90       	ld	r0, Z+
    15ee:	0d 92       	st	X+, r0
    15f0:	8a 95       	dec	r24
    15f2:	e1 f7       	brne	.-8      	; 0x15ec <checksum_NMEA+0x22>

	char chksum[6];
	uint8_t i, nchar, checksum;

	checksum = 0;
	nchar = strlen(str);
    15f4:	f8 01       	movw	r30, r16
    15f6:	01 90       	ld	r0, Z+
    15f8:	00 20       	and	r0, r0
    15fa:	e9 f7       	brne	.-6      	; 0x15f6 <checksum_NMEA+0x2c>
    15fc:	31 97       	sbiw	r30, 0x01	; 1
    15fe:	3e 2f       	mov	r19, r30
    1600:	30 1b       	sub	r19, r16
	const char format_CSM[] = "*%02X\r\n";

	char chksum[6];
	uint8_t i, nchar, checksum;

	checksum = 0;
    1602:	90 e0       	ldi	r25, 0x00	; 0
	nchar = strlen(str);
	for (i = 1; i < nchar; i++) {
    1604:	81 e0       	ldi	r24, 0x01	; 1
    1606:	06 c0       	rjmp	.+12     	; 0x1614 <checksum_NMEA+0x4a>
		checksum ^= str[i];
    1608:	f8 01       	movw	r30, r16
    160a:	e8 0f       	add	r30, r24
    160c:	f1 1d       	adc	r31, r1
    160e:	20 81       	ld	r18, Z
    1610:	92 27       	eor	r25, r18
	char chksum[6];
	uint8_t i, nchar, checksum;

	checksum = 0;
	nchar = strlen(str);
	for (i = 1; i < nchar; i++) {
    1612:	8f 5f       	subi	r24, 0xFF	; 255
    1614:	83 17       	cp	r24, r19
    1616:	c0 f3       	brcs	.-16     	; 0x1608 <checksum_NMEA+0x3e>
		checksum ^= str[i];
	}
	sprintf(chksum, format_CSM, checksum);
    1618:	1f 92       	push	r1
    161a:	9f 93       	push	r25
    161c:	ce 01       	movw	r24, r28
    161e:	01 96       	adiw	r24, 0x01	; 1
    1620:	9f 93       	push	r25
    1622:	8f 93       	push	r24
    1624:	7e 01       	movw	r14, r28
    1626:	89 e0       	ldi	r24, 0x09	; 9
    1628:	e8 0e       	add	r14, r24
    162a:	f1 1c       	adc	r15, r1
    162c:	ff 92       	push	r15
    162e:	ef 92       	push	r14
    1630:	0e 94 40 25 	call	0x4a80	; 0x4a80 <sprintf>
	strcat(str, chksum);
    1634:	b7 01       	movw	r22, r14
    1636:	c8 01       	movw	r24, r16
    1638:	0e 94 d2 24 	call	0x49a4	; 0x49a4 <strcat>

}
    163c:	0f 90       	pop	r0
    163e:	0f 90       	pop	r0
    1640:	0f 90       	pop	r0
    1642:	0f 90       	pop	r0
    1644:	0f 90       	pop	r0
    1646:	0f 90       	pop	r0
    1648:	2e 96       	adiw	r28, 0x0e	; 14
    164a:	cd bf       	out	0x3d, r28	; 61
    164c:	de bf       	out	0x3e, r29	; 62
    164e:	df 91       	pop	r29
    1650:	cf 91       	pop	r28
    1652:	1f 91       	pop	r17
    1654:	0f 91       	pop	r16
    1656:	ff 90       	pop	r15
    1658:	ef 90       	pop	r14
    165a:	08 95       	ret

0000165c <reset_OLED>:
void reset_OLED(void)
	Pulls the OLED display reset line low for 1 ms. This seems to be needed.
------------------------------------------------------------------------------*/
void reset_OLED(void)
{
	PORTD.OUTCLR = PIN6_bm;		// PD6 is the /RESET pin for the OLED displays
    165c:	e0 e6       	ldi	r30, 0x60	; 96
    165e:	f4 e0       	ldi	r31, 0x04	; 4
    1660:	80 e4       	ldi	r24, 0x40	; 64
    1662:	86 83       	std	Z+6, r24	; 0x06
	PORTD.DIRSET = PIN6_bm;
    1664:	81 83       	std	Z+1, r24	; 0x01
    1666:	a1 e4       	ldi	r26, 0x41	; 65
    1668:	b3 e0       	ldi	r27, 0x03	; 3
    166a:	11 97       	sbiw	r26, 0x01	; 1
    166c:	f1 f7       	brne	.-4      	; 0x166a <reset_OLED+0xe>
    166e:	00 00       	nop
	_delay_ms(1);				// Reset time
	PORTD.OUTSET = PIN6_bm;
    1670:	85 83       	std	Z+5, r24	; 0x05
    1672:	08 95       	ret

00001674 <write_OLED>:
	the screen. The next byte sent is either the  command or the screen
	character.

------------------------------------------------------------------------------*/
void write_OLED(uint8_t twiaddr, uint8_t type, uint8_t byteToSend)
{
    1674:	cf 93       	push	r28
    1676:	df 93       	push	r29
    1678:	d6 2f       	mov	r29, r22
    167a:	c4 2f       	mov	r28, r20

	start_TWI(twiaddr, TWIWRITE);
    167c:	60 e0       	ldi	r22, 0x00	; 0
    167e:	0e 94 65 1a 	call	0x34ca	; 0x34ca <start_TWI>
	write_TWI(type);
    1682:	8d 2f       	mov	r24, r29
    1684:	0e 94 bb 1a 	call	0x3576	; 0x3576 <write_TWI>
	write_TWI(byteToSend);
    1688:	8c 2f       	mov	r24, r28
    168a:	0e 94 bb 1a 	call	0x3576	; 0x3576 <write_TWI>
	stop_TWI();
    168e:	0e 94 b7 1a 	call	0x356e	; 0x356e <stop_TWI>

}
    1692:	df 91       	pop	r29
    1694:	cf 91       	pop	r28
    1696:	08 95       	ret

00001698 <init_OLEDDISPLAY>:
	Initialize a Newhaven NHD-0216AW-1B3 OLED display. This is taken straight
	from https://github.com/NewhavenDisplay/NHD_US2066. The manual is not easy
	to understand but this seems to work.
------------------------------------------------------------------------------*/
void init_OLEDDISPLAY(uint8_t displaynumber)
{
    1698:	cf 93       	push	r28

	uint8_t twiaddr;

	if (displaynumber == 0) {			// Right-side display
    169a:	88 23       	and	r24, r24
    169c:	29 f0       	breq	.+10     	; 0x16a8 <init_OLEDDISPLAY+0x10>
		twiaddr = OLEDADDR0;		
	} else if (displaynumber == 1) {	// Left-side display
    169e:	81 30       	cpi	r24, 0x01	; 1
    16a0:	09 f0       	breq	.+2      	; 0x16a4 <init_OLEDDISPLAY+0xc>
    16a2:	9e c0       	rjmp	.+316    	; 0x17e0 <init_OLEDDISPLAY+0x148>
		twiaddr = OLEDADDR1;
    16a4:	cd e3       	ldi	r28, 0x3D	; 61
    16a6:	01 c0       	rjmp	.+2      	; 0x16aa <init_OLEDDISPLAY+0x12>
{

	uint8_t twiaddr;

	if (displaynumber == 0) {			// Right-side display
		twiaddr = OLEDADDR0;		
    16a8:	cc e3       	ldi	r28, 0x3C	; 60
		twiaddr = OLEDADDR1;
	} else {
		return;
	}

	write_OLED(twiaddr, OLEDCMD, 0x2A);	// Function set (extended command set)
    16aa:	4a e2       	ldi	r20, 0x2A	; 42
    16ac:	60 e0       	ldi	r22, 0x00	; 0
    16ae:	8c 2f       	mov	r24, r28
    16b0:	0e 94 3a 0b 	call	0x1674	; 0x1674 <write_OLED>
	write_OLED(twiaddr, OLEDCMD, 0x71);	//function selection A
    16b4:	41 e7       	ldi	r20, 0x71	; 113
    16b6:	60 e0       	ldi	r22, 0x00	; 0
    16b8:	8c 2f       	mov	r24, r28
    16ba:	0e 94 3a 0b 	call	0x1674	; 0x1674 <write_OLED>
//	write_OLED(twiaddr, OLEDDATA, 0x00);	// disable internal VDD regulator (2.8V I/O). data(0x5C) = enable regulator (5V I/O)
	write_OLED(twiaddr, OLEDDATA, 0x5C);	// Enable internal VDD regulator (data(0x5C) = enable regulator (5V I/O)
    16be:	4c e5       	ldi	r20, 0x5C	; 92
    16c0:	60 e4       	ldi	r22, 0x40	; 64
    16c2:	8c 2f       	mov	r24, r28
    16c4:	0e 94 3a 0b 	call	0x1674	; 0x1674 <write_OLED>
	write_OLED(twiaddr, OLEDCMD, 0x28);	//function set (fundamental command set)
    16c8:	48 e2       	ldi	r20, 0x28	; 40
    16ca:	60 e0       	ldi	r22, 0x00	; 0
    16cc:	8c 2f       	mov	r24, r28
    16ce:	0e 94 3a 0b 	call	0x1674	; 0x1674 <write_OLED>
	write_OLED(twiaddr, OLEDCMD, 0x08);	//display off, cursor off, blink off
    16d2:	48 e0       	ldi	r20, 0x08	; 8
    16d4:	60 e0       	ldi	r22, 0x00	; 0
    16d6:	8c 2f       	mov	r24, r28
    16d8:	0e 94 3a 0b 	call	0x1674	; 0x1674 <write_OLED>
	write_OLED(twiaddr, OLEDCMD, 0x2A);	//function set (extended command set)
    16dc:	4a e2       	ldi	r20, 0x2A	; 42
    16de:	60 e0       	ldi	r22, 0x00	; 0
    16e0:	8c 2f       	mov	r24, r28
    16e2:	0e 94 3a 0b 	call	0x1674	; 0x1674 <write_OLED>
	write_OLED(twiaddr, OLEDCMD, 0x79);	//OLED command set enabled
    16e6:	49 e7       	ldi	r20, 0x79	; 121
    16e8:	60 e0       	ldi	r22, 0x00	; 0
    16ea:	8c 2f       	mov	r24, r28
    16ec:	0e 94 3a 0b 	call	0x1674	; 0x1674 <write_OLED>
	write_OLED(twiaddr, OLEDCMD, 0xD5);	//set display clock divide ratio/oscillator frequency
    16f0:	45 ed       	ldi	r20, 0xD5	; 213
    16f2:	60 e0       	ldi	r22, 0x00	; 0
    16f4:	8c 2f       	mov	r24, r28
    16f6:	0e 94 3a 0b 	call	0x1674	; 0x1674 <write_OLED>
	write_OLED(twiaddr, OLEDCMD, 0x70);	//set display clock divide ratio/oscillator frequency
    16fa:	40 e7       	ldi	r20, 0x70	; 112
    16fc:	60 e0       	ldi	r22, 0x00	; 0
    16fe:	8c 2f       	mov	r24, r28
    1700:	0e 94 3a 0b 	call	0x1674	; 0x1674 <write_OLED>
	write_OLED(twiaddr, OLEDCMD, 0x78);	//OLED command set disabled
    1704:	48 e7       	ldi	r20, 0x78	; 120
    1706:	60 e0       	ldi	r22, 0x00	; 0
    1708:	8c 2f       	mov	r24, r28
    170a:	0e 94 3a 0b 	call	0x1674	; 0x1674 <write_OLED>
	write_OLED(twiaddr, OLEDCMD, 0x08);	//extended function set (2-lines)
    170e:	48 e0       	ldi	r20, 0x08	; 8
    1710:	60 e0       	ldi	r22, 0x00	; 0
    1712:	8c 2f       	mov	r24, r28
    1714:	0e 94 3a 0b 	call	0x1674	; 0x1674 <write_OLED>
	write_OLED(twiaddr, OLEDCMD, 0x06);	//COM SEG direction
    1718:	46 e0       	ldi	r20, 0x06	; 6
    171a:	60 e0       	ldi	r22, 0x00	; 0
    171c:	8c 2f       	mov	r24, r28
    171e:	0e 94 3a 0b 	call	0x1674	; 0x1674 <write_OLED>
	write_OLED(twiaddr, OLEDCMD, 0x72);	//function selection B
    1722:	42 e7       	ldi	r20, 0x72	; 114
    1724:	60 e0       	ldi	r22, 0x00	; 0
    1726:	8c 2f       	mov	r24, r28
    1728:	0e 94 3a 0b 	call	0x1674	; 0x1674 <write_OLED>
	write_OLED(twiaddr, OLEDDATA, 0x00);	//ROM CGRAM selection
    172c:	40 e0       	ldi	r20, 0x00	; 0
    172e:	60 e4       	ldi	r22, 0x40	; 64
    1730:	8c 2f       	mov	r24, r28
    1732:	0e 94 3a 0b 	call	0x1674	; 0x1674 <write_OLED>
	write_OLED(twiaddr, OLEDCMD, 0x2A);	//function set (extended command set)
    1736:	4a e2       	ldi	r20, 0x2A	; 42
    1738:	60 e0       	ldi	r22, 0x00	; 0
    173a:	8c 2f       	mov	r24, r28
    173c:	0e 94 3a 0b 	call	0x1674	; 0x1674 <write_OLED>
	write_OLED(twiaddr, OLEDCMD, 0x79);	//OLED command set enabled
    1740:	49 e7       	ldi	r20, 0x79	; 121
    1742:	60 e0       	ldi	r22, 0x00	; 0
    1744:	8c 2f       	mov	r24, r28
    1746:	0e 94 3a 0b 	call	0x1674	; 0x1674 <write_OLED>
	write_OLED(twiaddr, OLEDCMD, 0xDA);	//set SEG pins hardware configuration
    174a:	4a ed       	ldi	r20, 0xDA	; 218
    174c:	60 e0       	ldi	r22, 0x00	; 0
    174e:	8c 2f       	mov	r24, r28
    1750:	0e 94 3a 0b 	call	0x1674	; 0x1674 <write_OLED>
	write_OLED(twiaddr, OLEDCMD, 0x00);	//set SEG pins hardware configuration
    1754:	40 e0       	ldi	r20, 0x00	; 0
    1756:	60 e0       	ldi	r22, 0x00	; 0
    1758:	8c 2f       	mov	r24, r28
    175a:	0e 94 3a 0b 	call	0x1674	; 0x1674 <write_OLED>
	write_OLED(twiaddr, OLEDCMD, 0xDC);	//function selection C
    175e:	4c ed       	ldi	r20, 0xDC	; 220
    1760:	60 e0       	ldi	r22, 0x00	; 0
    1762:	8c 2f       	mov	r24, r28
    1764:	0e 94 3a 0b 	call	0x1674	; 0x1674 <write_OLED>
	write_OLED(twiaddr, OLEDCMD, 0x00);	//function selection C
    1768:	40 e0       	ldi	r20, 0x00	; 0
    176a:	60 e0       	ldi	r22, 0x00	; 0
    176c:	8c 2f       	mov	r24, r28
    176e:	0e 94 3a 0b 	call	0x1674	; 0x1674 <write_OLED>
	write_OLED(twiaddr, OLEDCMD, 0x81);	//set contrast control
    1772:	41 e8       	ldi	r20, 0x81	; 129
    1774:	60 e0       	ldi	r22, 0x00	; 0
    1776:	8c 2f       	mov	r24, r28
    1778:	0e 94 3a 0b 	call	0x1674	; 0x1674 <write_OLED>
	write_OLED(twiaddr, OLEDCMD, 0x7F);	//set contrast control
    177c:	4f e7       	ldi	r20, 0x7F	; 127
    177e:	60 e0       	ldi	r22, 0x00	; 0
    1780:	8c 2f       	mov	r24, r28
    1782:	0e 94 3a 0b 	call	0x1674	; 0x1674 <write_OLED>
	write_OLED(twiaddr, OLEDCMD, 0xD9);	//set phase length
    1786:	49 ed       	ldi	r20, 0xD9	; 217
    1788:	60 e0       	ldi	r22, 0x00	; 0
    178a:	8c 2f       	mov	r24, r28
    178c:	0e 94 3a 0b 	call	0x1674	; 0x1674 <write_OLED>
	write_OLED(twiaddr, OLEDCMD, 0xF1);	//set phase length
    1790:	41 ef       	ldi	r20, 0xF1	; 241
    1792:	60 e0       	ldi	r22, 0x00	; 0
    1794:	8c 2f       	mov	r24, r28
    1796:	0e 94 3a 0b 	call	0x1674	; 0x1674 <write_OLED>
	write_OLED(twiaddr, OLEDCMD, 0xDB);	//set VCOMH deselect level
    179a:	4b ed       	ldi	r20, 0xDB	; 219
    179c:	60 e0       	ldi	r22, 0x00	; 0
    179e:	8c 2f       	mov	r24, r28
    17a0:	0e 94 3a 0b 	call	0x1674	; 0x1674 <write_OLED>
	write_OLED(twiaddr, OLEDCMD, 0x40);	//set VCOMH deselect level
    17a4:	40 e4       	ldi	r20, 0x40	; 64
    17a6:	60 e0       	ldi	r22, 0x00	; 0
    17a8:	8c 2f       	mov	r24, r28
    17aa:	0e 94 3a 0b 	call	0x1674	; 0x1674 <write_OLED>
	write_OLED(twiaddr, OLEDCMD, 0x78);	//OLED command set disabled
    17ae:	48 e7       	ldi	r20, 0x78	; 120
    17b0:	60 e0       	ldi	r22, 0x00	; 0
    17b2:	8c 2f       	mov	r24, r28
    17b4:	0e 94 3a 0b 	call	0x1674	; 0x1674 <write_OLED>
	write_OLED(twiaddr, OLEDCMD, 0x28);	//function set (fundamental command set)
    17b8:	48 e2       	ldi	r20, 0x28	; 40
    17ba:	60 e0       	ldi	r22, 0x00	; 0
    17bc:	8c 2f       	mov	r24, r28
    17be:	0e 94 3a 0b 	call	0x1674	; 0x1674 <write_OLED>
	write_OLED(twiaddr, OLEDCMD, 0x01);	//clear display
    17c2:	41 e0       	ldi	r20, 0x01	; 1
    17c4:	60 e0       	ldi	r22, 0x00	; 0
    17c6:	8c 2f       	mov	r24, r28
    17c8:	0e 94 3a 0b 	call	0x1674	; 0x1674 <write_OLED>
	write_OLED(twiaddr, OLEDCMD, 0x80);	//set DDRAM address to 0x00
    17cc:	40 e8       	ldi	r20, 0x80	; 128
    17ce:	60 e0       	ldi	r22, 0x00	; 0
    17d0:	8c 2f       	mov	r24, r28
    17d2:	0e 94 3a 0b 	call	0x1674	; 0x1674 <write_OLED>
	write_OLED(twiaddr, OLEDCMD, 0x0C);	// Display ON
    17d6:	4c e0       	ldi	r20, 0x0C	; 12
    17d8:	60 e0       	ldi	r22, 0x00	; 0
    17da:	8c 2f       	mov	r24, r28
    17dc:	0e 94 3a 0b 	call	0x1674	; 0x1674 <write_OLED>

}
    17e0:	cf 91       	pop	r28
    17e2:	08 95       	ret

000017e4 <init_OLED>:
	Set up the two OLED displays
------------------------------------------------------------------------------*/
void init_OLED(void)
{

	reset_OLED();				// Need to start with a reset
    17e4:	0e 94 2e 0b 	call	0x165c	; 0x165c <reset_OLED>
	init_OLEDDISPLAY(0);
    17e8:	80 e0       	ldi	r24, 0x00	; 0
    17ea:	0e 94 4c 0b 	call	0x1698	; 0x1698 <init_OLEDDISPLAY>
	init_OLEDDISPLAY(1);
    17ee:	81 e0       	ldi	r24, 0x01	; 1
    17f0:	0e 94 4c 0b 	call	0x1698	; 0x1698 <init_OLEDDISPLAY>
    17f4:	2a e6       	ldi	r18, 0x6A	; 106
    17f6:	84 e0       	ldi	r24, 0x04	; 4
    17f8:	91 e0       	ldi	r25, 0x01	; 1
    17fa:	21 50       	subi	r18, 0x01	; 1
    17fc:	80 40       	sbci	r24, 0x00	; 0
    17fe:	90 40       	sbci	r25, 0x00	; 0
    1800:	e1 f7       	brne	.-8      	; 0x17fa <init_OLED+0x16>
    1802:	00 c0       	rjmp	.+0      	; 0x1804 <__DATA_REGION_LENGTH__+0x4>
    1804:	08 95       	ret

00001806 <writestr_OLED>:
	
	This routine positions the cursor at the beginning of a line (1 or 2) pads
	the string with blanks, then writes the full 16 characters to the display.
------------------------------------------------------------------------------*/
void writestr_OLED(uint8_t displaynumber, char *str, uint8_t lineno)
{
    1806:	ef 92       	push	r14
    1808:	ff 92       	push	r15
    180a:	0f 93       	push	r16
    180c:	1f 93       	push	r17
    180e:	cf 93       	push	r28
    1810:	df 93       	push	r29
    1812:	cd b7       	in	r28, 0x3d	; 61
    1814:	de b7       	in	r29, 0x3e	; 62
    1816:	e2 97       	sbiw	r28, 0x32	; 50
    1818:	cd bf       	out	0x3d, r28	; 61
    181a:	de bf       	out	0x3e, r29	; 62
    181c:	14 2f       	mov	r17, r20

	uint8_t i, twiaddr;
	char strbuf[33];
	const char blanks[] = "                ";
    181e:	91 e1       	ldi	r25, 0x11	; 17
    1820:	e3 e2       	ldi	r30, 0x23	; 35
    1822:	fd e8       	ldi	r31, 0x8D	; 141
    1824:	de 01       	movw	r26, r28
    1826:	92 96       	adiw	r26, 0x22	; 34
    1828:	01 90       	ld	r0, Z+
    182a:	0d 92       	st	X+, r0
    182c:	9a 95       	dec	r25
    182e:	e1 f7       	brne	.-8      	; 0x1828 <writestr_OLED+0x22>

	if (displaynumber == 0) {
    1830:	81 11       	cpse	r24, r1
    1832:	02 c0       	rjmp	.+4      	; 0x1838 <writestr_OLED+0x32>
		twiaddr = OLEDADDR0;
    1834:	0c e3       	ldi	r16, 0x3C	; 60
    1836:	01 c0       	rjmp	.+2      	; 0x183a <writestr_OLED+0x34>
	} else {
		twiaddr = OLEDADDR1;
    1838:	0d e3       	ldi	r16, 0x3D	; 61
	}
	strcpy(strbuf, str);
    183a:	ce 01       	movw	r24, r28
    183c:	01 96       	adiw	r24, 0x01	; 1
    183e:	7c 01       	movw	r14, r24
    1840:	0e 94 dd 24 	call	0x49ba	; 0x49ba <strcpy>
	if (strlen(strbuf) > 16) {
    1844:	f7 01       	movw	r30, r14
    1846:	01 90       	ld	r0, Z+
    1848:	00 20       	and	r0, r0
    184a:	e9 f7       	brne	.-6      	; 0x1846 <writestr_OLED+0x40>
    184c:	31 97       	sbiw	r30, 0x01	; 1
    184e:	ee 19       	sub	r30, r14
    1850:	ff 09       	sbc	r31, r15
    1852:	71 97       	sbiw	r30, 0x11	; 17
    1854:	08 f0       	brcs	.+2      	; 0x1858 <writestr_OLED+0x52>
		strbuf[16] = '\0';
    1856:	19 8a       	std	Y+17, r1	; 0x11
	}
	strcat(strbuf, blanks);		// pad with blanks
    1858:	be 01       	movw	r22, r28
    185a:	6e 5d       	subi	r22, 0xDE	; 222
    185c:	7f 4f       	sbci	r23, 0xFF	; 255
    185e:	ce 01       	movw	r24, r28
    1860:	01 96       	adiw	r24, 0x01	; 1
    1862:	0e 94 d2 24 	call	0x49a4	; 0x49a4 <strcat>

	if (lineno == 1) {
    1866:	11 30       	cpi	r17, 0x01	; 1
    1868:	39 f4       	brne	.+14     	; 0x1878 <writestr_OLED+0x72>
		write_OLED(twiaddr, OLEDCMD, OLEDLINE1);
    186a:	40 e8       	ldi	r20, 0x80	; 128
    186c:	60 e0       	ldi	r22, 0x00	; 0
    186e:	80 2f       	mov	r24, r16
    1870:	0e 94 3a 0b 	call	0x1674	; 0x1674 <write_OLED>
	const char blanks[] = "                ";

	if (displaynumber == 0) {
		twiaddr = OLEDADDR0;
	} else {
		twiaddr = OLEDADDR1;
    1874:	10 e0       	ldi	r17, 0x00	; 0
    1876:	12 c0       	rjmp	.+36     	; 0x189c <writestr_OLED+0x96>

	if (lineno == 1) {
		write_OLED(twiaddr, OLEDCMD, OLEDLINE1);

	} else {
		write_OLED(twiaddr, OLEDCMD, OLEDLINE2);
    1878:	40 ec       	ldi	r20, 0xC0	; 192
    187a:	60 e0       	ldi	r22, 0x00	; 0
    187c:	80 2f       	mov	r24, r16
    187e:	0e 94 3a 0b 	call	0x1674	; 0x1674 <write_OLED>
    1882:	f8 cf       	rjmp	.-16     	; 0x1874 <writestr_OLED+0x6e>
	}

	for (i = 0; i < 16; i++) {
		write_OLED(twiaddr, OLEDDATA, strbuf[i]);
    1884:	e1 e0       	ldi	r30, 0x01	; 1
    1886:	f0 e0       	ldi	r31, 0x00	; 0
    1888:	ec 0f       	add	r30, r28
    188a:	fd 1f       	adc	r31, r29
    188c:	e1 0f       	add	r30, r17
    188e:	f1 1d       	adc	r31, r1
    1890:	40 81       	ld	r20, Z
    1892:	60 e4       	ldi	r22, 0x40	; 64
    1894:	80 2f       	mov	r24, r16
    1896:	0e 94 3a 0b 	call	0x1674	; 0x1674 <write_OLED>

	} else {
		write_OLED(twiaddr, OLEDCMD, OLEDLINE2);
	}

	for (i = 0; i < 16; i++) {
    189a:	1f 5f       	subi	r17, 0xFF	; 255
    189c:	10 31       	cpi	r17, 0x10	; 16
    189e:	90 f3       	brcs	.-28     	; 0x1884 <writestr_OLED+0x7e>
		write_OLED(twiaddr, OLEDDATA, strbuf[i]);
	}

	timerOLED = 1;
    18a0:	81 e0       	ldi	r24, 0x01	; 1
    18a2:	90 e0       	ldi	r25, 0x00	; 0
    18a4:	80 93 0c 2a 	sts	0x2A0C, r24	; 0x802a0c <timerOLED>
    18a8:	90 93 0d 2a 	sts	0x2A0D, r25	; 0x802a0d <timerOLED+0x1>

}
    18ac:	e2 96       	adiw	r28, 0x32	; 50
    18ae:	cd bf       	out	0x3d, r28	; 61
    18b0:	de bf       	out	0x3e, r29	; 62
    18b2:	df 91       	pop	r29
    18b4:	cf 91       	pop	r28
    18b6:	1f 91       	pop	r17
    18b8:	0f 91       	pop	r16
    18ba:	ff 90       	pop	r15
    18bc:	ef 90       	pop	r14
    18be:	08 95       	ret

000018c0 <clear_OLED>:
	Clears the OLED screen by writing blank spaces to both lines.
	
	TRY DOING writestr_OLED with zero length string since writestr pads w/blanks
------------------------------------------------------------------------------*/
void clear_OLED(uint8_t displaynumber)
{
    18c0:	1f 93       	push	r17
    18c2:	cf 93       	push	r28
    18c4:	df 93       	push	r29
    18c6:	1f 92       	push	r1
    18c8:	cd b7       	in	r28, 0x3d	; 61
    18ca:	de b7       	in	r29, 0x3e	; 62
    18cc:	18 2f       	mov	r17, r24

	char nullstr[] = "";
    18ce:	19 82       	std	Y+1, r1	; 0x01
	writestr_OLED(displaynumber, nullstr, 1);
    18d0:	41 e0       	ldi	r20, 0x01	; 1
    18d2:	be 01       	movw	r22, r28
    18d4:	6f 5f       	subi	r22, 0xFF	; 255
    18d6:	7f 4f       	sbci	r23, 0xFF	; 255
    18d8:	0e 94 03 0c 	call	0x1806	; 0x1806 <writestr_OLED>
	writestr_OLED(displaynumber, nullstr, 2);
    18dc:	42 e0       	ldi	r20, 0x02	; 2
    18de:	be 01       	movw	r22, r28
    18e0:	6f 5f       	subi	r22, 0xFF	; 255
    18e2:	7f 4f       	sbci	r23, 0xFF	; 255
    18e4:	81 2f       	mov	r24, r17
    18e6:	0e 94 03 0c 	call	0x1806	; 0x1806 <writestr_OLED>
	timerOLED = 0;
    18ea:	10 92 0c 2a 	sts	0x2A0C, r1	; 0x802a0c <timerOLED>
    18ee:	10 92 0d 2a 	sts	0x2A0D, r1	; 0x802a0d <timerOLED+0x1>

}
    18f2:	0f 90       	pop	r0
    18f4:	df 91       	pop	r29
    18f6:	cf 91       	pop	r28
    18f8:	1f 91       	pop	r17
    18fa:	08 95       	ret

000018fc <read_PNEUSensors>:
void read_PNEUSensors(char *shutter, char *left, char *right, char *air)
	Reports the GMR sensors on the shutter and Hartmann doors, as well as the
	state of the air pressure switch.
------------------------------------------------------------------------------*/
void read_PNEUSensors(char *shutter, char *left, char *right, char *air)
{
    18fc:	cf 92       	push	r12
    18fe:	df 92       	push	r13
    1900:	ef 92       	push	r14
    1902:	ff 92       	push	r15
    1904:	0f 93       	push	r16
    1906:	1f 93       	push	r17
    1908:	cf 93       	push	r28
    190a:	df 93       	push	r29
    190c:	6c 01       	movw	r12, r24
    190e:	8b 01       	movw	r16, r22
    1910:	7a 01       	movw	r14, r20
    1912:	e9 01       	movw	r28, r18

	uint8_t sensors, state;
// CHANGE TO pneuState????
	sensors = read_MCP23008(PNEUSENSORS, GPIO);	// NEEDS ERRORCHECK
    1914:	69 e0       	ldi	r22, 0x09	; 9
    1916:	81 e2       	ldi	r24, 0x21	; 33
    1918:	0e 94 e9 08 	call	0x11d2	; 0x11d2 <read_MCP23008>

	// Shutter
	state = sensors >> 6;
    191c:	98 2f       	mov	r25, r24
    191e:	92 95       	swap	r25
    1920:	96 95       	lsr	r25
    1922:	96 95       	lsr	r25
    1924:	93 70       	andi	r25, 0x03	; 3
	state &= 0b00000011;
	if (state == 1) {
    1926:	91 30       	cpi	r25, 0x01	; 1
    1928:	21 f4       	brne	.+8      	; 0x1932 <read_PNEUSensors+0x36>
		*shutter = 'c';
    192a:	93 e6       	ldi	r25, 0x63	; 99
    192c:	f6 01       	movw	r30, r12
    192e:	90 83       	st	Z, r25
    1930:	0f c0       	rjmp	.+30     	; 0x1950 <read_PNEUSensors+0x54>
	} else if (state == 2) {
    1932:	92 30       	cpi	r25, 0x02	; 2
    1934:	21 f4       	brne	.+8      	; 0x193e <read_PNEUSensors+0x42>
		*shutter = 'o';
    1936:	9f e6       	ldi	r25, 0x6F	; 111
    1938:	f6 01       	movw	r30, r12
    193a:	90 83       	st	Z, r25
    193c:	09 c0       	rjmp	.+18     	; 0x1950 <read_PNEUSensors+0x54>
	} else if (state == 3) {
    193e:	93 30       	cpi	r25, 0x03	; 3
    1940:	21 f4       	brne	.+8      	; 0x194a <read_PNEUSensors+0x4e>
		*shutter = 't';
    1942:	94 e7       	ldi	r25, 0x74	; 116
    1944:	f6 01       	movw	r30, r12
    1946:	90 83       	st	Z, r25
    1948:	03 c0       	rjmp	.+6      	; 0x1950 <read_PNEUSensors+0x54>
	} else {
		*shutter = 'x';
    194a:	98 e7       	ldi	r25, 0x78	; 120
    194c:	f6 01       	movw	r30, r12
    194e:	90 83       	st	Z, r25
	}

	// Right
	state = sensors >> 2;
    1950:	98 2f       	mov	r25, r24
    1952:	96 95       	lsr	r25
    1954:	96 95       	lsr	r25
	state &= 0b00000011;
    1956:	93 70       	andi	r25, 0x03	; 3
	if (state == 1) {
    1958:	91 30       	cpi	r25, 0x01	; 1
    195a:	21 f4       	brne	.+8      	; 0x1964 <read_PNEUSensors+0x68>
		*right = 'c';
    195c:	93 e6       	ldi	r25, 0x63	; 99
    195e:	f7 01       	movw	r30, r14
    1960:	90 83       	st	Z, r25
    1962:	0f c0       	rjmp	.+30     	; 0x1982 <read_PNEUSensors+0x86>
	} else if (state == 2) {
    1964:	92 30       	cpi	r25, 0x02	; 2
    1966:	21 f4       	brne	.+8      	; 0x1970 <read_PNEUSensors+0x74>
		*right = 'o';
    1968:	9f e6       	ldi	r25, 0x6F	; 111
    196a:	f7 01       	movw	r30, r14
    196c:	90 83       	st	Z, r25
    196e:	09 c0       	rjmp	.+18     	; 0x1982 <read_PNEUSensors+0x86>
	} else if (state == 3) {
    1970:	93 30       	cpi	r25, 0x03	; 3
    1972:	21 f4       	brne	.+8      	; 0x197c <read_PNEUSensors+0x80>
		*right = 't';
    1974:	94 e7       	ldi	r25, 0x74	; 116
    1976:	f7 01       	movw	r30, r14
    1978:	90 83       	st	Z, r25
    197a:	03 c0       	rjmp	.+6      	; 0x1982 <read_PNEUSensors+0x86>
	} else {
		*right = 'x';
    197c:	98 e7       	ldi	r25, 0x78	; 120
    197e:	f7 01       	movw	r30, r14
    1980:	90 83       	st	Z, r25
	}

	// Left
	state = sensors >> 4;
    1982:	98 2f       	mov	r25, r24
    1984:	92 95       	swap	r25
    1986:	9f 70       	andi	r25, 0x0F	; 15
	state &= 0b00000011;
    1988:	93 70       	andi	r25, 0x03	; 3
	if (state == 1) {
    198a:	91 30       	cpi	r25, 0x01	; 1
    198c:	21 f4       	brne	.+8      	; 0x1996 <read_PNEUSensors+0x9a>
		*left = 'o';
    198e:	9f e6       	ldi	r25, 0x6F	; 111
    1990:	f8 01       	movw	r30, r16
    1992:	90 83       	st	Z, r25
    1994:	0f c0       	rjmp	.+30     	; 0x19b4 <read_PNEUSensors+0xb8>
	} else if (state == 2) {
    1996:	92 30       	cpi	r25, 0x02	; 2
    1998:	21 f4       	brne	.+8      	; 0x19a2 <read_PNEUSensors+0xa6>
		*left = 'c';
    199a:	93 e6       	ldi	r25, 0x63	; 99
    199c:	f8 01       	movw	r30, r16
    199e:	90 83       	st	Z, r25
    19a0:	09 c0       	rjmp	.+18     	; 0x19b4 <read_PNEUSensors+0xb8>
	} else if (state == 3) {
    19a2:	93 30       	cpi	r25, 0x03	; 3
    19a4:	21 f4       	brne	.+8      	; 0x19ae <read_PNEUSensors+0xb2>
		*left = 't';
    19a6:	94 e7       	ldi	r25, 0x74	; 116
    19a8:	f8 01       	movw	r30, r16
    19aa:	90 83       	st	Z, r25
    19ac:	03 c0       	rjmp	.+6      	; 0x19b4 <read_PNEUSensors+0xb8>
	} else {
		*left = 'x';
    19ae:	98 e7       	ldi	r25, 0x78	; 120
    19b0:	f8 01       	movw	r30, r16
    19b2:	90 83       	st	Z, r25
	}

	// Air
	if (sensors & 0b00000010) {
    19b4:	81 ff       	sbrs	r24, 1
    19b6:	03 c0       	rjmp	.+6      	; 0x19be <read_PNEUSensors+0xc2>
		*air = '0';
    19b8:	80 e3       	ldi	r24, 0x30	; 48
    19ba:	88 83       	st	Y, r24
    19bc:	02 c0       	rjmp	.+4      	; 0x19c2 <read_PNEUSensors+0xc6>
	} else {
		*air = '1';
    19be:	81 e3       	ldi	r24, 0x31	; 49
    19c0:	88 83       	st	Y, r24
	}
}
    19c2:	df 91       	pop	r29
    19c4:	cf 91       	pop	r28
    19c6:	1f 91       	pop	r17
    19c8:	0f 91       	pop	r16
    19ca:	ff 90       	pop	r15
    19cc:	ef 90       	pop	r14
    19ce:	df 90       	pop	r13
    19d0:	cf 90       	pop	r12
    19d2:	08 95       	ret

000019d4 <set_PNEUVALVES>:
	Set the Clippard valves.
	Read the current valve state, AND that value with the new pattern, then
	write the new valve state.
------------------------------------------------------------------------------*/
uint8_t set_PNEUVALVES(uint8_t bitmap, uint8_t action)
{
    19d4:	cf 93       	push	r28
    19d6:	df 93       	push	r29
    19d8:	d8 2f       	mov	r29, r24
    19da:	c6 2f       	mov	r28, r22

	uint8_t retval, old_state, new_state;

	old_state = read_MCP23008(HIGHCURRENT, GPIO);
    19dc:	69 e0       	ldi	r22, 0x09	; 9
    19de:	84 e2       	ldi	r24, 0x24	; 36
    19e0:	0e 94 e9 08 	call	0x11d2	; 0x11d2 <read_MCP23008>
	new_state = ((old_state | bitmap) & action);
    19e4:	8d 2b       	or	r24, r29
    19e6:	48 2f       	mov	r20, r24
    19e8:	4c 23       	and	r20, r28

	if ((retval = write_MCP23008(HIGHCURRENT, OLAT, new_state))) {
    19ea:	6a e0       	ldi	r22, 0x0A	; 10
    19ec:	84 e2       	ldi	r24, 0x24	; 36
    19ee:	0e 94 18 09 	call	0x1230	; 0x1230 <write_MCP23008>
		return(retval);
	}

	return(0);

}
    19f2:	df 91       	pop	r29
    19f4:	cf 91       	pop	r28
    19f6:	08 95       	ret

000019f8 <close_PNEU>:
	Input:
		mech - a character that selects the shutter, left Hartmann door,
		right Hartmann door, or both doors.
------------------------------------------------------------------------------*/
uint8_t close_PNEU(uint8_t cstack)
{
    19f8:	cf 93       	push	r28
    19fa:	df 93       	push	r29
    19fc:	cd b7       	in	r28, 0x3d	; 61
    19fe:	de b7       	in	r29, 0x3e	; 62
    1a00:	6a 97       	sbiw	r28, 0x1a	; 26
    1a02:	cd bf       	out	0x3d, r28	; 61
    1a04:	de bf       	out	0x3e, r29	; 62

	const char dformat_CLO[] = "Close %s";
    1a06:	99 e0       	ldi	r25, 0x09	; 9
    1a08:	ee e6       	ldi	r30, 0x6E	; 110
    1a0a:	fd e8       	ldi	r31, 0x8D	; 141
    1a0c:	de 01       	movw	r26, r28
    1a0e:	11 96       	adiw	r26, 0x01	; 1
    1a10:	01 90       	ld	r0, Z+
    1a12:	0d 92       	st	X+, r0
    1a14:	9a 95       	dec	r25
    1a16:	e1 f7       	brne	.-8      	; 0x1a10 <close_PNEU+0x18>
	char outbuf[17];

	switch (pcmd[cstack].cobject) {
    1a18:	24 e3       	ldi	r18, 0x34	; 52
    1a1a:	82 9f       	mul	r24, r18
    1a1c:	c0 01       	movw	r24, r0
    1a1e:	11 24       	eor	r1, r1
    1a20:	fc 01       	movw	r30, r24
    1a22:	ed 5f       	subi	r30, 0xFD	; 253
    1a24:	f7 4d       	sbci	r31, 0xD7	; 215
    1a26:	81 81       	ldd	r24, Z+1	; 0x01
    1a28:	8c 36       	cpi	r24, 0x6C	; 108
    1a2a:	31 f1       	breq	.+76     	; 0x1a78 <close_PNEU+0x80>
    1a2c:	18 f4       	brcc	.+6      	; 0x1a34 <close_PNEU+0x3c>
    1a2e:	82 36       	cpi	r24, 0x62	; 98
    1a30:	39 f0       	breq	.+14     	; 0x1a40 <close_PNEU+0x48>
    1a32:	6a c0       	rjmp	.+212    	; 0x1b08 <close_PNEU+0x110>
    1a34:	82 37       	cpi	r24, 0x72	; 114
    1a36:	c1 f1       	breq	.+112    	; 0x1aa8 <close_PNEU+0xb0>
    1a38:	83 37       	cpi	r24, 0x73	; 115
    1a3a:	09 f4       	brne	.+2      	; 0x1a3e <close_PNEU+0x46>
    1a3c:	4d c0       	rjmp	.+154    	; 0x1ad8 <close_PNEU+0xe0>
    1a3e:	64 c0       	rjmp	.+200    	; 0x1b08 <close_PNEU+0x110>

		case 'b':
			set_PNEUVALVES(LEFTBM, LEFTCLOSE);
    1a40:	6a ee       	ldi	r22, 0xEA	; 234
    1a42:	84 e4       	ldi	r24, 0x44	; 68
    1a44:	0e 94 ea 0c 	call	0x19d4	; 0x19d4 <set_PNEUVALVES>
			set_PNEUVALVES(RIGHTBM, RIGHTCLOSE);
    1a48:	66 ee       	ldi	r22, 0xE6	; 230
    1a4a:	88 e8       	ldi	r24, 0x88	; 136
    1a4c:	0e 94 ea 0c 	call	0x19d4	; 0x19d4 <set_PNEUVALVES>
			sprintf(outbuf, dformat_CLO, "both");
    1a50:	84 e3       	ldi	r24, 0x34	; 52
    1a52:	9d e8       	ldi	r25, 0x8D	; 141
    1a54:	9f 93       	push	r25
    1a56:	8f 93       	push	r24
    1a58:	ce 01       	movw	r24, r28
    1a5a:	01 96       	adiw	r24, 0x01	; 1
    1a5c:	9f 93       	push	r25
    1a5e:	8f 93       	push	r24
    1a60:	09 96       	adiw	r24, 0x09	; 9
    1a62:	9f 93       	push	r25
    1a64:	8f 93       	push	r24
    1a66:	0e 94 40 25 	call	0x4a80	; 0x4a80 <sprintf>
			break;
    1a6a:	0f 90       	pop	r0
    1a6c:	0f 90       	pop	r0
    1a6e:	0f 90       	pop	r0
    1a70:	0f 90       	pop	r0
    1a72:	0f 90       	pop	r0
    1a74:	0f 90       	pop	r0
    1a76:	59 c0       	rjmp	.+178    	; 0x1b2a <close_PNEU+0x132>

		case 'l':
			set_PNEUVALVES(LEFTBM, LEFTCLOSE);
    1a78:	6a ee       	ldi	r22, 0xEA	; 234
    1a7a:	84 e4       	ldi	r24, 0x44	; 68
    1a7c:	0e 94 ea 0c 	call	0x19d4	; 0x19d4 <set_PNEUVALVES>
			sprintf(outbuf, dformat_CLO, "left");
    1a80:	89 e3       	ldi	r24, 0x39	; 57
    1a82:	9d e8       	ldi	r25, 0x8D	; 141
    1a84:	9f 93       	push	r25
    1a86:	8f 93       	push	r24
    1a88:	ce 01       	movw	r24, r28
    1a8a:	01 96       	adiw	r24, 0x01	; 1
    1a8c:	9f 93       	push	r25
    1a8e:	8f 93       	push	r24
    1a90:	09 96       	adiw	r24, 0x09	; 9
    1a92:	9f 93       	push	r25
    1a94:	8f 93       	push	r24
    1a96:	0e 94 40 25 	call	0x4a80	; 0x4a80 <sprintf>
			break;
    1a9a:	0f 90       	pop	r0
    1a9c:	0f 90       	pop	r0
    1a9e:	0f 90       	pop	r0
    1aa0:	0f 90       	pop	r0
    1aa2:	0f 90       	pop	r0
    1aa4:	0f 90       	pop	r0
    1aa6:	41 c0       	rjmp	.+130    	; 0x1b2a <close_PNEU+0x132>
			
		case 'r':
			set_PNEUVALVES(RIGHTBM, RIGHTCLOSE);
    1aa8:	66 ee       	ldi	r22, 0xE6	; 230
    1aaa:	88 e8       	ldi	r24, 0x88	; 136
    1aac:	0e 94 ea 0c 	call	0x19d4	; 0x19d4 <set_PNEUVALVES>
			sprintf(outbuf, dformat_CLO, "right");
    1ab0:	8e e3       	ldi	r24, 0x3E	; 62
    1ab2:	9d e8       	ldi	r25, 0x8D	; 141
    1ab4:	9f 93       	push	r25
    1ab6:	8f 93       	push	r24
    1ab8:	ce 01       	movw	r24, r28
    1aba:	01 96       	adiw	r24, 0x01	; 1
    1abc:	9f 93       	push	r25
    1abe:	8f 93       	push	r24
    1ac0:	09 96       	adiw	r24, 0x09	; 9
    1ac2:	9f 93       	push	r25
    1ac4:	8f 93       	push	r24
    1ac6:	0e 94 40 25 	call	0x4a80	; 0x4a80 <sprintf>
			break;
    1aca:	0f 90       	pop	r0
    1acc:	0f 90       	pop	r0
    1ace:	0f 90       	pop	r0
    1ad0:	0f 90       	pop	r0
    1ad2:	0f 90       	pop	r0
    1ad4:	0f 90       	pop	r0
    1ad6:	29 c0       	rjmp	.+82     	; 0x1b2a <close_PNEU+0x132>

		case 's':										// Close shutter
			set_PNEUVALVES(SHUTTERBM, SHUTTERCLOSE);
    1ad8:	6c ee       	ldi	r22, 0xEC	; 236
    1ada:	82 e2       	ldi	r24, 0x22	; 34
    1adc:	0e 94 ea 0c 	call	0x19d4	; 0x19d4 <set_PNEUVALVES>
			sprintf(outbuf, dformat_CLO, "shutter");
    1ae0:	84 e4       	ldi	r24, 0x44	; 68
    1ae2:	9d e8       	ldi	r25, 0x8D	; 141
    1ae4:	9f 93       	push	r25
    1ae6:	8f 93       	push	r24
    1ae8:	ce 01       	movw	r24, r28
    1aea:	01 96       	adiw	r24, 0x01	; 1
    1aec:	9f 93       	push	r25
    1aee:	8f 93       	push	r24
    1af0:	09 96       	adiw	r24, 0x09	; 9
    1af2:	9f 93       	push	r25
    1af4:	8f 93       	push	r24
    1af6:	0e 94 40 25 	call	0x4a80	; 0x4a80 <sprintf>
			break;
    1afa:	0f 90       	pop	r0
    1afc:	0f 90       	pop	r0
    1afe:	0f 90       	pop	r0
    1b00:	0f 90       	pop	r0
    1b02:	0f 90       	pop	r0
    1b04:	0f 90       	pop	r0
    1b06:	11 c0       	rjmp	.+34     	; 0x1b2a <close_PNEU+0x132>

		default:
			printError(ERR_PNUMECH, "close_PNEU bad object");
    1b08:	6c e4       	ldi	r22, 0x4C	; 76
    1b0a:	7d e8       	ldi	r23, 0x8D	; 141
    1b0c:	85 ef       	ldi	r24, 0xF5	; 245
    1b0e:	91 e0       	ldi	r25, 0x01	; 1
    1b10:	0e 94 9b 06 	call	0xd36	; 0xd36 <printError>
			strcpy(outbuf, "close what?");
    1b14:	8c e0       	ldi	r24, 0x0C	; 12
    1b16:	e2 e6       	ldi	r30, 0x62	; 98
    1b18:	fd e8       	ldi	r31, 0x8D	; 141
    1b1a:	de 01       	movw	r26, r28
    1b1c:	1a 96       	adiw	r26, 0x0a	; 10
    1b1e:	01 90       	ld	r0, Z+
    1b20:	0d 92       	st	X+, r0
    1b22:	8a 95       	dec	r24
    1b24:	e1 f7       	brne	.-8      	; 0x1b1e <close_PNEU+0x126>
			return(ERROR);
    1b26:	83 e6       	ldi	r24, 0x63	; 99
    1b28:	0b c0       	rjmp	.+22     	; 0x1b40 <close_PNEU+0x148>
			break;

	}

	clear_OLED(1);
    1b2a:	81 e0       	ldi	r24, 0x01	; 1
    1b2c:	0e 94 60 0c 	call	0x18c0	; 0x18c0 <clear_OLED>
	writestr_OLED(1, outbuf, 1);
    1b30:	41 e0       	ldi	r20, 0x01	; 1
    1b32:	be 01       	movw	r22, r28
    1b34:	66 5f       	subi	r22, 0xF6	; 246
    1b36:	7f 4f       	sbci	r23, 0xFF	; 255
    1b38:	81 e0       	ldi	r24, 0x01	; 1
    1b3a:	0e 94 03 0c 	call	0x1806	; 0x1806 <writestr_OLED>
	return(NOERROR);
    1b3e:	80 e0       	ldi	r24, 0x00	; 0

}
    1b40:	6a 96       	adiw	r28, 0x1a	; 26
    1b42:	cd bf       	out	0x3d, r28	; 61
    1b44:	de bf       	out	0x3e, r29	; 62
    1b46:	df 91       	pop	r29
    1b48:	cf 91       	pop	r28
    1b4a:	08 95       	ret

00001b4c <open_PNEU>:
	Input:
		mechanism - a character that selects the shutter, left Hartmann door,
		right Hartmann door, or both doors.
------------------------------------------------------------------------------*/
uint8_t open_PNEU(uint8_t cstack)
{
    1b4c:	cf 93       	push	r28
    1b4e:	df 93       	push	r29
    1b50:	cd b7       	in	r28, 0x3d	; 61
    1b52:	de b7       	in	r29, 0x3e	; 62
    1b54:	69 97       	sbiw	r28, 0x19	; 25
    1b56:	cd bf       	out	0x3d, r28	; 61
    1b58:	de bf       	out	0x3e, r29	; 62

	const char dformat_OPE[] = "Open %s";
    1b5a:	98 e0       	ldi	r25, 0x08	; 8
    1b5c:	e7 e9       	ldi	r30, 0x97	; 151
    1b5e:	fd e8       	ldi	r31, 0x8D	; 141
    1b60:	de 01       	movw	r26, r28
    1b62:	11 96       	adiw	r26, 0x01	; 1
    1b64:	01 90       	ld	r0, Z+
    1b66:	0d 92       	st	X+, r0
    1b68:	9a 95       	dec	r25
    1b6a:	e1 f7       	brne	.-8      	; 0x1b64 <open_PNEU+0x18>
	char outbuf[17];

	switch (pcmd[cstack].cobject) {
    1b6c:	24 e3       	ldi	r18, 0x34	; 52
    1b6e:	82 9f       	mul	r24, r18
    1b70:	c0 01       	movw	r24, r0
    1b72:	11 24       	eor	r1, r1
    1b74:	fc 01       	movw	r30, r24
    1b76:	ed 5f       	subi	r30, 0xFD	; 253
    1b78:	f7 4d       	sbci	r31, 0xD7	; 215
    1b7a:	81 81       	ldd	r24, Z+1	; 0x01
    1b7c:	8c 36       	cpi	r24, 0x6C	; 108
    1b7e:	31 f1       	breq	.+76     	; 0x1bcc <open_PNEU+0x80>
    1b80:	18 f4       	brcc	.+6      	; 0x1b88 <open_PNEU+0x3c>
    1b82:	82 36       	cpi	r24, 0x62	; 98
    1b84:	39 f0       	breq	.+14     	; 0x1b94 <open_PNEU+0x48>
    1b86:	6a c0       	rjmp	.+212    	; 0x1c5c <open_PNEU+0x110>
    1b88:	82 37       	cpi	r24, 0x72	; 114
    1b8a:	c1 f1       	breq	.+112    	; 0x1bfc <open_PNEU+0xb0>
    1b8c:	83 37       	cpi	r24, 0x73	; 115
    1b8e:	09 f4       	brne	.+2      	; 0x1b92 <open_PNEU+0x46>
    1b90:	4d c0       	rjmp	.+154    	; 0x1c2c <open_PNEU+0xe0>
    1b92:	64 c0       	rjmp	.+200    	; 0x1c5c <open_PNEU+0x110>

		case 'b':
			set_PNEUVALVES(LEFTBM, LEFTOPEN);
    1b94:	6e ea       	ldi	r22, 0xAE	; 174
    1b96:	84 e4       	ldi	r24, 0x44	; 68
    1b98:	0e 94 ea 0c 	call	0x19d4	; 0x19d4 <set_PNEUVALVES>
			set_PNEUVALVES(RIGHTBM, RIGHTOPEN);
    1b9c:	6e e6       	ldi	r22, 0x6E	; 110
    1b9e:	88 e8       	ldi	r24, 0x88	; 136
    1ba0:	0e 94 ea 0c 	call	0x19d4	; 0x19d4 <set_PNEUVALVES>
			sprintf(outbuf, dformat_OPE, "both");
    1ba4:	84 e3       	ldi	r24, 0x34	; 52
    1ba6:	9d e8       	ldi	r25, 0x8D	; 141
    1ba8:	9f 93       	push	r25
    1baa:	8f 93       	push	r24
    1bac:	ce 01       	movw	r24, r28
    1bae:	01 96       	adiw	r24, 0x01	; 1
    1bb0:	9f 93       	push	r25
    1bb2:	8f 93       	push	r24
    1bb4:	08 96       	adiw	r24, 0x08	; 8
    1bb6:	9f 93       	push	r25
    1bb8:	8f 93       	push	r24
    1bba:	0e 94 40 25 	call	0x4a80	; 0x4a80 <sprintf>
			break;
    1bbe:	0f 90       	pop	r0
    1bc0:	0f 90       	pop	r0
    1bc2:	0f 90       	pop	r0
    1bc4:	0f 90       	pop	r0
    1bc6:	0f 90       	pop	r0
    1bc8:	0f 90       	pop	r0
    1bca:	59 c0       	rjmp	.+178    	; 0x1c7e <open_PNEU+0x132>

		case 'l':
			set_PNEUVALVES(LEFTBM, LEFTOPEN);
    1bcc:	6e ea       	ldi	r22, 0xAE	; 174
    1bce:	84 e4       	ldi	r24, 0x44	; 68
    1bd0:	0e 94 ea 0c 	call	0x19d4	; 0x19d4 <set_PNEUVALVES>
			sprintf(outbuf, dformat_OPE, "left");
    1bd4:	89 e3       	ldi	r24, 0x39	; 57
    1bd6:	9d e8       	ldi	r25, 0x8D	; 141
    1bd8:	9f 93       	push	r25
    1bda:	8f 93       	push	r24
    1bdc:	ce 01       	movw	r24, r28
    1bde:	01 96       	adiw	r24, 0x01	; 1
    1be0:	9f 93       	push	r25
    1be2:	8f 93       	push	r24
    1be4:	08 96       	adiw	r24, 0x08	; 8
    1be6:	9f 93       	push	r25
    1be8:	8f 93       	push	r24
    1bea:	0e 94 40 25 	call	0x4a80	; 0x4a80 <sprintf>
			break;
    1bee:	0f 90       	pop	r0
    1bf0:	0f 90       	pop	r0
    1bf2:	0f 90       	pop	r0
    1bf4:	0f 90       	pop	r0
    1bf6:	0f 90       	pop	r0
    1bf8:	0f 90       	pop	r0
    1bfa:	41 c0       	rjmp	.+130    	; 0x1c7e <open_PNEU+0x132>
		
		case 'r':
			set_PNEUVALVES(RIGHTBM, RIGHTOPEN);
    1bfc:	6e e6       	ldi	r22, 0x6E	; 110
    1bfe:	88 e8       	ldi	r24, 0x88	; 136
    1c00:	0e 94 ea 0c 	call	0x19d4	; 0x19d4 <set_PNEUVALVES>
			sprintf(outbuf, dformat_OPE, "right");
    1c04:	8e e3       	ldi	r24, 0x3E	; 62
    1c06:	9d e8       	ldi	r25, 0x8D	; 141
    1c08:	9f 93       	push	r25
    1c0a:	8f 93       	push	r24
    1c0c:	ce 01       	movw	r24, r28
    1c0e:	01 96       	adiw	r24, 0x01	; 1
    1c10:	9f 93       	push	r25
    1c12:	8f 93       	push	r24
    1c14:	08 96       	adiw	r24, 0x08	; 8
    1c16:	9f 93       	push	r25
    1c18:	8f 93       	push	r24
    1c1a:	0e 94 40 25 	call	0x4a80	; 0x4a80 <sprintf>
			break;
    1c1e:	0f 90       	pop	r0
    1c20:	0f 90       	pop	r0
    1c22:	0f 90       	pop	r0
    1c24:	0f 90       	pop	r0
    1c26:	0f 90       	pop	r0
    1c28:	0f 90       	pop	r0
    1c2a:	29 c0       	rjmp	.+82     	; 0x1c7e <open_PNEU+0x132>

		case 's':
			set_PNEUVALVES(SHUTTERBM, SHUTTEROPEN);
    1c2c:	6e ec       	ldi	r22, 0xCE	; 206
    1c2e:	82 e2       	ldi	r24, 0x22	; 34
    1c30:	0e 94 ea 0c 	call	0x19d4	; 0x19d4 <set_PNEUVALVES>
			sprintf(outbuf, dformat_OPE, "shutter");
    1c34:	84 e4       	ldi	r24, 0x44	; 68
    1c36:	9d e8       	ldi	r25, 0x8D	; 141
    1c38:	9f 93       	push	r25
    1c3a:	8f 93       	push	r24
    1c3c:	ce 01       	movw	r24, r28
    1c3e:	01 96       	adiw	r24, 0x01	; 1
    1c40:	9f 93       	push	r25
    1c42:	8f 93       	push	r24
    1c44:	08 96       	adiw	r24, 0x08	; 8
    1c46:	9f 93       	push	r25
    1c48:	8f 93       	push	r24
    1c4a:	0e 94 40 25 	call	0x4a80	; 0x4a80 <sprintf>
			break;
    1c4e:	0f 90       	pop	r0
    1c50:	0f 90       	pop	r0
    1c52:	0f 90       	pop	r0
    1c54:	0f 90       	pop	r0
    1c56:	0f 90       	pop	r0
    1c58:	0f 90       	pop	r0
    1c5a:	11 c0       	rjmp	.+34     	; 0x1c7e <open_PNEU+0x132>

		default:
			printError(ERR_PNUMECH, "open_PNEU bad object");
    1c5c:	67 e7       	ldi	r22, 0x77	; 119
    1c5e:	7d e8       	ldi	r23, 0x8D	; 141
    1c60:	85 ef       	ldi	r24, 0xF5	; 245
    1c62:	91 e0       	ldi	r25, 0x01	; 1
    1c64:	0e 94 9b 06 	call	0xd36	; 0xd36 <printError>
			strcpy(outbuf, "open what?");
    1c68:	8b e0       	ldi	r24, 0x0B	; 11
    1c6a:	ec e8       	ldi	r30, 0x8C	; 140
    1c6c:	fd e8       	ldi	r31, 0x8D	; 141
    1c6e:	de 01       	movw	r26, r28
    1c70:	19 96       	adiw	r26, 0x09	; 9
    1c72:	01 90       	ld	r0, Z+
    1c74:	0d 92       	st	X+, r0
    1c76:	8a 95       	dec	r24
    1c78:	e1 f7       	brne	.-8      	; 0x1c72 <open_PNEU+0x126>
			return(ERROR);
    1c7a:	83 e6       	ldi	r24, 0x63	; 99
    1c7c:	0b c0       	rjmp	.+22     	; 0x1c94 <open_PNEU+0x148>
			break;

	}

	clear_OLED(1);
    1c7e:	81 e0       	ldi	r24, 0x01	; 1
    1c80:	0e 94 60 0c 	call	0x18c0	; 0x18c0 <clear_OLED>
	writestr_OLED(1, outbuf, 1);
    1c84:	41 e0       	ldi	r20, 0x01	; 1
    1c86:	be 01       	movw	r22, r28
    1c88:	67 5f       	subi	r22, 0xF7	; 247
    1c8a:	7f 4f       	sbci	r23, 0xFF	; 255
    1c8c:	81 e0       	ldi	r24, 0x01	; 1
    1c8e:	0e 94 03 0c 	call	0x1806	; 0x1806 <writestr_OLED>
	return(NOERROR);
    1c92:	80 e0       	ldi	r24, 0x00	; 0

}
    1c94:	69 96       	adiw	r28, 0x19	; 25
    1c96:	cd bf       	out	0x3d, r28	; 61
    1c98:	de bf       	out	0x3e, r29	; 62
    1c9a:	df 91       	pop	r29
    1c9c:	cf 91       	pop	r28
    1c9e:	08 95       	ret

00001ca0 <__vector_20>:

}
*/

ISR(PORTD_PORT_vect)
{
    1ca0:	1f 92       	push	r1
    1ca2:	0f 92       	push	r0
    1ca4:	0f b6       	in	r0, 0x3f	; 63
    1ca6:	0f 92       	push	r0
    1ca8:	11 24       	eor	r1, r1
    1caa:	2f 93       	push	r18
    1cac:	3f 93       	push	r19
    1cae:	4f 93       	push	r20
    1cb0:	5f 93       	push	r21
    1cb2:	6f 93       	push	r22
    1cb4:	7f 93       	push	r23
    1cb6:	8f 93       	push	r24
    1cb8:	9f 93       	push	r25
    1cba:	af 93       	push	r26
    1cbc:	bf 93       	push	r27
    1cbe:	ef 93       	push	r30
    1cc0:	ff 93       	push	r31

	if (PORTD.INTFLAGS & PIN7_bm) {		// Curiosity Nano button
    1cc2:	80 91 69 04 	lds	r24, 0x0469	; 0x800469 <__TEXT_REGION_LENGTH__+0x7f4469>
    1cc6:	88 23       	and	r24, r24
    1cc8:	4c f4       	brge	.+18     	; 0x1cdc <__vector_20+0x3c>
		PORTD.INTFLAGS = PIN7_bm;		// Clear the interrupt flag
    1cca:	80 e8       	ldi	r24, 0x80	; 128
    1ccc:	80 93 69 04 	sts	0x0469, r24	; 0x800469 <__TEXT_REGION_LENGTH__+0x7f4469>
		pneuState = read_MCP23008(PNEUSENSORS, INTCAP);
    1cd0:	68 e0       	ldi	r22, 0x08	; 8
    1cd2:	81 e2       	ldi	r24, 0x21	; 33
    1cd4:	0e 94 e9 08 	call	0x11d2	; 0x11d2 <read_MCP23008>
    1cd8:	80 93 10 2a 	sts	0x2A10, r24	; 0x802a10 <pneuState>
	}

}
    1cdc:	ff 91       	pop	r31
    1cde:	ef 91       	pop	r30
    1ce0:	bf 91       	pop	r27
    1ce2:	af 91       	pop	r26
    1ce4:	9f 91       	pop	r25
    1ce6:	8f 91       	pop	r24
    1ce8:	7f 91       	pop	r23
    1cea:	6f 91       	pop	r22
    1cec:	5f 91       	pop	r21
    1cee:	4f 91       	pop	r20
    1cf0:	3f 91       	pop	r19
    1cf2:	2f 91       	pop	r18
    1cf4:	0f 90       	pop	r0
    1cf6:	0f be       	out	0x3f, r0	; 63
    1cf8:	0f 90       	pop	r0
    1cfa:	1f 90       	pop	r1
    1cfc:	18 95       	reti

00001cfe <init_PORTS>:
void init_PORTS(void)
------------------------------------------------------------------------------*/
void init_PORTS(void)
{

	PORTB.DIRSET = PIN2_bm;		// Beeper
    1cfe:	84 e0       	ldi	r24, 0x04	; 4
    1d00:	80 93 21 04 	sts	0x0421, r24	; 0x800421 <__TEXT_REGION_LENGTH__+0x7f4421>
	PORTF.DIRCLR = PIN2_bm;		// specID jumper
    1d04:	e0 ea       	ldi	r30, 0xA0	; 160
    1d06:	f4 e0       	ldi	r31, 0x04	; 4
    1d08:	82 83       	std	Z+2, r24	; 0x02
	PORTF.DIRSET = PIN5_bm;		// On-board LED
    1d0a:	80 e2       	ldi	r24, 0x20	; 32
    1d0c:	81 83       	std	Z+1, r24	; 0x01
	PORTF.PIN6CTRL = PORT_PULLUPEN_bm | PORT_ISC_FALLING_gc;	// Pushbutton
    1d0e:	8b e0       	ldi	r24, 0x0B	; 11
    1d10:	86 8b       	std	Z+22, r24	; 0x16
	PORTC.OUTCLR = PIN3_bm;		// Reset the XPort
    1d12:	e0 e4       	ldi	r30, 0x40	; 64
    1d14:	f4 e0       	ldi	r31, 0x04	; 4
    1d16:	88 e0       	ldi	r24, 0x08	; 8
    1d18:	86 83       	std	Z+6, r24	; 0x06
	PORTC.DIRSET = PIN3_bm;		// Set XPort reset pin as output
    1d1a:	81 83       	std	Z+1, r24	; 0x01
    1d1c:	ad e8       	ldi	r26, 0x8D	; 141
    1d1e:	b0 e2       	ldi	r27, 0x20	; 32
    1d20:	11 97       	sbiw	r26, 0x01	; 1
    1d22:	f1 f7       	brne	.-4      	; 0x1d20 <init_PORTS+0x22>
    1d24:	00 00       	nop
	_delay_ms(10);				// Reset signal wait time
	PORTC.OUTSET = PIN3_bm;		// Enable the XPort
    1d26:	85 83       	std	Z+5, r24	; 0x05
    1d28:	08 95       	ret

00001d2a <report>:

	Returns:
		ERROR or NOERROR
------------------------------------------------------------------------------*/
uint8_t report(uint8_t cstack)
{
    1d2a:	2f 92       	push	r2
    1d2c:	3f 92       	push	r3
    1d2e:	4f 92       	push	r4
    1d30:	5f 92       	push	r5
    1d32:	6f 92       	push	r6
    1d34:	7f 92       	push	r7
    1d36:	8f 92       	push	r8
    1d38:	9f 92       	push	r9
    1d3a:	af 92       	push	r10
    1d3c:	bf 92       	push	r11
    1d3e:	cf 92       	push	r12
    1d40:	df 92       	push	r13
    1d42:	ef 92       	push	r14
    1d44:	ff 92       	push	r15
    1d46:	0f 93       	push	r16
    1d48:	1f 93       	push	r17
    1d4a:	cf 93       	push	r28
    1d4c:	df 93       	push	r29
    1d4e:	cd b7       	in	r28, 0x3d	; 61
    1d50:	de b7       	in	r29, 0x3e	; 62
    1d52:	cd 5d       	subi	r28, 0xDD	; 221
    1d54:	d2 40       	sbci	r29, 0x02	; 2
    1d56:	cd bf       	out	0x3d, r28	; 61
    1d58:	de bf       	out	0x3e, r29	; 62

	char outbuf[BUFSIZE], version[11];
	char currenttime[20], lastsettime[20], boottime[20];
	char shutter, left, right, air;
	const char format_ENV[] = "ENV,%s,%3.1f,C,%1.0f,%%,%3.1f,C,%1.0f,%%,%3.1f,C,%1.0f,%%,%3.1f,C,%s";
    1d5a:	95 e4       	ldi	r25, 0x45	; 69
    1d5c:	eb e8       	ldi	r30, 0x8B	; 139
    1d5e:	fe e8       	ldi	r31, 0x8E	; 142
    1d60:	de 01       	movw	r26, r28
    1d62:	a6 5b       	subi	r26, 0xB6	; 182
    1d64:	be 4f       	sbci	r27, 0xFE	; 254
    1d66:	01 90       	ld	r0, Z+
    1d68:	0d 92       	st	X+, r0
    1d6a:	9a 95       	dec	r25
    1d6c:	e1 f7       	brne	.-8      	; 0x1d66 <report+0x3c>
	const char format_MTR[] = "MTR,%s,%c,%ld,microns,%ld,microns/sec,%d,mA,%s";
    1d6e:	9f e2       	ldi	r25, 0x2F	; 47
    1d70:	e0 ed       	ldi	r30, 0xD0	; 208
    1d72:	fe e8       	ldi	r31, 0x8E	; 142
    1d74:	de 01       	movw	r26, r28
    1d76:	a1 57       	subi	r26, 0x71	; 113
    1d78:	be 4f       	sbci	r27, 0xFE	; 254
    1d7a:	01 90       	ld	r0, Z+
    1d7c:	0d 92       	st	X+, r0
    1d7e:	9a 95       	dec	r25
    1d80:	e1 f7       	brne	.-8      	; 0x1d7a <report+0x50>
	const char format_MTV[] = "MTV,%s,%c,%3.1f,V,%3.1f,C,%s";
    1d82:	9d e1       	ldi	r25, 0x1D	; 29
    1d84:	ef ef       	ldi	r30, 0xFF	; 255
    1d86:	fe e8       	ldi	r31, 0x8E	; 142
    1d88:	de 01       	movw	r26, r28
    1d8a:	a2 54       	subi	r26, 0x42	; 66
    1d8c:	be 4f       	sbci	r27, 0xFE	; 254
    1d8e:	01 90       	ld	r0, Z+
    1d90:	0d 92       	st	X+, r0
    1d92:	9a 95       	dec	r25
    1d94:	e1 f7       	brne	.-8      	; 0x1d8e <report+0x64>
	const char format_ORI[] = "ORI,%s,%3.1f,%3.1f,%3.1f,%s";
    1d96:	9c e1       	ldi	r25, 0x1C	; 28
    1d98:	ec e1       	ldi	r30, 0x1C	; 28
    1d9a:	ff e8       	ldi	r31, 0x8F	; 143
    1d9c:	de 01       	movw	r26, r28
    1d9e:	a5 52       	subi	r26, 0x25	; 37
    1da0:	be 4f       	sbci	r27, 0xFE	; 254
    1da2:	01 90       	ld	r0, Z+
    1da4:	0d 92       	st	X+, r0
    1da6:	9a 95       	dec	r25
    1da8:	e1 f7       	brne	.-8      	; 0x1da2 <report+0x78>
	const char dformat_ORI[] = "%2.0f %2.0f %2.0f";
    1daa:	92 e1       	ldi	r25, 0x12	; 18
    1dac:	e8 e3       	ldi	r30, 0x38	; 56
    1dae:	ff e8       	ldi	r31, 0x8F	; 143
    1db0:	de 01       	movw	r26, r28
    1db2:	a9 50       	subi	r26, 0x09	; 9
    1db4:	be 4f       	sbci	r27, 0xFE	; 254
    1db6:	01 90       	ld	r0, Z+
    1db8:	0d 92       	st	X+, r0
    1dba:	9a 95       	dec	r25
    1dbc:	e1 f7       	brne	.-8      	; 0x1db6 <report+0x8c>
	const char format_PNU[] = "PNU,%s,%c,shutter,%c,left,%c,right,%c,air,%s";
    1dbe:	9d e2       	ldi	r25, 0x2D	; 45
    1dc0:	ea e4       	ldi	r30, 0x4A	; 74
    1dc2:	ff e8       	ldi	r31, 0x8F	; 143
    1dc4:	de 01       	movw	r26, r28
    1dc6:	a7 5f       	subi	r26, 0xF7	; 247
    1dc8:	bd 4f       	sbci	r27, 0xFD	; 253
    1dca:	01 90       	ld	r0, Z+
    1dcc:	0d 92       	st	X+, r0
    1dce:	9a 95       	dec	r25
    1dd0:	e1 f7       	brne	.-8      	; 0x1dca <report+0xa0>
	const char dformat_PN1[] = "Left:%c   Right:%c";
    1dd2:	93 e1       	ldi	r25, 0x13	; 19
    1dd4:	e7 e7       	ldi	r30, 0x77	; 119
    1dd6:	ff e8       	ldi	r31, 0x8F	; 143
    1dd8:	de 01       	movw	r26, r28
    1dda:	aa 5c       	subi	r26, 0xCA	; 202
    1ddc:	bd 4f       	sbci	r27, 0xFD	; 253
    1dde:	01 90       	ld	r0, Z+
    1de0:	0d 92       	st	X+, r0
    1de2:	9a 95       	dec	r25
    1de4:	e1 f7       	brne	.-8      	; 0x1dde <report+0xb4>
	const char dformat_PN2[] = "Shutter:%c  Air:%c";
    1de6:	93 e1       	ldi	r25, 0x13	; 19
    1de8:	ea e8       	ldi	r30, 0x8A	; 138
    1dea:	ff e8       	ldi	r31, 0x8F	; 143
    1dec:	de 01       	movw	r26, r28
    1dee:	a7 5b       	subi	r26, 0xB7	; 183
    1df0:	bd 4f       	sbci	r27, 0xFD	; 253
    1df2:	01 90       	ld	r0, Z+
    1df4:	0d 92       	st	X+, r0
    1df6:	9a 95       	dec	r25
    1df8:	e1 f7       	brne	.-8      	; 0x1df2 <report+0xc8>
	const char format_TIM[] = "TIM,%s,%s,set,%s,boot,%s";
    1dfa:	99 e1       	ldi	r25, 0x19	; 25
    1dfc:	ed e9       	ldi	r30, 0x9D	; 157
    1dfe:	ff e8       	ldi	r31, 0x8F	; 143
    1e00:	de 01       	movw	r26, r28
    1e02:	a4 5a       	subi	r26, 0xA4	; 164
    1e04:	bd 4f       	sbci	r27, 0xFD	; 253
    1e06:	01 90       	ld	r0, Z+
    1e08:	0d 92       	st	X+, r0
    1e0a:	9a 95       	dec	r25
    1e0c:	e1 f7       	brne	.-8      	; 0x1e06 <report+0xdc>
	const char format_VAC[] = "VAC,%s,%5.2f,redvac,%5.2f,bluevac,%s";
    1e0e:	95 e2       	ldi	r25, 0x25	; 37
    1e10:	e6 eb       	ldi	r30, 0xB6	; 182
    1e12:	ff e8       	ldi	r31, 0x8F	; 143
    1e14:	de 01       	movw	r26, r28
    1e16:	ab 58       	subi	r26, 0x8B	; 139
    1e18:	bd 4f       	sbci	r27, 0xFD	; 253
    1e1a:	01 90       	ld	r0, Z+
    1e1c:	0d 92       	st	X+, r0
    1e1e:	9a 95       	dec	r25
    1e20:	e1 f7       	brne	.-8      	; 0x1e1a <report+0xf0>
	const char dformat_VAC[] = "%2.2f  %2.2f";
    1e22:	9d e0       	ldi	r25, 0x0D	; 13
    1e24:	eb ed       	ldi	r30, 0xDB	; 219
    1e26:	ff e8       	ldi	r31, 0x8F	; 143
    1e28:	de 01       	movw	r26, r28
    1e2a:	a6 56       	subi	r26, 0x66	; 102
    1e2c:	bd 4f       	sbci	r27, 0xFD	; 253
    1e2e:	01 90       	ld	r0, Z+
    1e30:	0d 92       	st	X+, r0
    1e32:	9a 95       	dec	r25
    1e34:	e1 f7       	brne	.-8      	; 0x1e2e <report+0x104>
	const char format_VER[] = "VER,%s,%s,%s";
    1e36:	9d e0       	ldi	r25, 0x0D	; 13
    1e38:	e8 ee       	ldi	r30, 0xE8	; 232
    1e3a:	ff e8       	ldi	r31, 0x8F	; 143
    1e3c:	de 01       	movw	r26, r28
    1e3e:	a9 55       	subi	r26, 0x59	; 89
    1e40:	bd 4f       	sbci	r27, 0xFD	; 253
    1e42:	01 90       	ld	r0, Z+
    1e44:	0d 92       	st	X+, r0
    1e46:	9a 95       	dec	r25
    1e48:	e1 f7       	brne	.-8      	; 0x1e42 <report+0x118>
	float voltage;							// voltage
	uint16_t motorCurrent;
	float x, y, z;							// accelerometer
	float redvac, bluvac;					// red and blue vacuum

	switch(pcmd[cstack].cobject) {
    1e4a:	08 2f       	mov	r16, r24
    1e4c:	10 e0       	ldi	r17, 0x00	; 0
    1e4e:	84 e3       	ldi	r24, 0x34	; 52
    1e50:	80 9f       	mul	r24, r16
    1e52:	f0 01       	movw	r30, r0
    1e54:	81 9f       	mul	r24, r17
    1e56:	f0 0d       	add	r31, r0
    1e58:	11 24       	eor	r1, r1
    1e5a:	ed 5f       	subi	r30, 0xFD	; 253
    1e5c:	f7 4d       	sbci	r31, 0xD7	; 215
    1e5e:	e1 81       	ldd	r30, Z+1	; 0x01
    1e60:	8e 2f       	mov	r24, r30
    1e62:	90 e0       	ldi	r25, 0x00	; 0
    1e64:	fc 01       	movw	r30, r24
    1e66:	e1 54       	subi	r30, 0x41	; 65
    1e68:	f1 09       	sbc	r31, r1
    1e6a:	e6 33       	cpi	r30, 0x36	; 54
    1e6c:	f1 05       	cpc	r31, r1
    1e6e:	08 f0       	brcs	.+2      	; 0x1e72 <report+0x148>
    1e70:	b1 c4       	rjmp	.+2402   	; 0x27d4 <report+0xaaa>
    1e72:	e4 58       	subi	r30, 0x84	; 132
    1e74:	ff 4f       	sbci	r31, 0xFF	; 255
    1e76:	0c 94 41 23 	jmp	0x4682	; 0x4682 <__tablejump2__>

		case 'A':
		case 'B':
		case 'C':
			get_time(currenttime);
    1e7a:	ce 01       	movw	r24, r28
    1e7c:	86 5f       	subi	r24, 0xF6	; 246
    1e7e:	9e 4f       	sbci	r25, 0xFE	; 254
    1e80:	0e 94 bf 05 	call	0xb7e	; 0xb7e <get_time>
			controller = pcmd[cstack].cobject + 63;
    1e84:	84 e3       	ldi	r24, 0x34	; 52
    1e86:	80 9f       	mul	r24, r16
    1e88:	f0 01       	movw	r30, r0
    1e8a:	81 9f       	mul	r24, r17
    1e8c:	f0 0d       	add	r31, r0
    1e8e:	11 24       	eor	r1, r1
    1e90:	ed 5f       	subi	r30, 0xFD	; 253
    1e92:	f7 4d       	sbci	r31, 0xD7	; 215
    1e94:	e1 80       	ldd	r14, Z+1	; 0x01
    1e96:	0f 2e       	mov	r0, r31
    1e98:	ff e3       	ldi	r31, 0x3F	; 63
    1e9a:	ff 2e       	mov	r15, r31
    1e9c:	f0 2d       	mov	r31, r0
    1e9e:	fe 0c       	add	r15, r14
			if (get_MOTOR_FLOAT(controller, READMAINVOLTAGE, &voltage) == ERROR) {
    1ea0:	ae 01       	movw	r20, r28
    1ea2:	40 54       	subi	r20, 0x40	; 64
    1ea4:	5d 4f       	sbci	r21, 0xFD	; 253
    1ea6:	68 e1       	ldi	r22, 0x18	; 24
    1ea8:	8f 2d       	mov	r24, r15
    1eaa:	0e 94 95 15 	call	0x2b2a	; 0x2b2a <get_MOTOR_FLOAT>
    1eae:	83 36       	cpi	r24, 0x63	; 99
    1eb0:	31 f4       	brne	.+12     	; 0x1ebe <report+0x194>
				printError(ERR_MTR, "report: get_MOTOR_FLOAT volts error");
    1eb2:	6f e9       	ldi	r22, 0x9F	; 159
    1eb4:	7d e8       	ldi	r23, 0x8D	; 141
    1eb6:	86 e3       	ldi	r24, 0x36	; 54
    1eb8:	91 e0       	ldi	r25, 0x01	; 1
    1eba:	0e 94 9b 06 	call	0xd36	; 0xd36 <printError>
			}
			if (get_MOTOR_FLOAT(controller, READTEMPERATURE, &t0) == ERROR) {
    1ebe:	ae 01       	movw	r20, r28
    1ec0:	44 54       	subi	r20, 0x44	; 68
    1ec2:	5d 4f       	sbci	r21, 0xFD	; 253
    1ec4:	62 e5       	ldi	r22, 0x52	; 82
    1ec6:	8f 2d       	mov	r24, r15
    1ec8:	0e 94 95 15 	call	0x2b2a	; 0x2b2a <get_MOTOR_FLOAT>
    1ecc:	83 36       	cpi	r24, 0x63	; 99
    1ece:	31 f4       	brne	.+12     	; 0x1edc <report+0x1b2>
				printError(ERR_MTR, "report: get_MOTOR_FLOAT temperature error");
    1ed0:	63 ec       	ldi	r22, 0xC3	; 195
    1ed2:	7d e8       	ldi	r23, 0x8D	; 141
    1ed4:	86 e3       	ldi	r24, 0x36	; 54
    1ed6:	91 e0       	ldi	r25, 0x01	; 1
    1ed8:	0e 94 9b 06 	call	0xd36	; 0xd36 <printError>
			}
			sprintf(outbuf, format_MTV, currenttime, (char) (controller-63),
				voltage, t0, pcmd[cstack].cid);
    1edc:	24 e3       	ldi	r18, 0x34	; 52
    1ede:	20 9f       	mul	r18, r16
    1ee0:	c0 01       	movw	r24, r0
    1ee2:	21 9f       	mul	r18, r17
    1ee4:	90 0d       	add	r25, r0
    1ee6:	11 24       	eor	r1, r1
    1ee8:	82 5d       	subi	r24, 0xD2	; 210
    1eea:	97 4d       	sbci	r25, 0xD7	; 215
				printError(ERR_MTR, "report: get_MOTOR_FLOAT volts error");
			}
			if (get_MOTOR_FLOAT(controller, READTEMPERATURE, &t0) == ERROR) {
				printError(ERR_MTR, "report: get_MOTOR_FLOAT temperature error");
			}
			sprintf(outbuf, format_MTV, currenttime, (char) (controller-63),
    1eec:	9f 93       	push	r25
    1eee:	8f 93       	push	r24
    1ef0:	c1 54       	subi	r28, 0x41	; 65
    1ef2:	dd 4f       	sbci	r29, 0xFD	; 253
    1ef4:	88 81       	ld	r24, Y
    1ef6:	cf 5b       	subi	r28, 0xBF	; 191
    1ef8:	d2 40       	sbci	r29, 0x02	; 2
    1efa:	8f 93       	push	r24
    1efc:	c2 54       	subi	r28, 0x42	; 66
    1efe:	dd 4f       	sbci	r29, 0xFD	; 253
    1f00:	88 81       	ld	r24, Y
    1f02:	ce 5b       	subi	r28, 0xBE	; 190
    1f04:	d2 40       	sbci	r29, 0x02	; 2
    1f06:	8f 93       	push	r24
    1f08:	c3 54       	subi	r28, 0x43	; 67
    1f0a:	dd 4f       	sbci	r29, 0xFD	; 253
    1f0c:	88 81       	ld	r24, Y
    1f0e:	cd 5b       	subi	r28, 0xBD	; 189
    1f10:	d2 40       	sbci	r29, 0x02	; 2
    1f12:	8f 93       	push	r24
    1f14:	c4 54       	subi	r28, 0x44	; 68
    1f16:	dd 4f       	sbci	r29, 0xFD	; 253
    1f18:	88 81       	ld	r24, Y
    1f1a:	cc 5b       	subi	r28, 0xBC	; 188
    1f1c:	d2 40       	sbci	r29, 0x02	; 2
    1f1e:	8f 93       	push	r24
    1f20:	cd 53       	subi	r28, 0x3D	; 61
    1f22:	dd 4f       	sbci	r29, 0xFD	; 253
    1f24:	88 81       	ld	r24, Y
    1f26:	c3 5c       	subi	r28, 0xC3	; 195
    1f28:	d2 40       	sbci	r29, 0x02	; 2
    1f2a:	8f 93       	push	r24
    1f2c:	ce 53       	subi	r28, 0x3E	; 62
    1f2e:	dd 4f       	sbci	r29, 0xFD	; 253
    1f30:	88 81       	ld	r24, Y
    1f32:	c2 5c       	subi	r28, 0xC2	; 194
    1f34:	d2 40       	sbci	r29, 0x02	; 2
    1f36:	8f 93       	push	r24
    1f38:	cf 53       	subi	r28, 0x3F	; 63
    1f3a:	dd 4f       	sbci	r29, 0xFD	; 253
    1f3c:	88 81       	ld	r24, Y
    1f3e:	c1 5c       	subi	r28, 0xC1	; 193
    1f40:	d2 40       	sbci	r29, 0x02	; 2
    1f42:	8f 93       	push	r24
    1f44:	c0 54       	subi	r28, 0x40	; 64
    1f46:	dd 4f       	sbci	r29, 0xFD	; 253
    1f48:	88 81       	ld	r24, Y
    1f4a:	c0 5c       	subi	r28, 0xC0	; 192
    1f4c:	d2 40       	sbci	r29, 0x02	; 2
    1f4e:	8f 93       	push	r24
    1f50:	1f 92       	push	r1
    1f52:	ef 92       	push	r14
    1f54:	ce 01       	movw	r24, r28
    1f56:	86 5f       	subi	r24, 0xF6	; 246
    1f58:	9e 4f       	sbci	r25, 0xFE	; 254
    1f5a:	9f 93       	push	r25
    1f5c:	8f 93       	push	r24
    1f5e:	8c 54       	subi	r24, 0x4C	; 76
    1f60:	9f 4f       	sbci	r25, 0xFF	; 255
    1f62:	9f 93       	push	r25
    1f64:	8f 93       	push	r24
    1f66:	8e 01       	movw	r16, r28
    1f68:	0f 5f       	subi	r16, 0xFF	; 255
    1f6a:	1f 4f       	sbci	r17, 0xFF	; 255
    1f6c:	1f 93       	push	r17
    1f6e:	0f 93       	push	r16
    1f70:	0e 94 40 25 	call	0x4a80	; 0x4a80 <sprintf>
				voltage, t0, pcmd[cstack].cid);
			printLine(outbuf);
    1f74:	c8 01       	movw	r24, r16
    1f76:	0e 94 7f 03 	call	0x6fe	; 0x6fe <printLine>
			break;
    1f7a:	cd bf       	out	0x3d, r28	; 61
    1f7c:	de bf       	out	0x3e, r29	; 62
			printError(ERR_BADOBJECT, "report: unknown object");
			return(ERROR);
			break;
	}

	return(NOERROR);
    1f7e:	f1 2c       	mov	r15, r1
				printError(ERR_MTR, "report: get_MOTOR_FLOAT temperature error");
			}
			sprintf(outbuf, format_MTV, currenttime, (char) (controller-63),
				voltage, t0, pcmd[cstack].cid);
			printLine(outbuf);
			break;
    1f80:	33 c4       	rjmp	.+2150   	; 0x27e8 <report+0xabe>

		case 'a':
		case 'b':
		case 'c':
			get_time(currenttime);
    1f82:	ce 01       	movw	r24, r28
    1f84:	86 5f       	subi	r24, 0xF6	; 246
    1f86:	9e 4f       	sbci	r25, 0xFE	; 254
    1f88:	0e 94 bf 05 	call	0xb7e	; 0xb7e <get_time>
			controller = pcmd[cstack].cobject + 31;
    1f8c:	84 e3       	ldi	r24, 0x34	; 52
    1f8e:	80 9f       	mul	r24, r16
    1f90:	f0 01       	movw	r30, r0
    1f92:	81 9f       	mul	r24, r17
    1f94:	f0 0d       	add	r31, r0
    1f96:	11 24       	eor	r1, r1
    1f98:	ed 5f       	subi	r30, 0xFD	; 253
    1f9a:	f7 4d       	sbci	r31, 0xD7	; 215
    1f9c:	81 81       	ldd	r24, Z+1	; 0x01
    1f9e:	0f 2e       	mov	r0, r31
    1fa0:	ff e1       	ldi	r31, 0x1F	; 31
    1fa2:	ef 2e       	mov	r14, r31
    1fa4:	f0 2d       	mov	r31, r0
    1fa6:	e8 0e       	add	r14, r24

			if (get_MOTOR_ENCODER(controller, &encoderValue) == ERROR) {
    1fa8:	be 01       	movw	r22, r28
    1faa:	6c 54       	subi	r22, 0x4C	; 76
    1fac:	7d 4f       	sbci	r23, 0xFD	; 253
    1fae:	8e 2d       	mov	r24, r14
    1fb0:	0e 94 46 15 	call	0x2a8c	; 0x2a8c <get_MOTOR_ENCODER>
    1fb4:	f8 2e       	mov	r15, r24
    1fb6:	93 e6       	ldi	r25, 0x63	; 99
    1fb8:	89 13       	cpse	r24, r25
    1fba:	07 c0       	rjmp	.+14     	; 0x1fca <report+0x2a0>
				printError(ERR_MTR, "report: get_MOTOR_ENCODER error");
    1fbc:	6d ee       	ldi	r22, 0xED	; 237
    1fbe:	7d e8       	ldi	r23, 0x8D	; 141
    1fc0:	86 e3       	ldi	r24, 0x36	; 54
    1fc2:	91 e0       	ldi	r25, 0x01	; 1
    1fc4:	0e 94 9b 06 	call	0xd36	; 0xd36 <printError>
				return(ERROR);
    1fc8:	0f c4       	rjmp	.+2078   	; 0x27e8 <report+0xabe>
			}
			micronValue = encoderValue/ENC_COUNTS_PER_MICRON;
    1fca:	cc 54       	subi	r28, 0x4C	; 76
    1fcc:	dd 4f       	sbci	r29, 0xFD	; 253
    1fce:	68 81       	ld	r22, Y
    1fd0:	79 81       	ldd	r23, Y+1	; 0x01
    1fd2:	8a 81       	ldd	r24, Y+2	; 0x02
    1fd4:	9b 81       	ldd	r25, Y+3	; 0x03
    1fd6:	c4 5b       	subi	r28, 0xB4	; 180
    1fd8:	d2 40       	sbci	r29, 0x02	; 2
    1fda:	2c e0       	ldi	r18, 0x0C	; 12
    1fdc:	31 e0       	ldi	r19, 0x01	; 1
    1fde:	40 e0       	ldi	r20, 0x00	; 0
    1fe0:	50 e0       	ldi	r21, 0x00	; 0
    1fe2:	0e 94 22 23 	call	0x4644	; 0x4644 <__divmodsi4>
    1fe6:	f2 2e       	mov	r15, r18
    1fe8:	d3 2e       	mov	r13, r19
    1fea:	c4 2e       	mov	r12, r20
    1fec:	b5 2e       	mov	r11, r21

			if (get_MOTOR_SPEED(controller, &encoderSpeed) == ERROR) {
    1fee:	be 01       	movw	r22, r28
    1ff0:	68 54       	subi	r22, 0x48	; 72
    1ff2:	7d 4f       	sbci	r23, 0xFD	; 253
    1ff4:	8e 2d       	mov	r24, r14
    1ff6:	0e 94 d9 15 	call	0x2bb2	; 0x2bb2 <get_MOTOR_SPEED>
    1ffa:	83 36       	cpi	r24, 0x63	; 99
    1ffc:	61 f4       	brne	.+24     	; 0x2016 <report+0x2ec>
				encoderSpeed = 0x7FFFFFFF;
    1ffe:	8f ef       	ldi	r24, 0xFF	; 255
    2000:	9f ef       	ldi	r25, 0xFF	; 255
    2002:	af ef       	ldi	r26, 0xFF	; 255
    2004:	bf e7       	ldi	r27, 0x7F	; 127
    2006:	c8 54       	subi	r28, 0x48	; 72
    2008:	dd 4f       	sbci	r29, 0xFD	; 253
    200a:	88 83       	st	Y, r24
    200c:	99 83       	std	Y+1, r25	; 0x01
    200e:	aa 83       	std	Y+2, r26	; 0x02
    2010:	bb 83       	std	Y+3, r27	; 0x03
    2012:	c8 5b       	subi	r28, 0xB8	; 184
    2014:	d2 40       	sbci	r29, 0x02	; 2
			}

			micronSpeed = encoderSpeed/ENC_COUNTS_PER_MICRON;
    2016:	c8 54       	subi	r28, 0x48	; 72
    2018:	dd 4f       	sbci	r29, 0xFD	; 253
    201a:	68 81       	ld	r22, Y
    201c:	79 81       	ldd	r23, Y+1	; 0x01
    201e:	8a 81       	ldd	r24, Y+2	; 0x02
    2020:	9b 81       	ldd	r25, Y+3	; 0x03
    2022:	c8 5b       	subi	r28, 0xB8	; 184
    2024:	d2 40       	sbci	r29, 0x02	; 2
    2026:	2c e0       	ldi	r18, 0x0C	; 12
    2028:	31 e0       	ldi	r19, 0x01	; 1
    202a:	40 e0       	ldi	r20, 0x00	; 0
    202c:	50 e0       	ldi	r21, 0x00	; 0
    202e:	0e 94 22 23 	call	0x4644	; 0x4644 <__divmodsi4>
    2032:	a2 2e       	mov	r10, r18
    2034:	93 2e       	mov	r9, r19
    2036:	84 2e       	mov	r8, r20
    2038:	75 2e       	mov	r7, r21

			if (get_MOTOR_CURRENT(controller, &motorCurrent) == ERROR) {
    203a:	be 01       	movw	r22, r28
    203c:	6c 53       	subi	r22, 0x3C	; 60
    203e:	7d 4f       	sbci	r23, 0xFD	; 253
    2040:	8e 2d       	mov	r24, r14
    2042:	0e 94 28 16 	call	0x2c50	; 0x2c50 <get_MOTOR_CURRENT>
    2046:	83 36       	cpi	r24, 0x63	; 99
    2048:	71 f4       	brne	.+28     	; 0x2066 <report+0x33c>
				printError(ERR_MTR, "report: get_MOTOR_CURRENT error");
    204a:	6d e0       	ldi	r22, 0x0D	; 13
    204c:	7e e8       	ldi	r23, 0x8E	; 142
    204e:	86 e3       	ldi	r24, 0x36	; 54
    2050:	91 e0       	ldi	r25, 0x01	; 1
    2052:	0e 94 9b 06 	call	0xd36	; 0xd36 <printError>
				motorCurrent = 0xFFFF;
    2056:	8f ef       	ldi	r24, 0xFF	; 255
    2058:	9f ef       	ldi	r25, 0xFF	; 255
    205a:	cc 53       	subi	r28, 0x3C	; 60
    205c:	dd 4f       	sbci	r29, 0xFD	; 253
    205e:	88 83       	st	Y, r24
    2060:	99 83       	std	Y+1, r25	; 0x01
    2062:	c4 5c       	subi	r28, 0xC4	; 196
    2064:	d2 40       	sbci	r29, 0x02	; 2
			}
			sprintf(outbuf, format_MTR, currenttime, pcmd[cstack].cobject,
			micronValue, micronSpeed, motorCurrent, pcmd[cstack].cid);
    2066:	24 e3       	ldi	r18, 0x34	; 52
    2068:	20 9f       	mul	r18, r16
    206a:	c0 01       	movw	r24, r0
    206c:	21 9f       	mul	r18, r17
    206e:	90 0d       	add	r25, r0
    2070:	11 24       	eor	r1, r1
    2072:	9c 01       	movw	r18, r24
    2074:	22 5d       	subi	r18, 0xD2	; 210
    2076:	37 4d       	sbci	r19, 0xD7	; 215

			if (get_MOTOR_CURRENT(controller, &motorCurrent) == ERROR) {
				printError(ERR_MTR, "report: get_MOTOR_CURRENT error");
				motorCurrent = 0xFFFF;
			}
			sprintf(outbuf, format_MTR, currenttime, pcmd[cstack].cobject,
    2078:	fc 01       	movw	r30, r24
    207a:	ed 5f       	subi	r30, 0xFD	; 253
    207c:	f7 4d       	sbci	r31, 0xD7	; 215
    207e:	81 81       	ldd	r24, Z+1	; 0x01
    2080:	3f 93       	push	r19
    2082:	2f 93       	push	r18
    2084:	cb 53       	subi	r28, 0x3B	; 59
    2086:	dd 4f       	sbci	r29, 0xFD	; 253
    2088:	98 81       	ld	r25, Y
    208a:	c5 5c       	subi	r28, 0xC5	; 197
    208c:	d2 40       	sbci	r29, 0x02	; 2
    208e:	9f 93       	push	r25
    2090:	cc 53       	subi	r28, 0x3C	; 60
    2092:	dd 4f       	sbci	r29, 0xFD	; 253
    2094:	98 81       	ld	r25, Y
    2096:	c4 5c       	subi	r28, 0xC4	; 196
    2098:	d2 40       	sbci	r29, 0x02	; 2
    209a:	9f 93       	push	r25
    209c:	7f 92       	push	r7
    209e:	8f 92       	push	r8
    20a0:	9f 92       	push	r9
    20a2:	af 92       	push	r10
    20a4:	bf 92       	push	r11
    20a6:	cf 92       	push	r12
    20a8:	df 92       	push	r13
    20aa:	ff 92       	push	r15
    20ac:	1f 92       	push	r1
    20ae:	8f 93       	push	r24
    20b0:	ce 01       	movw	r24, r28
    20b2:	86 5f       	subi	r24, 0xF6	; 246
    20b4:	9e 4f       	sbci	r25, 0xFE	; 254
    20b6:	9f 93       	push	r25
    20b8:	8f 93       	push	r24
    20ba:	8b 57       	subi	r24, 0x7B	; 123
    20bc:	9f 4f       	sbci	r25, 0xFF	; 255
    20be:	9f 93       	push	r25
    20c0:	8f 93       	push	r24
    20c2:	8e 01       	movw	r16, r28
    20c4:	0f 5f       	subi	r16, 0xFF	; 255
    20c6:	1f 4f       	sbci	r17, 0xFF	; 255
    20c8:	1f 93       	push	r17
    20ca:	0f 93       	push	r16
    20cc:	0e 94 40 25 	call	0x4a80	; 0x4a80 <sprintf>
			micronValue, micronSpeed, motorCurrent, pcmd[cstack].cid);
			printLine(outbuf);
    20d0:	c8 01       	movw	r24, r16
    20d2:	0e 94 7f 03 	call	0x6fe	; 0x6fe <printLine>
			break;
    20d6:	cd bf       	out	0x3d, r28	; 61
    20d8:	de bf       	out	0x3e, r29	; 62
			printError(ERR_BADOBJECT, "report: unknown object");
			return(ERROR);
			break;
	}

	return(NOERROR);
    20da:	f1 2c       	mov	r15, r1
				motorCurrent = 0xFFFF;
			}
			sprintf(outbuf, format_MTR, currenttime, pcmd[cstack].cobject,
			micronValue, micronSpeed, motorCurrent, pcmd[cstack].cid);
			printLine(outbuf);
			break;
    20dc:	85 c3       	rjmp	.+1802   	; 0x27e8 <report+0xabe>

		case 'e':					// Environment (temperature & humidity)
			t0 = get_temperature(0);
    20de:	80 e0       	ldi	r24, 0x00	; 0
    20e0:	0e 94 58 19 	call	0x32b0	; 0x32b0 <get_temperature>
    20e4:	c4 54       	subi	r28, 0x44	; 68
    20e6:	dd 4f       	sbci	r29, 0xFD	; 253
    20e8:	68 83       	st	Y, r22
    20ea:	79 83       	std	Y+1, r23	; 0x01
    20ec:	8a 83       	std	Y+2, r24	; 0x02
    20ee:	9b 83       	std	Y+3, r25	; 0x03
    20f0:	cc 5b       	subi	r28, 0xBC	; 188
    20f2:	d2 40       	sbci	r29, 0x02	; 2
			h0 = get_humidity(0);
    20f4:	80 e0       	ldi	r24, 0x00	; 0
    20f6:	0e 94 81 07 	call	0xf02	; 0xf02 <get_humidity>
    20fa:	d6 2e       	mov	r13, r22
    20fc:	c7 2e       	mov	r12, r23
    20fe:	b8 2e       	mov	r11, r24
    2100:	a9 2e       	mov	r10, r25
			t1 = get_temperature(1);
    2102:	81 e0       	ldi	r24, 0x01	; 1
    2104:	0e 94 58 19 	call	0x32b0	; 0x32b0 <get_temperature>
    2108:	ce 52       	subi	r28, 0x2E	; 46
    210a:	dd 4f       	sbci	r29, 0xFD	; 253
    210c:	68 83       	st	Y, r22
    210e:	c2 5d       	subi	r28, 0xD2	; 210
    2110:	d2 40       	sbci	r29, 0x02	; 2
    2112:	cd 52       	subi	r28, 0x2D	; 45
    2114:	dd 4f       	sbci	r29, 0xFD	; 253
    2116:	78 83       	st	Y, r23
    2118:	c3 5d       	subi	r28, 0xD3	; 211
    211a:	d2 40       	sbci	r29, 0x02	; 2
    211c:	cc 52       	subi	r28, 0x2C	; 44
    211e:	dd 4f       	sbci	r29, 0xFD	; 253
    2120:	88 83       	st	Y, r24
    2122:	c4 5d       	subi	r28, 0xD4	; 212
    2124:	d2 40       	sbci	r29, 0x02	; 2
    2126:	cb 52       	subi	r28, 0x2B	; 43
    2128:	dd 4f       	sbci	r29, 0xFD	; 253
    212a:	98 83       	st	Y, r25
    212c:	c5 5d       	subi	r28, 0xD5	; 213
    212e:	d2 40       	sbci	r29, 0x02	; 2
			h1 = get_humidity(1);
    2130:	81 e0       	ldi	r24, 0x01	; 1
    2132:	0e 94 81 07 	call	0xf02	; 0xf02 <get_humidity>
    2136:	ca 52       	subi	r28, 0x2A	; 42
    2138:	dd 4f       	sbci	r29, 0xFD	; 253
    213a:	68 83       	st	Y, r22
    213c:	c6 5d       	subi	r28, 0xD6	; 214
    213e:	d2 40       	sbci	r29, 0x02	; 2
    2140:	c9 52       	subi	r28, 0x29	; 41
    2142:	dd 4f       	sbci	r29, 0xFD	; 253
    2144:	78 83       	st	Y, r23
    2146:	c7 5d       	subi	r28, 0xD7	; 215
    2148:	d2 40       	sbci	r29, 0x02	; 2
    214a:	c8 52       	subi	r28, 0x28	; 40
    214c:	dd 4f       	sbci	r29, 0xFD	; 253
    214e:	88 83       	st	Y, r24
    2150:	c8 5d       	subi	r28, 0xD8	; 216
    2152:	d2 40       	sbci	r29, 0x02	; 2
    2154:	c7 52       	subi	r28, 0x27	; 39
    2156:	dd 4f       	sbci	r29, 0xFD	; 253
    2158:	98 83       	st	Y, r25
    215a:	c9 5d       	subi	r28, 0xD9	; 217
    215c:	d2 40       	sbci	r29, 0x02	; 2
			t2 = get_temperature(2);
    215e:	82 e0       	ldi	r24, 0x02	; 2
    2160:	0e 94 58 19 	call	0x32b0	; 0x32b0 <get_temperature>
    2164:	c6 52       	subi	r28, 0x26	; 38
    2166:	dd 4f       	sbci	r29, 0xFD	; 253
    2168:	68 83       	st	Y, r22
    216a:	ca 5d       	subi	r28, 0xDA	; 218
    216c:	d2 40       	sbci	r29, 0x02	; 2
    216e:	c5 52       	subi	r28, 0x25	; 37
    2170:	dd 4f       	sbci	r29, 0xFD	; 253
    2172:	78 83       	st	Y, r23
    2174:	cb 5d       	subi	r28, 0xDB	; 219
    2176:	d2 40       	sbci	r29, 0x02	; 2
    2178:	98 2e       	mov	r9, r24
    217a:	89 2e       	mov	r8, r25
			h2 = get_humidity(2);
    217c:	82 e0       	ldi	r24, 0x02	; 2
    217e:	0e 94 81 07 	call	0xf02	; 0xf02 <get_humidity>
    2182:	76 2e       	mov	r7, r22
    2184:	67 2e       	mov	r6, r23
    2186:	58 2e       	mov	r5, r24
    2188:	49 2e       	mov	r4, r25
			t3 = get_temperature(3);
    218a:	83 e0       	ldi	r24, 0x03	; 3
    218c:	0e 94 58 19 	call	0x32b0	; 0x32b0 <get_temperature>
    2190:	c4 52       	subi	r28, 0x24	; 36
    2192:	dd 4f       	sbci	r29, 0xFD	; 253
    2194:	68 83       	st	Y, r22
    2196:	cc 5d       	subi	r28, 0xDC	; 220
    2198:	d2 40       	sbci	r29, 0x02	; 2
    219a:	c3 52       	subi	r28, 0x23	; 35
    219c:	dd 4f       	sbci	r29, 0xFD	; 253
    219e:	78 83       	st	Y, r23
    21a0:	cd 5d       	subi	r28, 0xDD	; 221
    21a2:	d2 40       	sbci	r29, 0x02	; 2
    21a4:	38 2e       	mov	r3, r24
    21a6:	29 2e       	mov	r2, r25
			get_time(currenttime);
    21a8:	7e 01       	movw	r14, r28
    21aa:	96 ef       	ldi	r25, 0xF6	; 246
    21ac:	e9 1a       	sub	r14, r25
    21ae:	9e ef       	ldi	r25, 0xFE	; 254
    21b0:	f9 0a       	sbc	r15, r25
    21b2:	c7 01       	movw	r24, r14
    21b4:	0e 94 bf 05 	call	0xb7e	; 0xb7e <get_time>
			sprintf(outbuf, format_ENV, currenttime, t0, h0, t1, h1, t2, h2, t3, pcmd[cstack].cid);
    21b8:	24 e3       	ldi	r18, 0x34	; 52
    21ba:	20 9f       	mul	r18, r16
    21bc:	c0 01       	movw	r24, r0
    21be:	21 9f       	mul	r18, r17
    21c0:	90 0d       	add	r25, r0
    21c2:	11 24       	eor	r1, r1
    21c4:	82 5d       	subi	r24, 0xD2	; 210
    21c6:	97 4d       	sbci	r25, 0xD7	; 215
    21c8:	9f 93       	push	r25
    21ca:	8f 93       	push	r24
    21cc:	2f 92       	push	r2
    21ce:	3f 92       	push	r3
    21d0:	c3 52       	subi	r28, 0x23	; 35
    21d2:	dd 4f       	sbci	r29, 0xFD	; 253
    21d4:	88 81       	ld	r24, Y
    21d6:	cd 5d       	subi	r28, 0xDD	; 221
    21d8:	d2 40       	sbci	r29, 0x02	; 2
    21da:	8f 93       	push	r24
    21dc:	c4 52       	subi	r28, 0x24	; 36
    21de:	dd 4f       	sbci	r29, 0xFD	; 253
    21e0:	98 81       	ld	r25, Y
    21e2:	cc 5d       	subi	r28, 0xDC	; 220
    21e4:	d2 40       	sbci	r29, 0x02	; 2
    21e6:	9f 93       	push	r25
    21e8:	4f 92       	push	r4
    21ea:	5f 92       	push	r5
    21ec:	6f 92       	push	r6
    21ee:	7f 92       	push	r7
    21f0:	8f 92       	push	r8
    21f2:	9f 92       	push	r9
    21f4:	c5 52       	subi	r28, 0x25	; 37
    21f6:	dd 4f       	sbci	r29, 0xFD	; 253
    21f8:	88 81       	ld	r24, Y
    21fa:	cb 5d       	subi	r28, 0xDB	; 219
    21fc:	d2 40       	sbci	r29, 0x02	; 2
    21fe:	8f 93       	push	r24
    2200:	c6 52       	subi	r28, 0x26	; 38
    2202:	dd 4f       	sbci	r29, 0xFD	; 253
    2204:	98 81       	ld	r25, Y
    2206:	ca 5d       	subi	r28, 0xDA	; 218
    2208:	d2 40       	sbci	r29, 0x02	; 2
    220a:	9f 93       	push	r25
    220c:	c7 52       	subi	r28, 0x27	; 39
    220e:	dd 4f       	sbci	r29, 0xFD	; 253
    2210:	88 81       	ld	r24, Y
    2212:	c9 5d       	subi	r28, 0xD9	; 217
    2214:	d2 40       	sbci	r29, 0x02	; 2
    2216:	8f 93       	push	r24
    2218:	c8 52       	subi	r28, 0x28	; 40
    221a:	dd 4f       	sbci	r29, 0xFD	; 253
    221c:	98 81       	ld	r25, Y
    221e:	c8 5d       	subi	r28, 0xD8	; 216
    2220:	d2 40       	sbci	r29, 0x02	; 2
    2222:	9f 93       	push	r25
    2224:	c9 52       	subi	r28, 0x29	; 41
    2226:	dd 4f       	sbci	r29, 0xFD	; 253
    2228:	88 81       	ld	r24, Y
    222a:	c7 5d       	subi	r28, 0xD7	; 215
    222c:	d2 40       	sbci	r29, 0x02	; 2
    222e:	8f 93       	push	r24
    2230:	ca 52       	subi	r28, 0x2A	; 42
    2232:	dd 4f       	sbci	r29, 0xFD	; 253
    2234:	98 81       	ld	r25, Y
    2236:	c6 5d       	subi	r28, 0xD6	; 214
    2238:	d2 40       	sbci	r29, 0x02	; 2
    223a:	9f 93       	push	r25
    223c:	cb 52       	subi	r28, 0x2B	; 43
    223e:	dd 4f       	sbci	r29, 0xFD	; 253
    2240:	88 81       	ld	r24, Y
    2242:	c5 5d       	subi	r28, 0xD5	; 213
    2244:	d2 40       	sbci	r29, 0x02	; 2
    2246:	8f 93       	push	r24
    2248:	cc 52       	subi	r28, 0x2C	; 44
    224a:	dd 4f       	sbci	r29, 0xFD	; 253
    224c:	98 81       	ld	r25, Y
    224e:	c4 5d       	subi	r28, 0xD4	; 212
    2250:	d2 40       	sbci	r29, 0x02	; 2
    2252:	9f 93       	push	r25
    2254:	cd 52       	subi	r28, 0x2D	; 45
    2256:	dd 4f       	sbci	r29, 0xFD	; 253
    2258:	88 81       	ld	r24, Y
    225a:	c3 5d       	subi	r28, 0xD3	; 211
    225c:	d2 40       	sbci	r29, 0x02	; 2
    225e:	8f 93       	push	r24
    2260:	ce 52       	subi	r28, 0x2E	; 46
    2262:	dd 4f       	sbci	r29, 0xFD	; 253
    2264:	98 81       	ld	r25, Y
    2266:	c2 5d       	subi	r28, 0xD2	; 210
    2268:	d2 40       	sbci	r29, 0x02	; 2
    226a:	9f 93       	push	r25
    226c:	af 92       	push	r10
    226e:	bf 92       	push	r11
    2270:	cf 92       	push	r12
    2272:	df 92       	push	r13
    2274:	c1 54       	subi	r28, 0x41	; 65
    2276:	dd 4f       	sbci	r29, 0xFD	; 253
    2278:	88 81       	ld	r24, Y
    227a:	cf 5b       	subi	r28, 0xBF	; 191
    227c:	d2 40       	sbci	r29, 0x02	; 2
    227e:	8f 93       	push	r24
    2280:	c2 54       	subi	r28, 0x42	; 66
    2282:	dd 4f       	sbci	r29, 0xFD	; 253
    2284:	88 81       	ld	r24, Y
    2286:	ce 5b       	subi	r28, 0xBE	; 190
    2288:	d2 40       	sbci	r29, 0x02	; 2
    228a:	8f 93       	push	r24
    228c:	c3 54       	subi	r28, 0x43	; 67
    228e:	dd 4f       	sbci	r29, 0xFD	; 253
    2290:	88 81       	ld	r24, Y
    2292:	cd 5b       	subi	r28, 0xBD	; 189
    2294:	d2 40       	sbci	r29, 0x02	; 2
    2296:	8f 93       	push	r24
    2298:	c4 54       	subi	r28, 0x44	; 68
    229a:	dd 4f       	sbci	r29, 0xFD	; 253
    229c:	88 81       	ld	r24, Y
    229e:	cc 5b       	subi	r28, 0xBC	; 188
    22a0:	d2 40       	sbci	r29, 0x02	; 2
    22a2:	8f 93       	push	r24
    22a4:	ff 92       	push	r15
    22a6:	ef 92       	push	r14
    22a8:	ce 01       	movw	r24, r28
    22aa:	86 5b       	subi	r24, 0xB6	; 182
    22ac:	9e 4f       	sbci	r25, 0xFE	; 254
    22ae:	9f 93       	push	r25
    22b0:	8f 93       	push	r24
    22b2:	8e 01       	movw	r16, r28
    22b4:	0f 5f       	subi	r16, 0xFF	; 255
    22b6:	1f 4f       	sbci	r17, 0xFF	; 255
    22b8:	1f 93       	push	r17
    22ba:	0f 93       	push	r16
    22bc:	0e 94 40 25 	call	0x4a80	; 0x4a80 <sprintf>
			printLine(outbuf);
    22c0:	cd bf       	out	0x3d, r28	; 61
    22c2:	de bf       	out	0x3e, r29	; 62
    22c4:	c8 01       	movw	r24, r16
    22c6:	0e 94 7f 03 	call	0x6fe	; 0x6fe <printLine>
			writestr_OLED(1, "Temp & Humidity", 1);
    22ca:	41 e0       	ldi	r20, 0x01	; 1
    22cc:	6d e2       	ldi	r22, 0x2D	; 45
    22ce:	7e e8       	ldi	r23, 0x8E	; 142
    22d0:	81 e0       	ldi	r24, 0x01	; 1
    22d2:	0e 94 03 0c 	call	0x1806	; 0x1806 <writestr_OLED>
			sprintf(outbuf, "%1.1fC %1.0fF %1.0f%%", t0, ((t0*1.8)+32), h0);
    22d6:	c4 54       	subi	r28, 0x44	; 68
    22d8:	dd 4f       	sbci	r29, 0xFD	; 253
    22da:	f8 80       	ld	r15, Y
    22dc:	cc 5b       	subi	r28, 0xBC	; 188
    22de:	d2 40       	sbci	r29, 0x02	; 2
    22e0:	c3 54       	subi	r28, 0x43	; 67
    22e2:	dd 4f       	sbci	r29, 0xFD	; 253
    22e4:	e8 80       	ld	r14, Y
    22e6:	cd 5b       	subi	r28, 0xBD	; 189
    22e8:	d2 40       	sbci	r29, 0x02	; 2
    22ea:	c2 54       	subi	r28, 0x42	; 66
    22ec:	dd 4f       	sbci	r29, 0xFD	; 253
    22ee:	98 80       	ld	r9, Y
    22f0:	ce 5b       	subi	r28, 0xBE	; 190
    22f2:	d2 40       	sbci	r29, 0x02	; 2
    22f4:	c1 54       	subi	r28, 0x41	; 65
    22f6:	dd 4f       	sbci	r29, 0xFD	; 253
    22f8:	88 80       	ld	r8, Y
    22fa:	cf 5b       	subi	r28, 0xBF	; 191
    22fc:	d2 40       	sbci	r29, 0x02	; 2
    22fe:	26 e6       	ldi	r18, 0x66	; 102
    2300:	36 e6       	ldi	r19, 0x66	; 102
    2302:	46 ee       	ldi	r20, 0xE6	; 230
    2304:	5f e3       	ldi	r21, 0x3F	; 63
    2306:	6f 2d       	mov	r22, r15
    2308:	7e 2d       	mov	r23, r14
    230a:	89 2d       	mov	r24, r9
    230c:	98 2d       	mov	r25, r8
    230e:	0e 94 24 1f 	call	0x3e48	; 0x3e48 <__mulsf3>
    2312:	af 92       	push	r10
    2314:	bf 92       	push	r11
    2316:	cf 92       	push	r12
    2318:	df 92       	push	r13
    231a:	20 e0       	ldi	r18, 0x00	; 0
    231c:	30 e0       	ldi	r19, 0x00	; 0
    231e:	40 e0       	ldi	r20, 0x00	; 0
    2320:	52 e4       	ldi	r21, 0x42	; 66
    2322:	0e 94 8a 1d 	call	0x3b14	; 0x3b14 <__addsf3>
    2326:	9f 93       	push	r25
    2328:	8f 93       	push	r24
    232a:	7f 93       	push	r23
    232c:	6f 93       	push	r22
    232e:	8f 92       	push	r8
    2330:	9f 92       	push	r9
    2332:	ef 92       	push	r14
    2334:	ff 92       	push	r15
    2336:	8d e3       	ldi	r24, 0x3D	; 61
    2338:	9e e8       	ldi	r25, 0x8E	; 142
    233a:	9f 93       	push	r25
    233c:	8f 93       	push	r24
    233e:	1f 93       	push	r17
    2340:	0f 93       	push	r16
    2342:	0e 94 40 25 	call	0x4a80	; 0x4a80 <sprintf>
			writestr_OLED(1, outbuf, 2);
    2346:	42 e0       	ldi	r20, 0x02	; 2
    2348:	b8 01       	movw	r22, r16
    234a:	81 e0       	ldi	r24, 0x01	; 1
    234c:	0e 94 03 0c 	call	0x1806	; 0x1806 <writestr_OLED>
			break;
    2350:	cd bf       	out	0x3d, r28	; 61
    2352:	de bf       	out	0x3e, r29	; 62
			printError(ERR_BADOBJECT, "report: unknown object");
			return(ERROR);
			break;
	}

	return(NOERROR);
    2354:	f1 2c       	mov	r15, r1
			sprintf(outbuf, format_ENV, currenttime, t0, h0, t1, h1, t2, h2, t3, pcmd[cstack].cid);
			printLine(outbuf);
			writestr_OLED(1, "Temp & Humidity", 1);
			sprintf(outbuf, "%1.1fC %1.0fF %1.0f%%", t0, ((t0*1.8)+32), h0);
			writestr_OLED(1, outbuf, 2);
			break;
    2356:	48 c2       	rjmp	.+1168   	; 0x27e8 <report+0xabe>

		case 'o':					// Orientation
			get_orientation(&x, &y, &z);
    2358:	ae 01       	movw	r20, r28
    235a:	42 53       	subi	r20, 0x32	; 50
    235c:	5d 4f       	sbci	r21, 0xFD	; 253
    235e:	be 01       	movw	r22, r28
    2360:	66 53       	subi	r22, 0x36	; 54
    2362:	7d 4f       	sbci	r23, 0xFD	; 253
    2364:	ce 01       	movw	r24, r28
    2366:	8a 53       	subi	r24, 0x3A	; 58
    2368:	9d 4f       	sbci	r25, 0xFD	; 253
    236a:	0e 94 eb 09 	call	0x13d6	; 0x13d6 <get_orientation>
			get_time(currenttime);
    236e:	7e 01       	movw	r14, r28
    2370:	96 ef       	ldi	r25, 0xF6	; 246
    2372:	e9 1a       	sub	r14, r25
    2374:	9e ef       	ldi	r25, 0xFE	; 254
    2376:	f9 0a       	sbc	r15, r25
    2378:	c7 01       	movw	r24, r14
    237a:	0e 94 bf 05 	call	0xb7e	; 0xb7e <get_time>
			sprintf(outbuf, format_ORI, currenttime, x, y, z, pcmd[cstack].cid);
    237e:	24 e3       	ldi	r18, 0x34	; 52
    2380:	20 9f       	mul	r18, r16
    2382:	c0 01       	movw	r24, r0
    2384:	21 9f       	mul	r18, r17
    2386:	90 0d       	add	r25, r0
    2388:	11 24       	eor	r1, r1
    238a:	82 5d       	subi	r24, 0xD2	; 210
    238c:	97 4d       	sbci	r25, 0xD7	; 215
    238e:	9f 93       	push	r25
    2390:	8f 93       	push	r24
    2392:	cf 52       	subi	r28, 0x2F	; 47
    2394:	dd 4f       	sbci	r29, 0xFD	; 253
    2396:	88 81       	ld	r24, Y
    2398:	c1 5d       	subi	r28, 0xD1	; 209
    239a:	d2 40       	sbci	r29, 0x02	; 2
    239c:	8f 93       	push	r24
    239e:	c0 53       	subi	r28, 0x30	; 48
    23a0:	dd 4f       	sbci	r29, 0xFD	; 253
    23a2:	88 81       	ld	r24, Y
    23a4:	c0 5d       	subi	r28, 0xD0	; 208
    23a6:	d2 40       	sbci	r29, 0x02	; 2
    23a8:	8f 93       	push	r24
    23aa:	c1 53       	subi	r28, 0x31	; 49
    23ac:	dd 4f       	sbci	r29, 0xFD	; 253
    23ae:	88 81       	ld	r24, Y
    23b0:	cf 5c       	subi	r28, 0xCF	; 207
    23b2:	d2 40       	sbci	r29, 0x02	; 2
    23b4:	8f 93       	push	r24
    23b6:	c2 53       	subi	r28, 0x32	; 50
    23b8:	dd 4f       	sbci	r29, 0xFD	; 253
    23ba:	88 81       	ld	r24, Y
    23bc:	ce 5c       	subi	r28, 0xCE	; 206
    23be:	d2 40       	sbci	r29, 0x02	; 2
    23c0:	8f 93       	push	r24
    23c2:	c3 53       	subi	r28, 0x33	; 51
    23c4:	dd 4f       	sbci	r29, 0xFD	; 253
    23c6:	88 81       	ld	r24, Y
    23c8:	cd 5c       	subi	r28, 0xCD	; 205
    23ca:	d2 40       	sbci	r29, 0x02	; 2
    23cc:	8f 93       	push	r24
    23ce:	c4 53       	subi	r28, 0x34	; 52
    23d0:	dd 4f       	sbci	r29, 0xFD	; 253
    23d2:	88 81       	ld	r24, Y
    23d4:	cc 5c       	subi	r28, 0xCC	; 204
    23d6:	d2 40       	sbci	r29, 0x02	; 2
    23d8:	8f 93       	push	r24
    23da:	c5 53       	subi	r28, 0x35	; 53
    23dc:	dd 4f       	sbci	r29, 0xFD	; 253
    23de:	88 81       	ld	r24, Y
    23e0:	cb 5c       	subi	r28, 0xCB	; 203
    23e2:	d2 40       	sbci	r29, 0x02	; 2
    23e4:	8f 93       	push	r24
    23e6:	c6 53       	subi	r28, 0x36	; 54
    23e8:	dd 4f       	sbci	r29, 0xFD	; 253
    23ea:	88 81       	ld	r24, Y
    23ec:	ca 5c       	subi	r28, 0xCA	; 202
    23ee:	d2 40       	sbci	r29, 0x02	; 2
    23f0:	8f 93       	push	r24
    23f2:	c7 53       	subi	r28, 0x37	; 55
    23f4:	dd 4f       	sbci	r29, 0xFD	; 253
    23f6:	88 81       	ld	r24, Y
    23f8:	c9 5c       	subi	r28, 0xC9	; 201
    23fa:	d2 40       	sbci	r29, 0x02	; 2
    23fc:	8f 93       	push	r24
    23fe:	c8 53       	subi	r28, 0x38	; 56
    2400:	dd 4f       	sbci	r29, 0xFD	; 253
    2402:	88 81       	ld	r24, Y
    2404:	c8 5c       	subi	r28, 0xC8	; 200
    2406:	d2 40       	sbci	r29, 0x02	; 2
    2408:	8f 93       	push	r24
    240a:	c9 53       	subi	r28, 0x39	; 57
    240c:	dd 4f       	sbci	r29, 0xFD	; 253
    240e:	88 81       	ld	r24, Y
    2410:	c7 5c       	subi	r28, 0xC7	; 199
    2412:	d2 40       	sbci	r29, 0x02	; 2
    2414:	8f 93       	push	r24
    2416:	ca 53       	subi	r28, 0x3A	; 58
    2418:	dd 4f       	sbci	r29, 0xFD	; 253
    241a:	88 81       	ld	r24, Y
    241c:	c6 5c       	subi	r28, 0xC6	; 198
    241e:	d2 40       	sbci	r29, 0x02	; 2
    2420:	8f 93       	push	r24
    2422:	ff 92       	push	r15
    2424:	ef 92       	push	r14
    2426:	ce 01       	movw	r24, r28
    2428:	85 52       	subi	r24, 0x25	; 37
    242a:	9e 4f       	sbci	r25, 0xFE	; 254
    242c:	9f 93       	push	r25
    242e:	8f 93       	push	r24
    2430:	8e 01       	movw	r16, r28
    2432:	0f 5f       	subi	r16, 0xFF	; 255
    2434:	1f 4f       	sbci	r17, 0xFF	; 255
    2436:	1f 93       	push	r17
    2438:	0f 93       	push	r16
    243a:	0e 94 40 25 	call	0x4a80	; 0x4a80 <sprintf>
			printLine(outbuf);
    243e:	c8 01       	movw	r24, r16
    2440:	0e 94 7f 03 	call	0x6fe	; 0x6fe <printLine>
			writestr_OLED(1, "Orientation", 1);
    2444:	41 e0       	ldi	r20, 0x01	; 1
    2446:	63 e5       	ldi	r22, 0x53	; 83
    2448:	7e e8       	ldi	r23, 0x8E	; 142
    244a:	81 e0       	ldi	r24, 0x01	; 1
    244c:	0e 94 03 0c 	call	0x1806	; 0x1806 <writestr_OLED>
			sprintf(outbuf, dformat_ORI, x, y, z);
    2450:	cf 52       	subi	r28, 0x2F	; 47
    2452:	dd 4f       	sbci	r29, 0xFD	; 253
    2454:	88 81       	ld	r24, Y
    2456:	c1 5d       	subi	r28, 0xD1	; 209
    2458:	d2 40       	sbci	r29, 0x02	; 2
    245a:	8f 93       	push	r24
    245c:	c0 53       	subi	r28, 0x30	; 48
    245e:	dd 4f       	sbci	r29, 0xFD	; 253
    2460:	88 81       	ld	r24, Y
    2462:	c0 5d       	subi	r28, 0xD0	; 208
    2464:	d2 40       	sbci	r29, 0x02	; 2
    2466:	8f 93       	push	r24
    2468:	c1 53       	subi	r28, 0x31	; 49
    246a:	dd 4f       	sbci	r29, 0xFD	; 253
    246c:	88 81       	ld	r24, Y
    246e:	cf 5c       	subi	r28, 0xCF	; 207
    2470:	d2 40       	sbci	r29, 0x02	; 2
    2472:	8f 93       	push	r24
    2474:	c2 53       	subi	r28, 0x32	; 50
    2476:	dd 4f       	sbci	r29, 0xFD	; 253
    2478:	88 81       	ld	r24, Y
    247a:	ce 5c       	subi	r28, 0xCE	; 206
    247c:	d2 40       	sbci	r29, 0x02	; 2
    247e:	8f 93       	push	r24
    2480:	c3 53       	subi	r28, 0x33	; 51
    2482:	dd 4f       	sbci	r29, 0xFD	; 253
    2484:	88 81       	ld	r24, Y
    2486:	cd 5c       	subi	r28, 0xCD	; 205
    2488:	d2 40       	sbci	r29, 0x02	; 2
    248a:	8f 93       	push	r24
    248c:	c4 53       	subi	r28, 0x34	; 52
    248e:	dd 4f       	sbci	r29, 0xFD	; 253
    2490:	88 81       	ld	r24, Y
    2492:	cc 5c       	subi	r28, 0xCC	; 204
    2494:	d2 40       	sbci	r29, 0x02	; 2
    2496:	8f 93       	push	r24
    2498:	c5 53       	subi	r28, 0x35	; 53
    249a:	dd 4f       	sbci	r29, 0xFD	; 253
    249c:	88 81       	ld	r24, Y
    249e:	cb 5c       	subi	r28, 0xCB	; 203
    24a0:	d2 40       	sbci	r29, 0x02	; 2
    24a2:	8f 93       	push	r24
    24a4:	c6 53       	subi	r28, 0x36	; 54
    24a6:	dd 4f       	sbci	r29, 0xFD	; 253
    24a8:	88 81       	ld	r24, Y
    24aa:	ca 5c       	subi	r28, 0xCA	; 202
    24ac:	d2 40       	sbci	r29, 0x02	; 2
    24ae:	8f 93       	push	r24
    24b0:	c7 53       	subi	r28, 0x37	; 55
    24b2:	dd 4f       	sbci	r29, 0xFD	; 253
    24b4:	88 81       	ld	r24, Y
    24b6:	c9 5c       	subi	r28, 0xC9	; 201
    24b8:	d2 40       	sbci	r29, 0x02	; 2
    24ba:	8f 93       	push	r24
    24bc:	c8 53       	subi	r28, 0x38	; 56
    24be:	dd 4f       	sbci	r29, 0xFD	; 253
    24c0:	88 81       	ld	r24, Y
    24c2:	c8 5c       	subi	r28, 0xC8	; 200
    24c4:	d2 40       	sbci	r29, 0x02	; 2
    24c6:	8f 93       	push	r24
    24c8:	c9 53       	subi	r28, 0x39	; 57
    24ca:	dd 4f       	sbci	r29, 0xFD	; 253
    24cc:	88 81       	ld	r24, Y
    24ce:	c7 5c       	subi	r28, 0xC7	; 199
    24d0:	d2 40       	sbci	r29, 0x02	; 2
    24d2:	8f 93       	push	r24
    24d4:	ca 53       	subi	r28, 0x3A	; 58
    24d6:	dd 4f       	sbci	r29, 0xFD	; 253
    24d8:	88 81       	ld	r24, Y
    24da:	c6 5c       	subi	r28, 0xC6	; 198
    24dc:	d2 40       	sbci	r29, 0x02	; 2
    24de:	8f 93       	push	r24
    24e0:	ce 01       	movw	r24, r28
    24e2:	89 50       	subi	r24, 0x09	; 9
    24e4:	9e 4f       	sbci	r25, 0xFE	; 254
    24e6:	9f 93       	push	r25
    24e8:	8f 93       	push	r24
    24ea:	1f 93       	push	r17
    24ec:	0f 93       	push	r16
    24ee:	0e 94 40 25 	call	0x4a80	; 0x4a80 <sprintf>
			writestr_OLED(1, outbuf, 2);
    24f2:	cd bf       	out	0x3d, r28	; 61
    24f4:	de bf       	out	0x3e, r29	; 62
    24f6:	42 e0       	ldi	r20, 0x02	; 2
    24f8:	b8 01       	movw	r22, r16
    24fa:	81 e0       	ldi	r24, 0x01	; 1
    24fc:	0e 94 03 0c 	call	0x1806	; 0x1806 <writestr_OLED>
			printError(ERR_BADOBJECT, "report: unknown object");
			return(ERROR);
			break;
	}

	return(NOERROR);
    2500:	f1 2c       	mov	r15, r1
			sprintf(outbuf, format_ORI, currenttime, x, y, z, pcmd[cstack].cid);
			printLine(outbuf);
			writestr_OLED(1, "Orientation", 1);
			sprintf(outbuf, dformat_ORI, x, y, z);
			writestr_OLED(1, outbuf, 2);
			break;
    2502:	72 c1       	rjmp	.+740    	; 0x27e8 <report+0xabe>

		case 'p':					// Pneumatics
			get_time(currenttime);
    2504:	7e 01       	movw	r14, r28
    2506:	96 ef       	ldi	r25, 0xF6	; 246
    2508:	e9 1a       	sub	r14, r25
    250a:	9e ef       	ldi	r25, 0xFE	; 254
    250c:	f9 0a       	sbc	r15, r25
    250e:	c7 01       	movw	r24, r14
    2510:	0e 94 bf 05 	call	0xb7e	; 0xb7e <get_time>
			read_PNEUSensors(&shutter, &left, &right, &air);
    2514:	9e 01       	movw	r18, r28
    2516:	27 5b       	subi	r18, 0xB7	; 183
    2518:	3e 4f       	sbci	r19, 0xFE	; 254
    251a:	ae 01       	movw	r20, r28
    251c:	48 5b       	subi	r20, 0xB8	; 184
    251e:	5e 4f       	sbci	r21, 0xFE	; 254
    2520:	be 01       	movw	r22, r28
    2522:	69 5b       	subi	r22, 0xB9	; 185
    2524:	7e 4f       	sbci	r23, 0xFE	; 254
    2526:	ce 01       	movw	r24, r28
    2528:	8a 5b       	subi	r24, 0xBA	; 186
    252a:	9e 4f       	sbci	r25, 0xFE	; 254
    252c:	0e 94 7e 0c 	call	0x18fc	; 0x18fc <read_PNEUSensors>
			sprintf(outbuf, format_PNU, currenttime, shutter, left, right, air, pcmd[cstack].cid);
    2530:	24 e3       	ldi	r18, 0x34	; 52
    2532:	20 9f       	mul	r18, r16
    2534:	c0 01       	movw	r24, r0
    2536:	21 9f       	mul	r18, r17
    2538:	90 0d       	add	r25, r0
    253a:	11 24       	eor	r1, r1
    253c:	82 5d       	subi	r24, 0xD2	; 210
    253e:	97 4d       	sbci	r25, 0xD7	; 215
    2540:	9f 93       	push	r25
    2542:	8f 93       	push	r24
    2544:	c7 5b       	subi	r28, 0xB7	; 183
    2546:	de 4f       	sbci	r29, 0xFE	; 254
    2548:	88 81       	ld	r24, Y
    254a:	c9 54       	subi	r28, 0x49	; 73
    254c:	d1 40       	sbci	r29, 0x01	; 1
    254e:	1f 92       	push	r1
    2550:	8f 93       	push	r24
    2552:	c8 5b       	subi	r28, 0xB8	; 184
    2554:	de 4f       	sbci	r29, 0xFE	; 254
    2556:	88 81       	ld	r24, Y
    2558:	c8 54       	subi	r28, 0x48	; 72
    255a:	d1 40       	sbci	r29, 0x01	; 1
    255c:	1f 92       	push	r1
    255e:	8f 93       	push	r24
    2560:	c9 5b       	subi	r28, 0xB9	; 185
    2562:	de 4f       	sbci	r29, 0xFE	; 254
    2564:	88 81       	ld	r24, Y
    2566:	c7 54       	subi	r28, 0x47	; 71
    2568:	d1 40       	sbci	r29, 0x01	; 1
    256a:	1f 92       	push	r1
    256c:	8f 93       	push	r24
    256e:	ca 5b       	subi	r28, 0xBA	; 186
    2570:	de 4f       	sbci	r29, 0xFE	; 254
    2572:	88 81       	ld	r24, Y
    2574:	c6 54       	subi	r28, 0x46	; 70
    2576:	d1 40       	sbci	r29, 0x01	; 1
    2578:	1f 92       	push	r1
    257a:	8f 93       	push	r24
    257c:	ff 92       	push	r15
    257e:	ef 92       	push	r14
    2580:	ce 01       	movw	r24, r28
    2582:	87 5f       	subi	r24, 0xF7	; 247
    2584:	9d 4f       	sbci	r25, 0xFD	; 253
    2586:	9f 93       	push	r25
    2588:	8f 93       	push	r24
    258a:	8e 01       	movw	r16, r28
    258c:	0f 5f       	subi	r16, 0xFF	; 255
    258e:	1f 4f       	sbci	r17, 0xFF	; 255
    2590:	1f 93       	push	r17
    2592:	0f 93       	push	r16
    2594:	0e 94 40 25 	call	0x4a80	; 0x4a80 <sprintf>
			printLine(outbuf);
    2598:	c8 01       	movw	r24, r16
    259a:	0e 94 7f 03 	call	0x6fe	; 0x6fe <printLine>
			sprintf(outbuf, dformat_PN1, left, right);
    259e:	c8 5b       	subi	r28, 0xB8	; 184
    25a0:	de 4f       	sbci	r29, 0xFE	; 254
    25a2:	88 81       	ld	r24, Y
    25a4:	c8 54       	subi	r28, 0x48	; 72
    25a6:	d1 40       	sbci	r29, 0x01	; 1
    25a8:	1f 92       	push	r1
    25aa:	8f 93       	push	r24
    25ac:	c9 5b       	subi	r28, 0xB9	; 185
    25ae:	de 4f       	sbci	r29, 0xFE	; 254
    25b0:	88 81       	ld	r24, Y
    25b2:	c7 54       	subi	r28, 0x47	; 71
    25b4:	d1 40       	sbci	r29, 0x01	; 1
    25b6:	1f 92       	push	r1
    25b8:	8f 93       	push	r24
    25ba:	ce 01       	movw	r24, r28
    25bc:	8a 5c       	subi	r24, 0xCA	; 202
    25be:	9d 4f       	sbci	r25, 0xFD	; 253
    25c0:	9f 93       	push	r25
    25c2:	8f 93       	push	r24
    25c4:	1f 93       	push	r17
    25c6:	0f 93       	push	r16
    25c8:	0e 94 40 25 	call	0x4a80	; 0x4a80 <sprintf>
			writestr_OLED(1, outbuf, 1);
    25cc:	41 e0       	ldi	r20, 0x01	; 1
    25ce:	b8 01       	movw	r22, r16
    25d0:	81 e0       	ldi	r24, 0x01	; 1
    25d2:	0e 94 03 0c 	call	0x1806	; 0x1806 <writestr_OLED>
			sprintf(outbuf, dformat_PN2, shutter, air);
    25d6:	c7 5b       	subi	r28, 0xB7	; 183
    25d8:	de 4f       	sbci	r29, 0xFE	; 254
    25da:	88 81       	ld	r24, Y
    25dc:	c9 54       	subi	r28, 0x49	; 73
    25de:	d1 40       	sbci	r29, 0x01	; 1
    25e0:	1f 92       	push	r1
    25e2:	8f 93       	push	r24
    25e4:	ca 5b       	subi	r28, 0xBA	; 186
    25e6:	de 4f       	sbci	r29, 0xFE	; 254
    25e8:	88 81       	ld	r24, Y
    25ea:	c6 54       	subi	r28, 0x46	; 70
    25ec:	d1 40       	sbci	r29, 0x01	; 1
    25ee:	1f 92       	push	r1
    25f0:	8f 93       	push	r24
    25f2:	ce 01       	movw	r24, r28
    25f4:	87 5b       	subi	r24, 0xB7	; 183
    25f6:	9d 4f       	sbci	r25, 0xFD	; 253
    25f8:	9f 93       	push	r25
    25fa:	8f 93       	push	r24
    25fc:	1f 93       	push	r17
    25fe:	0f 93       	push	r16
    2600:	0e 94 40 25 	call	0x4a80	; 0x4a80 <sprintf>
			writestr_OLED(1, outbuf, 2);
    2604:	cd bf       	out	0x3d, r28	; 61
    2606:	de bf       	out	0x3e, r29	; 62
    2608:	42 e0       	ldi	r20, 0x02	; 2
    260a:	b8 01       	movw	r22, r16
    260c:	81 e0       	ldi	r24, 0x01	; 1
    260e:	0e 94 03 0c 	call	0x1806	; 0x1806 <writestr_OLED>
			printError(ERR_BADOBJECT, "report: unknown object");
			return(ERROR);
			break;
	}

	return(NOERROR);
    2612:	f1 2c       	mov	r15, r1
			printLine(outbuf);
			sprintf(outbuf, dformat_PN1, left, right);
			writestr_OLED(1, outbuf, 1);
			sprintf(outbuf, dformat_PN2, shutter, air);
			writestr_OLED(1, outbuf, 2);
			break;
    2614:	e9 c0       	rjmp	.+466    	; 0x27e8 <report+0xabe>

		case 't':					// Report current time on specMech clock
			get_time(currenttime);
    2616:	7e 01       	movw	r14, r28
    2618:	96 ef       	ldi	r25, 0xF6	; 246
    261a:	e9 1a       	sub	r14, r25
    261c:	9e ef       	ldi	r25, 0xFE	; 254
    261e:	f9 0a       	sbc	r15, r25
    2620:	c7 01       	movw	r24, r14
    2622:	0e 94 bf 05 	call	0xb7e	; 0xb7e <get_time>
			get_SETTIME(lastsettime);
    2626:	6e 01       	movw	r12, r28
    2628:	82 ee       	ldi	r24, 0xE2	; 226
    262a:	c8 1a       	sub	r12, r24
    262c:	8e ef       	ldi	r24, 0xFE	; 254
    262e:	d8 0a       	sbc	r13, r24
    2630:	c6 01       	movw	r24, r12
    2632:	0e 94 1f 07 	call	0xe3e	; 0xe3e <get_SETTIME>
			get_BOOTTIME(boottime);
    2636:	5e 01       	movw	r10, r28
    2638:	9e ec       	ldi	r25, 0xCE	; 206
    263a:	a9 1a       	sub	r10, r25
    263c:	9e ef       	ldi	r25, 0xFE	; 254
    263e:	b9 0a       	sbc	r11, r25
    2640:	c5 01       	movw	r24, r10
    2642:	0e 94 51 06 	call	0xca2	; 0xca2 <get_BOOTTIME>
			sprintf(outbuf, format_TIM, currenttime, lastsettime,
				boottime, pcmd[cstack].cid);
    2646:	24 e3       	ldi	r18, 0x34	; 52
    2648:	20 9f       	mul	r18, r16
    264a:	c0 01       	movw	r24, r0
    264c:	21 9f       	mul	r18, r17
    264e:	90 0d       	add	r25, r0
    2650:	11 24       	eor	r1, r1
    2652:	82 5d       	subi	r24, 0xD2	; 210
    2654:	97 4d       	sbci	r25, 0xD7	; 215

		case 't':					// Report current time on specMech clock
			get_time(currenttime);
			get_SETTIME(lastsettime);
			get_BOOTTIME(boottime);
			sprintf(outbuf, format_TIM, currenttime, lastsettime,
    2656:	9f 93       	push	r25
    2658:	8f 93       	push	r24
    265a:	bf 92       	push	r11
    265c:	af 92       	push	r10
    265e:	df 92       	push	r13
    2660:	cf 92       	push	r12
    2662:	ff 92       	push	r15
    2664:	ef 92       	push	r14
    2666:	ce 01       	movw	r24, r28
    2668:	84 5a       	subi	r24, 0xA4	; 164
    266a:	9d 4f       	sbci	r25, 0xFD	; 253
    266c:	9f 93       	push	r25
    266e:	8f 93       	push	r24
    2670:	8e 01       	movw	r16, r28
    2672:	0f 5f       	subi	r16, 0xFF	; 255
    2674:	1f 4f       	sbci	r17, 0xFF	; 255
    2676:	1f 93       	push	r17
    2678:	0f 93       	push	r16
    267a:	0e 94 40 25 	call	0x4a80	; 0x4a80 <sprintf>
				boottime, pcmd[cstack].cid);
			printLine(outbuf);
    267e:	c8 01       	movw	r24, r16
    2680:	0e 94 7f 03 	call	0x6fe	; 0x6fe <printLine>
			writestr_OLED(1, "Time", 1);
    2684:	41 e0       	ldi	r20, 0x01	; 1
    2686:	6f e5       	ldi	r22, 0x5F	; 95
    2688:	7e e8       	ldi	r23, 0x8E	; 142
    268a:	81 e0       	ldi	r24, 0x01	; 1
    268c:	0e 94 03 0c 	call	0x1806	; 0x1806 <writestr_OLED>
			writestr_OLED(1, &currenttime[11], 2);			
    2690:	b7 01       	movw	r22, r14
    2692:	65 5f       	subi	r22, 0xF5	; 245
    2694:	7f 4f       	sbci	r23, 0xFF	; 255
    2696:	42 e0       	ldi	r20, 0x02	; 2
    2698:	81 e0       	ldi	r24, 0x01	; 1
    269a:	0e 94 03 0c 	call	0x1806	; 0x1806 <writestr_OLED>
			break;
    269e:	cd bf       	out	0x3d, r28	; 61
    26a0:	de bf       	out	0x3e, r29	; 62
			printError(ERR_BADOBJECT, "report: unknown object");
			return(ERROR);
			break;
	}

	return(NOERROR);
    26a2:	f1 2c       	mov	r15, r1
			sprintf(outbuf, format_TIM, currenttime, lastsettime,
				boottime, pcmd[cstack].cid);
			printLine(outbuf);
			writestr_OLED(1, "Time", 1);
			writestr_OLED(1, &currenttime[11], 2);			
			break;
    26a4:	a1 c0       	rjmp	.+322    	; 0x27e8 <report+0xabe>

		case 'v':					// Vacuum
			redvac = read_ionpump(REDPUMP);
    26a6:	81 e0       	ldi	r24, 0x01	; 1
    26a8:	0e 94 3f 08 	call	0x107e	; 0x107e <read_ionpump>
    26ac:	d6 2e       	mov	r13, r22
    26ae:	c7 2e       	mov	r12, r23
    26b0:	b8 2e       	mov	r11, r24
    26b2:	a9 2e       	mov	r10, r25
			bluvac = read_ionpump(BLUEPUMP);
    26b4:	82 e0       	ldi	r24, 0x02	; 2
    26b6:	0e 94 3f 08 	call	0x107e	; 0x107e <read_ionpump>
    26ba:	96 2e       	mov	r9, r22
    26bc:	87 2e       	mov	r8, r23
    26be:	78 2e       	mov	r7, r24
    26c0:	69 2e       	mov	r6, r25
			get_time(currenttime);
    26c2:	7e 01       	movw	r14, r28
    26c4:	96 ef       	ldi	r25, 0xF6	; 246
    26c6:	e9 1a       	sub	r14, r25
    26c8:	9e ef       	ldi	r25, 0xFE	; 254
    26ca:	f9 0a       	sbc	r15, r25
    26cc:	c7 01       	movw	r24, r14
    26ce:	0e 94 bf 05 	call	0xb7e	; 0xb7e <get_time>
			sprintf(outbuf, format_VAC, currenttime, redvac, bluvac, pcmd[cstack].cid);
    26d2:	24 e3       	ldi	r18, 0x34	; 52
    26d4:	20 9f       	mul	r18, r16
    26d6:	c0 01       	movw	r24, r0
    26d8:	21 9f       	mul	r18, r17
    26da:	90 0d       	add	r25, r0
    26dc:	11 24       	eor	r1, r1
    26de:	82 5d       	subi	r24, 0xD2	; 210
    26e0:	97 4d       	sbci	r25, 0xD7	; 215
    26e2:	9f 93       	push	r25
    26e4:	8f 93       	push	r24
    26e6:	6f 92       	push	r6
    26e8:	7f 92       	push	r7
    26ea:	8f 92       	push	r8
    26ec:	9f 92       	push	r9
    26ee:	af 92       	push	r10
    26f0:	bf 92       	push	r11
    26f2:	cf 92       	push	r12
    26f4:	df 92       	push	r13
    26f6:	ff 92       	push	r15
    26f8:	ef 92       	push	r14
    26fa:	ce 01       	movw	r24, r28
    26fc:	8b 58       	subi	r24, 0x8B	; 139
    26fe:	9d 4f       	sbci	r25, 0xFD	; 253
    2700:	9f 93       	push	r25
    2702:	8f 93       	push	r24
    2704:	8e 01       	movw	r16, r28
    2706:	0f 5f       	subi	r16, 0xFF	; 255
    2708:	1f 4f       	sbci	r17, 0xFF	; 255
    270a:	1f 93       	push	r17
    270c:	0f 93       	push	r16
    270e:	0e 94 40 25 	call	0x4a80	; 0x4a80 <sprintf>
			printLine(outbuf);
    2712:	c8 01       	movw	r24, r16
    2714:	0e 94 7f 03 	call	0x6fe	; 0x6fe <printLine>
			writestr_OLED(1, "RedVac  BlueVac", 1);
    2718:	41 e0       	ldi	r20, 0x01	; 1
    271a:	64 e6       	ldi	r22, 0x64	; 100
    271c:	7e e8       	ldi	r23, 0x8E	; 142
    271e:	81 e0       	ldi	r24, 0x01	; 1
    2720:	0e 94 03 0c 	call	0x1806	; 0x1806 <writestr_OLED>
			sprintf(outbuf, dformat_VAC, redvac, bluvac);
    2724:	6f 92       	push	r6
    2726:	7f 92       	push	r7
    2728:	8f 92       	push	r8
    272a:	9f 92       	push	r9
    272c:	af 92       	push	r10
    272e:	bf 92       	push	r11
    2730:	cf 92       	push	r12
    2732:	df 92       	push	r13
    2734:	ce 01       	movw	r24, r28
    2736:	86 56       	subi	r24, 0x66	; 102
    2738:	9d 4f       	sbci	r25, 0xFD	; 253
    273a:	9f 93       	push	r25
    273c:	8f 93       	push	r24
    273e:	1f 93       	push	r17
    2740:	0f 93       	push	r16
    2742:	0e 94 40 25 	call	0x4a80	; 0x4a80 <sprintf>
			writestr_OLED(1, outbuf, 2);
    2746:	42 e0       	ldi	r20, 0x02	; 2
    2748:	b8 01       	movw	r22, r16
    274a:	81 e0       	ldi	r24, 0x01	; 1
    274c:	0e 94 03 0c 	call	0x1806	; 0x1806 <writestr_OLED>
			break;
    2750:	cd bf       	out	0x3d, r28	; 61
    2752:	de bf       	out	0x3e, r29	; 62
			printError(ERR_BADOBJECT, "report: unknown object");
			return(ERROR);
			break;
	}

	return(NOERROR);
    2754:	f1 2c       	mov	r15, r1
			sprintf(outbuf, format_VAC, currenttime, redvac, bluvac, pcmd[cstack].cid);
			printLine(outbuf);
			writestr_OLED(1, "RedVac  BlueVac", 1);
			sprintf(outbuf, dformat_VAC, redvac, bluvac);
			writestr_OLED(1, outbuf, 2);
			break;
    2756:	48 c0       	rjmp	.+144    	; 0x27e8 <report+0xabe>

		case 'V':					// Version
			get_VERSION(version);
    2758:	6e 01       	movw	r12, r28
    275a:	9f ef       	ldi	r25, 0xFF	; 255
    275c:	c9 0e       	add	r12, r25
    275e:	d1 1c       	adc	r13, r1
    2760:	c6 01       	movw	r24, r12
    2762:	0e 94 58 06 	call	0xcb0	; 0xcb0 <get_VERSION>
			get_time(currenttime);
    2766:	7e 01       	movw	r14, r28
    2768:	86 ef       	ldi	r24, 0xF6	; 246
    276a:	e8 1a       	sub	r14, r24
    276c:	8e ef       	ldi	r24, 0xFE	; 254
    276e:	f8 0a       	sbc	r15, r24
    2770:	c7 01       	movw	r24, r14
    2772:	0e 94 bf 05 	call	0xb7e	; 0xb7e <get_time>
			sprintf(outbuf, format_VER, currenttime, version, pcmd[cstack].cid);
    2776:	24 e3       	ldi	r18, 0x34	; 52
    2778:	20 9f       	mul	r18, r16
    277a:	c0 01       	movw	r24, r0
    277c:	21 9f       	mul	r18, r17
    277e:	90 0d       	add	r25, r0
    2780:	11 24       	eor	r1, r1
    2782:	82 5d       	subi	r24, 0xD2	; 210
    2784:	97 4d       	sbci	r25, 0xD7	; 215
    2786:	9f 93       	push	r25
    2788:	8f 93       	push	r24
    278a:	df 92       	push	r13
    278c:	cf 92       	push	r12
    278e:	ff 92       	push	r15
    2790:	ef 92       	push	r14
    2792:	ce 01       	movw	r24, r28
    2794:	89 55       	subi	r24, 0x59	; 89
    2796:	9d 4f       	sbci	r25, 0xFD	; 253
    2798:	9f 93       	push	r25
    279a:	8f 93       	push	r24
    279c:	8e 01       	movw	r16, r28
    279e:	0f 5f       	subi	r16, 0xFF	; 255
    27a0:	1f 4f       	sbci	r17, 0xFF	; 255
    27a2:	1f 93       	push	r17
    27a4:	0f 93       	push	r16
    27a6:	0e 94 40 25 	call	0x4a80	; 0x4a80 <sprintf>
			printLine(outbuf);
    27aa:	c8 01       	movw	r24, r16
    27ac:	0e 94 7f 03 	call	0x6fe	; 0x6fe <printLine>
			writestr_OLED(1, "specMech Version", 1);
    27b0:	41 e0       	ldi	r20, 0x01	; 1
    27b2:	61 ee       	ldi	r22, 0xE1	; 225
    27b4:	7c e8       	ldi	r23, 0x8C	; 140
    27b6:	81 e0       	ldi	r24, 0x01	; 1
    27b8:	0e 94 03 0c 	call	0x1806	; 0x1806 <writestr_OLED>
			get_VERSION(outbuf);
    27bc:	c8 01       	movw	r24, r16
    27be:	0e 94 58 06 	call	0xcb0	; 0xcb0 <get_VERSION>
			writestr_OLED(1, outbuf, 2);
    27c2:	42 e0       	ldi	r20, 0x02	; 2
    27c4:	b8 01       	movw	r22, r16
    27c6:	81 e0       	ldi	r24, 0x01	; 1
    27c8:	0e 94 03 0c 	call	0x1806	; 0x1806 <writestr_OLED>
			break;
    27cc:	cd bf       	out	0x3d, r28	; 61
    27ce:	de bf       	out	0x3e, r29	; 62
			printError(ERR_BADOBJECT, "report: unknown object");
			return(ERROR);
			break;
	}

	return(NOERROR);
    27d0:	f1 2c       	mov	r15, r1
			sprintf(outbuf, format_VER, currenttime, version, pcmd[cstack].cid);
			printLine(outbuf);
			writestr_OLED(1, "specMech Version", 1);
			get_VERSION(outbuf);
			writestr_OLED(1, outbuf, 2);
			break;
    27d2:	0a c0       	rjmp	.+20     	; 0x27e8 <report+0xabe>

		default:
			printError(ERR_BADOBJECT, "report: unknown object");
    27d4:	64 e7       	ldi	r22, 0x74	; 116
    27d6:	7e e8       	ldi	r23, 0x8E	; 142
    27d8:	8a ec       	ldi	r24, 0xCA	; 202
    27da:	90 e0       	ldi	r25, 0x00	; 0
    27dc:	0e 94 9b 06 	call	0xd36	; 0xd36 <printError>
			return(ERROR);
    27e0:	0f 2e       	mov	r0, r31
    27e2:	f3 e6       	ldi	r31, 0x63	; 99
    27e4:	ff 2e       	mov	r15, r31
    27e6:	f0 2d       	mov	r31, r0
			break;
	}

	return(NOERROR);

}
    27e8:	8f 2d       	mov	r24, r15
    27ea:	c3 52       	subi	r28, 0x23	; 35
    27ec:	dd 4f       	sbci	r29, 0xFD	; 253
    27ee:	cd bf       	out	0x3d, r28	; 61
    27f0:	de bf       	out	0x3e, r29	; 62
    27f2:	df 91       	pop	r29
    27f4:	cf 91       	pop	r28
    27f6:	1f 91       	pop	r17
    27f8:	0f 91       	pop	r16
    27fa:	ff 90       	pop	r15
    27fc:	ef 90       	pop	r14
    27fe:	df 90       	pop	r13
    2800:	cf 90       	pop	r12
    2802:	bf 90       	pop	r11
    2804:	af 90       	pop	r10
    2806:	9f 90       	pop	r9
    2808:	8f 90       	pop	r8
    280a:	7f 90       	pop	r7
    280c:	6f 90       	pop	r6
    280e:	5f 90       	pop	r5
    2810:	4f 90       	pop	r4
    2812:	3f 90       	pop	r3
    2814:	2f 90       	pop	r2
    2816:	08 95       	ret

00002818 <crc16>:
	maxPos |= (uint32_t) recv1_buf.data[26] << 8;
	maxPos |= (uint32_t) recv1_buf.data[27];
	pid->maxPos = maxPos;

	return(NOERROR);
}
    2818:	dc 01       	movw	r26, r24
    281a:	40 e0       	ldi	r20, 0x00	; 0
    281c:	50 e0       	ldi	r21, 0x00	; 0
    281e:	80 e0       	ldi	r24, 0x00	; 0
    2820:	90 e0       	ldi	r25, 0x00	; 0
    2822:	1b c0       	rjmp	.+54     	; 0x285a <crc16+0x42>
    2824:	fd 01       	movw	r30, r26
    2826:	e4 0f       	add	r30, r20
    2828:	f5 1f       	adc	r31, r21
    282a:	20 81       	ld	r18, Z
    282c:	30 e0       	ldi	r19, 0x00	; 0
    282e:	32 2f       	mov	r19, r18
    2830:	22 27       	eor	r18, r18
    2832:	82 27       	eor	r24, r18
    2834:	93 27       	eor	r25, r19
    2836:	20 e0       	ldi	r18, 0x00	; 0
    2838:	0c c0       	rjmp	.+24     	; 0x2852 <crc16+0x3a>
    283a:	99 23       	and	r25, r25
    283c:	3c f4       	brge	.+14     	; 0x284c <crc16+0x34>
    283e:	88 0f       	add	r24, r24
    2840:	99 1f       	adc	r25, r25
    2842:	31 e2       	ldi	r19, 0x21	; 33
    2844:	83 27       	eor	r24, r19
    2846:	30 e1       	ldi	r19, 0x10	; 16
    2848:	93 27       	eor	r25, r19
    284a:	02 c0       	rjmp	.+4      	; 0x2850 <crc16+0x38>
    284c:	88 0f       	add	r24, r24
    284e:	99 1f       	adc	r25, r25
    2850:	2f 5f       	subi	r18, 0xFF	; 255
    2852:	28 30       	cpi	r18, 0x08	; 8
    2854:	90 f3       	brcs	.-28     	; 0x283a <crc16+0x22>
    2856:	4f 5f       	subi	r20, 0xFF	; 255
    2858:	5f 4f       	sbci	r21, 0xFF	; 255
    285a:	46 17       	cp	r20, r22
    285c:	57 07       	cpc	r21, r23
    285e:	10 f3       	brcs	.-60     	; 0x2824 <crc16+0xc>
    2860:	08 95       	ret

00002862 <get_FRAM_MOTOR_ENCODER>:
    2862:	ff 92       	push	r15
    2864:	0f 93       	push	r16
    2866:	1f 93       	push	r17
    2868:	cf 93       	push	r28
    286a:	df 93       	push	r29
    286c:	00 d0       	rcall	.+0      	; 0x286e <get_FRAM_MOTOR_ENCODER+0xc>
    286e:	00 d0       	rcall	.+0      	; 0x2870 <get_FRAM_MOTOR_ENCODER+0xe>
    2870:	cd b7       	in	r28, 0x3d	; 61
    2872:	de b7       	in	r29, 0x3e	; 62
    2874:	8b 01       	movw	r16, r22
    2876:	81 38       	cpi	r24, 0x81	; 129
    2878:	59 f0       	breq	.+22     	; 0x2890 <get_FRAM_MOTOR_ENCODER+0x2e>
    287a:	82 38       	cpi	r24, 0x82	; 130
    287c:	31 f0       	breq	.+12     	; 0x288a <get_FRAM_MOTOR_ENCODER+0x28>
    287e:	80 38       	cpi	r24, 0x80	; 128
    2880:	09 f0       	breq	.+2      	; 0x2884 <get_FRAM_MOTOR_ENCODER+0x22>
    2882:	4b c0       	rjmp	.+150    	; 0x291a <get_FRAM_MOTOR_ENCODER+0xb8>
    2884:	64 e1       	ldi	r22, 0x14	; 20
    2886:	70 e0       	ldi	r23, 0x00	; 0
    2888:	05 c0       	rjmp	.+10     	; 0x2894 <get_FRAM_MOTOR_ENCODER+0x32>
    288a:	6c e1       	ldi	r22, 0x1C	; 28
    288c:	70 e0       	ldi	r23, 0x00	; 0
    288e:	02 c0       	rjmp	.+4      	; 0x2894 <get_FRAM_MOTOR_ENCODER+0x32>
    2890:	68 e1       	ldi	r22, 0x18	; 24
    2892:	70 e0       	ldi	r23, 0x00	; 0
    2894:	24 e0       	ldi	r18, 0x04	; 4
    2896:	ae 01       	movw	r20, r28
    2898:	4f 5f       	subi	r20, 0xFF	; 255
    289a:	5f 4f       	sbci	r21, 0xFF	; 255
    289c:	80 e5       	ldi	r24, 0x50	; 80
    289e:	0e 94 d1 06 	call	0xda2	; 0xda2 <read_FRAM>
    28a2:	f8 2e       	mov	r15, r24
    28a4:	83 e6       	ldi	r24, 0x63	; 99
    28a6:	f8 12       	cpse	r15, r24
    28a8:	0f c0       	rjmp	.+30     	; 0x28c8 <get_FRAM_MOTOR_ENCODER+0x66>
    28aa:	65 ef       	ldi	r22, 0xF5	; 245
    28ac:	7f e8       	ldi	r23, 0x8F	; 143
    28ae:	83 e9       	ldi	r24, 0x93	; 147
    28b0:	91 e0       	ldi	r25, 0x01	; 1
    28b2:	0e 94 9b 06 	call	0xd36	; 0xd36 <printError>
    28b6:	8f ef       	ldi	r24, 0xFF	; 255
    28b8:	9f ef       	ldi	r25, 0xFF	; 255
    28ba:	dc 01       	movw	r26, r24
    28bc:	f8 01       	movw	r30, r16
    28be:	80 83       	st	Z, r24
    28c0:	91 83       	std	Z+1, r25	; 0x01
    28c2:	a2 83       	std	Z+2, r26	; 0x02
    28c4:	b3 83       	std	Z+3, r27	; 0x03
    28c6:	2d c0       	rjmp	.+90     	; 0x2922 <get_FRAM_MOTOR_ENCODER+0xc0>
    28c8:	89 81       	ldd	r24, Y+1	; 0x01
    28ca:	90 e0       	ldi	r25, 0x00	; 0
    28cc:	a0 e0       	ldi	r26, 0x00	; 0
    28ce:	b0 e0       	ldi	r27, 0x00	; 0
    28d0:	78 2f       	mov	r23, r24
    28d2:	66 27       	eor	r22, r22
    28d4:	55 27       	eor	r21, r21
    28d6:	44 27       	eor	r20, r20
    28d8:	9a 81       	ldd	r25, Y+2	; 0x02
    28da:	89 2f       	mov	r24, r25
    28dc:	90 e0       	ldi	r25, 0x00	; 0
    28de:	a0 e0       	ldi	r26, 0x00	; 0
    28e0:	b0 e0       	ldi	r27, 0x00	; 0
    28e2:	dc 01       	movw	r26, r24
    28e4:	99 27       	eor	r25, r25
    28e6:	88 27       	eor	r24, r24
    28e8:	84 2b       	or	r24, r20
    28ea:	95 2b       	or	r25, r21
    28ec:	a6 2b       	or	r26, r22
    28ee:	b7 2b       	or	r27, r23
    28f0:	4b 81       	ldd	r20, Y+3	; 0x03
    28f2:	50 e0       	ldi	r21, 0x00	; 0
    28f4:	60 e0       	ldi	r22, 0x00	; 0
    28f6:	70 e0       	ldi	r23, 0x00	; 0
    28f8:	76 2f       	mov	r23, r22
    28fa:	65 2f       	mov	r22, r21
    28fc:	54 2f       	mov	r21, r20
    28fe:	44 27       	eor	r20, r20
    2900:	84 2b       	or	r24, r20
    2902:	95 2b       	or	r25, r21
    2904:	a6 2b       	or	r26, r22
    2906:	b7 2b       	or	r27, r23
    2908:	2c 81       	ldd	r18, Y+4	; 0x04
    290a:	82 2b       	or	r24, r18
    290c:	f8 01       	movw	r30, r16
    290e:	80 83       	st	Z, r24
    2910:	91 83       	std	Z+1, r25	; 0x01
    2912:	a2 83       	std	Z+2, r26	; 0x02
    2914:	b3 83       	std	Z+3, r27	; 0x03
    2916:	f1 2c       	mov	r15, r1
    2918:	04 c0       	rjmp	.+8      	; 0x2922 <get_FRAM_MOTOR_ENCODER+0xc0>
    291a:	0f 2e       	mov	r0, r31
    291c:	f3 e6       	ldi	r31, 0x63	; 99
    291e:	ff 2e       	mov	r15, r31
    2920:	f0 2d       	mov	r31, r0
    2922:	8f 2d       	mov	r24, r15
    2924:	24 96       	adiw	r28, 0x04	; 4
    2926:	cd bf       	out	0x3d, r28	; 61
    2928:	de bf       	out	0x3e, r29	; 62
    292a:	df 91       	pop	r29
    292c:	cf 91       	pop	r28
    292e:	1f 91       	pop	r17
    2930:	0f 91       	pop	r16
    2932:	ff 90       	pop	r15
    2934:	08 95       	ret

00002936 <get_MOTOR>:
    2936:	3f 92       	push	r3
    2938:	4f 92       	push	r4
    293a:	5f 92       	push	r5
    293c:	6f 92       	push	r6
    293e:	7f 92       	push	r7
    2940:	8f 92       	push	r8
    2942:	9f 92       	push	r9
    2944:	af 92       	push	r10
    2946:	bf 92       	push	r11
    2948:	cf 92       	push	r12
    294a:	df 92       	push	r13
    294c:	ef 92       	push	r14
    294e:	ff 92       	push	r15
    2950:	0f 93       	push	r16
    2952:	1f 93       	push	r17
    2954:	cf 93       	push	r28
    2956:	df 93       	push	r29
    2958:	cd b7       	in	r28, 0x3d	; 61
    295a:	de b7       	in	r29, 0x3e	; 62
    295c:	8a 01       	movw	r16, r20
    295e:	32 2e       	mov	r3, r18
    2960:	8d b6       	in	r8, 0x3d	; 61
    2962:	9e b6       	in	r9, 0x3e	; 62
    2964:	a2 2e       	mov	r10, r18
    2966:	b1 2c       	mov	r11, r1
    2968:	75 01       	movw	r14, r10
    296a:	22 e0       	ldi	r18, 0x02	; 2
    296c:	e2 0e       	add	r14, r18
    296e:	f1 1c       	adc	r15, r1
    2970:	25 01       	movw	r4, r10
    2972:	3f ef       	ldi	r19, 0xFF	; 255
    2974:	43 1a       	sub	r4, r19
    2976:	53 0a       	sbc	r5, r19
    2978:	ed b7       	in	r30, 0x3d	; 61
    297a:	fe b7       	in	r31, 0x3e	; 62
    297c:	ee 19       	sub	r30, r14
    297e:	ff 09       	sbc	r31, r15
    2980:	ed bf       	out	0x3d, r30	; 61
    2982:	fe bf       	out	0x3e, r31	; 62
    2984:	2d b7       	in	r18, 0x3d	; 61
    2986:	3e b7       	in	r19, 0x3e	; 62
    2988:	2f 5f       	subi	r18, 0xFF	; 255
    298a:	3f 4f       	sbci	r19, 0xFF	; 255
    298c:	39 01       	movw	r6, r18
    298e:	69 01       	movw	r12, r18
    2990:	92 e0       	ldi	r25, 0x02	; 2
    2992:	93 0d       	add	r25, r3
    2994:	90 93 35 2b 	sts	0x2B35, r25	; 0x802b35 <recv1_buf+0x100>
    2998:	10 92 37 2b 	sts	0x2B37, r1	; 0x802b37 <recv1_buf+0x102>
    299c:	10 92 38 2b 	sts	0x2B38, r1	; 0x802b38 <recv1_buf+0x103>
    29a0:	81 83       	std	Z+1, r24	; 0x01
    29a2:	f9 01       	movw	r30, r18
    29a4:	61 83       	std	Z+1, r22	; 0x01
    29a6:	42 e0       	ldi	r20, 0x02	; 2
    29a8:	b9 01       	movw	r22, r18
    29aa:	81 e0       	ldi	r24, 0x01	; 1
    29ac:	0e 94 66 1b 	call	0x36cc	; 0x36cc <send_USART>
    29b0:	10 92 30 2a 	sts	0x2A30, r1	; 0x802a30 <USART1_ticks>
    29b4:	10 92 31 2a 	sts	0x2A31, r1	; 0x802a31 <USART1_ticks+0x1>
    29b8:	81 e0       	ldi	r24, 0x01	; 1
    29ba:	90 e0       	ldi	r25, 0x00	; 0
    29bc:	0e 94 c4 19 	call	0x3388	; 0x3388 <start_TCB0>
    29c0:	10 c0       	rjmp	.+32     	; 0x29e2 <get_MOTOR+0xac>
    29c2:	80 91 30 2a 	lds	r24, 0x2A30	; 0x802a30 <USART1_ticks>
    29c6:	90 91 31 2a 	lds	r25, 0x2A31	; 0x802a31 <USART1_ticks+0x1>
    29ca:	c3 97       	sbiw	r24, 0x33	; 51
    29cc:	50 f0       	brcs	.+20     	; 0x29e2 <get_MOTOR+0xac>
    29ce:	0e 94 da 19 	call	0x33b4	; 0x33b4 <stop_TCB0>
    29d2:	6d e1       	ldi	r22, 0x1D	; 29
    29d4:	70 e9       	ldi	r23, 0x90	; 144
    29d6:	80 e3       	ldi	r24, 0x30	; 48
    29d8:	91 e0       	ldi	r25, 0x01	; 1
    29da:	0e 94 9b 06 	call	0xd36	; 0xd36 <printError>
    29de:	83 e6       	ldi	r24, 0x63	; 99
    29e0:	41 c0       	rjmp	.+130    	; 0x2a64 <get_MOTOR+0x12e>
    29e2:	80 91 38 2b 	lds	r24, 0x2B38	; 0x802b38 <recv1_buf+0x103>
    29e6:	88 23       	and	r24, r24
    29e8:	61 f3       	breq	.-40     	; 0x29c2 <get_MOTOR+0x8c>
    29ea:	0e 94 da 19 	call	0x33b4	; 0x33b4 <stop_TCB0>
    29ee:	f5 01       	movw	r30, r10
    29f0:	eb 5c       	subi	r30, 0xCB	; 203
    29f2:	f5 4d       	sbci	r31, 0xD5	; 213
    29f4:	a0 80       	ld	r10, Z
    29f6:	b1 2c       	mov	r11, r1
    29f8:	ba 2c       	mov	r11, r10
    29fa:	aa 24       	eor	r10, r10
    29fc:	f2 01       	movw	r30, r4
    29fe:	eb 5c       	subi	r30, 0xCB	; 203
    2a00:	f5 4d       	sbci	r31, 0xD5	; 213
    2a02:	80 81       	ld	r24, Z
    2a04:	a8 2a       	or	r10, r24
    2a06:	22 e0       	ldi	r18, 0x02	; 2
    2a08:	09 c0       	rjmp	.+18     	; 0x2a1c <get_MOTOR+0xe6>
    2a0a:	fc 01       	movw	r30, r24
    2a0c:	ed 5c       	subi	r30, 0xCD	; 205
    2a0e:	f5 4d       	sbci	r31, 0xD5	; 213
    2a10:	30 81       	ld	r19, Z
    2a12:	f6 01       	movw	r30, r12
    2a14:	e8 0f       	add	r30, r24
    2a16:	f9 1f       	adc	r31, r25
    2a18:	30 83       	st	Z, r19
    2a1a:	2f 5f       	subi	r18, 0xFF	; 255
    2a1c:	82 2f       	mov	r24, r18
    2a1e:	90 e0       	ldi	r25, 0x00	; 0
    2a20:	8e 15       	cp	r24, r14
    2a22:	9f 05       	cpc	r25, r15
    2a24:	94 f3       	brlt	.-28     	; 0x2a0a <get_MOTOR+0xd4>
    2a26:	b7 01       	movw	r22, r14
    2a28:	c3 01       	movw	r24, r6
    2a2a:	0e 94 0c 14 	call	0x2818	; 0x2818 <crc16>
    2a2e:	a8 16       	cp	r10, r24
    2a30:	b9 06       	cpc	r11, r25
    2a32:	a1 f0       	breq	.+40     	; 0x2a5c <get_MOTOR+0x126>
    2a34:	67 e3       	ldi	r22, 0x37	; 55
    2a36:	70 e9       	ldi	r23, 0x90	; 144
    2a38:	81 e3       	ldi	r24, 0x31	; 49
    2a3a:	91 e0       	ldi	r25, 0x01	; 1
    2a3c:	0e 94 9b 06 	call	0xd36	; 0xd36 <printError>
    2a40:	83 e6       	ldi	r24, 0x63	; 99
    2a42:	10 c0       	rjmp	.+32     	; 0x2a64 <get_MOTOR+0x12e>
    2a44:	82 2f       	mov	r24, r18
    2a46:	90 e0       	ldi	r25, 0x00	; 0
    2a48:	f8 01       	movw	r30, r16
    2a4a:	e8 0f       	add	r30, r24
    2a4c:	f9 1f       	adc	r31, r25
    2a4e:	dc 01       	movw	r26, r24
    2a50:	ab 5c       	subi	r26, 0xCB	; 203
    2a52:	b5 4d       	sbci	r27, 0xD5	; 213
    2a54:	8c 91       	ld	r24, X
    2a56:	80 83       	st	Z, r24
    2a58:	2f 5f       	subi	r18, 0xFF	; 255
    2a5a:	01 c0       	rjmp	.+2      	; 0x2a5e <get_MOTOR+0x128>
    2a5c:	20 e0       	ldi	r18, 0x00	; 0
    2a5e:	23 15       	cp	r18, r3
    2a60:	88 f3       	brcs	.-30     	; 0x2a44 <get_MOTOR+0x10e>
    2a62:	80 e0       	ldi	r24, 0x00	; 0
    2a64:	8d be       	out	0x3d, r8	; 61
    2a66:	9e be       	out	0x3e, r9	; 62
    2a68:	df 91       	pop	r29
    2a6a:	cf 91       	pop	r28
    2a6c:	1f 91       	pop	r17
    2a6e:	0f 91       	pop	r16
    2a70:	ff 90       	pop	r15
    2a72:	ef 90       	pop	r14
    2a74:	df 90       	pop	r13
    2a76:	cf 90       	pop	r12
    2a78:	bf 90       	pop	r11
    2a7a:	af 90       	pop	r10
    2a7c:	9f 90       	pop	r9
    2a7e:	8f 90       	pop	r8
    2a80:	7f 90       	pop	r7
    2a82:	6f 90       	pop	r6
    2a84:	5f 90       	pop	r5
    2a86:	4f 90       	pop	r4
    2a88:	3f 90       	pop	r3
    2a8a:	08 95       	ret

00002a8c <get_MOTOR_ENCODER>:
    2a8c:	ff 92       	push	r15
    2a8e:	0f 93       	push	r16
    2a90:	1f 93       	push	r17
    2a92:	cf 93       	push	r28
    2a94:	df 93       	push	r29
    2a96:	cd b7       	in	r28, 0x3d	; 61
    2a98:	de b7       	in	r29, 0x3e	; 62
    2a9a:	25 97       	sbiw	r28, 0x05	; 5
    2a9c:	cd bf       	out	0x3d, r28	; 61
    2a9e:	de bf       	out	0x3e, r29	; 62
    2aa0:	8b 01       	movw	r16, r22
    2aa2:	25 e0       	ldi	r18, 0x05	; 5
    2aa4:	ae 01       	movw	r20, r28
    2aa6:	4f 5f       	subi	r20, 0xFF	; 255
    2aa8:	5f 4f       	sbci	r21, 0xFF	; 255
    2aaa:	60 e1       	ldi	r22, 0x10	; 16
    2aac:	0e 94 9b 14 	call	0x2936	; 0x2936 <get_MOTOR>
    2ab0:	f8 2e       	mov	r15, r24
    2ab2:	83 e6       	ldi	r24, 0x63	; 99
    2ab4:	f8 12       	cpse	r15, r24
    2ab6:	07 c0       	rjmp	.+14     	; 0x2ac6 <get_MOTOR_ENCODER+0x3a>
    2ab8:	6f e4       	ldi	r22, 0x4F	; 79
    2aba:	70 e9       	ldi	r23, 0x90	; 144
    2abc:	86 e3       	ldi	r24, 0x36	; 54
    2abe:	91 e0       	ldi	r25, 0x01	; 1
    2ac0:	0e 94 9b 06 	call	0xd36	; 0xd36 <printError>
    2ac4:	28 c0       	rjmp	.+80     	; 0x2b16 <get_MOTOR_ENCODER+0x8a>
    2ac6:	89 81       	ldd	r24, Y+1	; 0x01
    2ac8:	90 e0       	ldi	r25, 0x00	; 0
    2aca:	a0 e0       	ldi	r26, 0x00	; 0
    2acc:	b0 e0       	ldi	r27, 0x00	; 0
    2ace:	78 2f       	mov	r23, r24
    2ad0:	66 27       	eor	r22, r22
    2ad2:	55 27       	eor	r21, r21
    2ad4:	44 27       	eor	r20, r20
    2ad6:	9a 81       	ldd	r25, Y+2	; 0x02
    2ad8:	89 2f       	mov	r24, r25
    2ada:	90 e0       	ldi	r25, 0x00	; 0
    2adc:	a0 e0       	ldi	r26, 0x00	; 0
    2ade:	b0 e0       	ldi	r27, 0x00	; 0
    2ae0:	dc 01       	movw	r26, r24
    2ae2:	99 27       	eor	r25, r25
    2ae4:	88 27       	eor	r24, r24
    2ae6:	84 2b       	or	r24, r20
    2ae8:	95 2b       	or	r25, r21
    2aea:	a6 2b       	or	r26, r22
    2aec:	b7 2b       	or	r27, r23
    2aee:	4b 81       	ldd	r20, Y+3	; 0x03
    2af0:	50 e0       	ldi	r21, 0x00	; 0
    2af2:	60 e0       	ldi	r22, 0x00	; 0
    2af4:	70 e0       	ldi	r23, 0x00	; 0
    2af6:	76 2f       	mov	r23, r22
    2af8:	65 2f       	mov	r22, r21
    2afa:	54 2f       	mov	r21, r20
    2afc:	44 27       	eor	r20, r20
    2afe:	84 2b       	or	r24, r20
    2b00:	95 2b       	or	r25, r21
    2b02:	a6 2b       	or	r26, r22
    2b04:	b7 2b       	or	r27, r23
    2b06:	2c 81       	ldd	r18, Y+4	; 0x04
    2b08:	82 2b       	or	r24, r18
    2b0a:	f8 01       	movw	r30, r16
    2b0c:	80 83       	st	Z, r24
    2b0e:	91 83       	std	Z+1, r25	; 0x01
    2b10:	a2 83       	std	Z+2, r26	; 0x02
    2b12:	b3 83       	std	Z+3, r27	; 0x03
    2b14:	f1 2c       	mov	r15, r1
    2b16:	8f 2d       	mov	r24, r15
    2b18:	25 96       	adiw	r28, 0x05	; 5
    2b1a:	cd bf       	out	0x3d, r28	; 61
    2b1c:	de bf       	out	0x3e, r29	; 62
    2b1e:	df 91       	pop	r29
    2b20:	cf 91       	pop	r28
    2b22:	1f 91       	pop	r17
    2b24:	0f 91       	pop	r16
    2b26:	ff 90       	pop	r15
    2b28:	08 95       	ret

00002b2a <get_MOTOR_FLOAT>:
    2b2a:	ff 92       	push	r15
    2b2c:	0f 93       	push	r16
    2b2e:	1f 93       	push	r17
    2b30:	cf 93       	push	r28
    2b32:	df 93       	push	r29
    2b34:	00 d0       	rcall	.+0      	; 0x2b36 <get_MOTOR_FLOAT+0xc>
    2b36:	cd b7       	in	r28, 0x3d	; 61
    2b38:	de b7       	in	r29, 0x3e	; 62
    2b3a:	8a 01       	movw	r16, r20
    2b3c:	22 e0       	ldi	r18, 0x02	; 2
    2b3e:	ae 01       	movw	r20, r28
    2b40:	4f 5f       	subi	r20, 0xFF	; 255
    2b42:	5f 4f       	sbci	r21, 0xFF	; 255
    2b44:	0e 94 9b 14 	call	0x2936	; 0x2936 <get_MOTOR>
    2b48:	f8 2e       	mov	r15, r24
    2b4a:	83 e6       	ldi	r24, 0x63	; 99
    2b4c:	f8 12       	cpse	r15, r24
    2b4e:	10 c0       	rjmp	.+32     	; 0x2b70 <get_MOTOR_FLOAT+0x46>
    2b50:	62 e7       	ldi	r22, 0x72	; 114
    2b52:	70 e9       	ldi	r23, 0x90	; 144
    2b54:	86 e3       	ldi	r24, 0x36	; 54
    2b56:	91 e0       	ldi	r25, 0x01	; 1
    2b58:	0e 94 9b 06 	call	0xd36	; 0xd36 <printError>
    2b5c:	80 e0       	ldi	r24, 0x00	; 0
    2b5e:	90 e8       	ldi	r25, 0x80	; 128
    2b60:	a6 e2       	ldi	r26, 0x26	; 38
    2b62:	b4 ec       	ldi	r27, 0xC4	; 196
    2b64:	f8 01       	movw	r30, r16
    2b66:	80 83       	st	Z, r24
    2b68:	91 83       	std	Z+1, r25	; 0x01
    2b6a:	a2 83       	std	Z+2, r26	; 0x02
    2b6c:	b3 83       	std	Z+3, r27	; 0x03
    2b6e:	18 c0       	rjmp	.+48     	; 0x2ba0 <get_MOTOR_FLOAT+0x76>
    2b70:	69 81       	ldd	r22, Y+1	; 0x01
    2b72:	70 e0       	ldi	r23, 0x00	; 0
    2b74:	76 2f       	mov	r23, r22
    2b76:	66 27       	eor	r22, r22
    2b78:	8a 81       	ldd	r24, Y+2	; 0x02
    2b7a:	68 2b       	or	r22, r24
    2b7c:	07 2e       	mov	r0, r23
    2b7e:	00 0c       	add	r0, r0
    2b80:	88 0b       	sbc	r24, r24
    2b82:	99 0b       	sbc	r25, r25
    2b84:	0e 94 6f 1e 	call	0x3cde	; 0x3cde <__floatsisf>
    2b88:	20 e0       	ldi	r18, 0x00	; 0
    2b8a:	30 e0       	ldi	r19, 0x00	; 0
    2b8c:	40 e2       	ldi	r20, 0x20	; 32
    2b8e:	51 e4       	ldi	r21, 0x41	; 65
    2b90:	0e 94 fb 1d 	call	0x3bf6	; 0x3bf6 <__divsf3>
    2b94:	f8 01       	movw	r30, r16
    2b96:	60 83       	st	Z, r22
    2b98:	71 83       	std	Z+1, r23	; 0x01
    2b9a:	82 83       	std	Z+2, r24	; 0x02
    2b9c:	93 83       	std	Z+3, r25	; 0x03
    2b9e:	f1 2c       	mov	r15, r1
    2ba0:	8f 2d       	mov	r24, r15
    2ba2:	0f 90       	pop	r0
    2ba4:	0f 90       	pop	r0
    2ba6:	df 91       	pop	r29
    2ba8:	cf 91       	pop	r28
    2baa:	1f 91       	pop	r17
    2bac:	0f 91       	pop	r16
    2bae:	ff 90       	pop	r15
    2bb0:	08 95       	ret

00002bb2 <get_MOTOR_SPEED>:
    2bb2:	ff 92       	push	r15
    2bb4:	0f 93       	push	r16
    2bb6:	1f 93       	push	r17
    2bb8:	cf 93       	push	r28
    2bba:	df 93       	push	r29
    2bbc:	cd b7       	in	r28, 0x3d	; 61
    2bbe:	de b7       	in	r29, 0x3e	; 62
    2bc0:	25 97       	sbiw	r28, 0x05	; 5
    2bc2:	cd bf       	out	0x3d, r28	; 61
    2bc4:	de bf       	out	0x3e, r29	; 62
    2bc6:	8b 01       	movw	r16, r22
    2bc8:	25 e0       	ldi	r18, 0x05	; 5
    2bca:	ae 01       	movw	r20, r28
    2bcc:	4f 5f       	subi	r20, 0xFF	; 255
    2bce:	5f 4f       	sbci	r21, 0xFF	; 255
    2bd0:	62 e1       	ldi	r22, 0x12	; 18
    2bd2:	0e 94 9b 14 	call	0x2936	; 0x2936 <get_MOTOR>
    2bd6:	f8 2e       	mov	r15, r24
    2bd8:	83 e6       	ldi	r24, 0x63	; 99
    2bda:	f8 12       	cpse	r15, r24
    2bdc:	07 c0       	rjmp	.+14     	; 0x2bec <get_MOTOR_SPEED+0x3a>
    2bde:	63 e9       	ldi	r22, 0x93	; 147
    2be0:	70 e9       	ldi	r23, 0x90	; 144
    2be2:	86 e3       	ldi	r24, 0x36	; 54
    2be4:	91 e0       	ldi	r25, 0x01	; 1
    2be6:	0e 94 9b 06 	call	0xd36	; 0xd36 <printError>
    2bea:	28 c0       	rjmp	.+80     	; 0x2c3c <get_MOTOR_SPEED+0x8a>
    2bec:	89 81       	ldd	r24, Y+1	; 0x01
    2bee:	90 e0       	ldi	r25, 0x00	; 0
    2bf0:	a0 e0       	ldi	r26, 0x00	; 0
    2bf2:	b0 e0       	ldi	r27, 0x00	; 0
    2bf4:	78 2f       	mov	r23, r24
    2bf6:	66 27       	eor	r22, r22
    2bf8:	55 27       	eor	r21, r21
    2bfa:	44 27       	eor	r20, r20
    2bfc:	9a 81       	ldd	r25, Y+2	; 0x02
    2bfe:	89 2f       	mov	r24, r25
    2c00:	90 e0       	ldi	r25, 0x00	; 0
    2c02:	a0 e0       	ldi	r26, 0x00	; 0
    2c04:	b0 e0       	ldi	r27, 0x00	; 0
    2c06:	dc 01       	movw	r26, r24
    2c08:	99 27       	eor	r25, r25
    2c0a:	88 27       	eor	r24, r24
    2c0c:	84 2b       	or	r24, r20
    2c0e:	95 2b       	or	r25, r21
    2c10:	a6 2b       	or	r26, r22
    2c12:	b7 2b       	or	r27, r23
    2c14:	4b 81       	ldd	r20, Y+3	; 0x03
    2c16:	50 e0       	ldi	r21, 0x00	; 0
    2c18:	60 e0       	ldi	r22, 0x00	; 0
    2c1a:	70 e0       	ldi	r23, 0x00	; 0
    2c1c:	76 2f       	mov	r23, r22
    2c1e:	65 2f       	mov	r22, r21
    2c20:	54 2f       	mov	r21, r20
    2c22:	44 27       	eor	r20, r20
    2c24:	84 2b       	or	r24, r20
    2c26:	95 2b       	or	r25, r21
    2c28:	a6 2b       	or	r26, r22
    2c2a:	b7 2b       	or	r27, r23
    2c2c:	2c 81       	ldd	r18, Y+4	; 0x04
    2c2e:	82 2b       	or	r24, r18
    2c30:	f8 01       	movw	r30, r16
    2c32:	80 83       	st	Z, r24
    2c34:	91 83       	std	Z+1, r25	; 0x01
    2c36:	a2 83       	std	Z+2, r26	; 0x02
    2c38:	b3 83       	std	Z+3, r27	; 0x03
    2c3a:	f1 2c       	mov	r15, r1
    2c3c:	8f 2d       	mov	r24, r15
    2c3e:	25 96       	adiw	r28, 0x05	; 5
    2c40:	cd bf       	out	0x3d, r28	; 61
    2c42:	de bf       	out	0x3e, r29	; 62
    2c44:	df 91       	pop	r29
    2c46:	cf 91       	pop	r28
    2c48:	1f 91       	pop	r17
    2c4a:	0f 91       	pop	r16
    2c4c:	ff 90       	pop	r15
    2c4e:	08 95       	ret

00002c50 <get_MOTOR_CURRENT>:
    2c50:	ff 92       	push	r15
    2c52:	0f 93       	push	r16
    2c54:	1f 93       	push	r17
    2c56:	cf 93       	push	r28
    2c58:	df 93       	push	r29
    2c5a:	00 d0       	rcall	.+0      	; 0x2c5c <get_MOTOR_CURRENT+0xc>
    2c5c:	00 d0       	rcall	.+0      	; 0x2c5e <get_MOTOR_CURRENT+0xe>
    2c5e:	cd b7       	in	r28, 0x3d	; 61
    2c60:	de b7       	in	r29, 0x3e	; 62
    2c62:	8b 01       	movw	r16, r22
    2c64:	24 e0       	ldi	r18, 0x04	; 4
    2c66:	ae 01       	movw	r20, r28
    2c68:	4f 5f       	subi	r20, 0xFF	; 255
    2c6a:	5f 4f       	sbci	r21, 0xFF	; 255
    2c6c:	61 e3       	ldi	r22, 0x31	; 49
    2c6e:	0e 94 9b 14 	call	0x2936	; 0x2936 <get_MOTOR>
    2c72:	f8 2e       	mov	r15, r24
    2c74:	83 e6       	ldi	r24, 0x63	; 99
    2c76:	f8 12       	cpse	r15, r24
    2c78:	0c c0       	rjmp	.+24     	; 0x2c92 <get_MOTOR_CURRENT+0x42>
    2c7a:	69 eb       	ldi	r22, 0xB9	; 185
    2c7c:	70 e9       	ldi	r23, 0x90	; 144
    2c7e:	86 e3       	ldi	r24, 0x36	; 54
    2c80:	91 e0       	ldi	r25, 0x01	; 1
    2c82:	0e 94 9b 06 	call	0xd36	; 0xd36 <printError>
    2c86:	8f ef       	ldi	r24, 0xFF	; 255
    2c88:	9f ef       	ldi	r25, 0xFF	; 255
    2c8a:	f8 01       	movw	r30, r16
    2c8c:	80 83       	st	Z, r24
    2c8e:	91 83       	std	Z+1, r25	; 0x01
    2c90:	15 c0       	rjmp	.+42     	; 0x2cbc <get_MOTOR_CURRENT+0x6c>
    2c92:	89 81       	ldd	r24, Y+1	; 0x01
    2c94:	90 e0       	ldi	r25, 0x00	; 0
    2c96:	98 2f       	mov	r25, r24
    2c98:	88 27       	eor	r24, r24
    2c9a:	2a 81       	ldd	r18, Y+2	; 0x02
    2c9c:	82 2b       	or	r24, r18
    2c9e:	9c 01       	movw	r18, r24
    2ca0:	22 0f       	add	r18, r18
    2ca2:	33 1f       	adc	r19, r19
    2ca4:	88 0f       	add	r24, r24
    2ca6:	99 1f       	adc	r25, r25
    2ca8:	88 0f       	add	r24, r24
    2caa:	99 1f       	adc	r25, r25
    2cac:	88 0f       	add	r24, r24
    2cae:	99 1f       	adc	r25, r25
    2cb0:	82 0f       	add	r24, r18
    2cb2:	93 1f       	adc	r25, r19
    2cb4:	f8 01       	movw	r30, r16
    2cb6:	80 83       	st	Z, r24
    2cb8:	91 83       	std	Z+1, r25	; 0x01
    2cba:	f1 2c       	mov	r15, r1
    2cbc:	8f 2d       	mov	r24, r15
    2cbe:	24 96       	adiw	r28, 0x04	; 4
    2cc0:	cd bf       	out	0x3d, r28	; 61
    2cc2:	de bf       	out	0x3e, r29	; 62
    2cc4:	df 91       	pop	r29
    2cc6:	cf 91       	pop	r28
    2cc8:	1f 91       	pop	r17
    2cca:	0f 91       	pop	r16
    2ccc:	ff 90       	pop	r15
    2cce:	08 95       	ret

00002cd0 <motorsMoving>:
	}
	return(NOERROR);
}

uint8_t motorsMoving(void)
{
    2cd0:	1f 93       	push	r17
    2cd2:	cf 93       	push	r28
    2cd4:	df 93       	push	r29
    2cd6:	00 d0       	rcall	.+0      	; 0x2cd8 <motorsMoving+0x8>
    2cd8:	00 d0       	rcall	.+0      	; 0x2cda <motorsMoving+0xa>
    2cda:	cd b7       	in	r28, 0x3d	; 61
    2cdc:	de b7       	in	r29, 0x3e	; 62
	uint8_t i;
	int32_t encoderSpeed;

	for (i = MOTOR_A; i <= MOTOR_C; i++) {
    2cde:	10 e8       	ldi	r17, 0x80	; 128
    2ce0:	18 c0       	rjmp	.+48     	; 0x2d12 <motorsMoving+0x42>
		if (get_MOTOR_SPEED(i, &encoderSpeed) == ERROR) {
    2ce2:	be 01       	movw	r22, r28
    2ce4:	6f 5f       	subi	r22, 0xFF	; 255
    2ce6:	7f 4f       	sbci	r23, 0xFF	; 255
    2ce8:	81 2f       	mov	r24, r17
    2cea:	0e 94 d9 15 	call	0x2bb2	; 0x2bb2 <get_MOTOR_SPEED>
    2cee:	83 36       	cpi	r24, 0x63	; 99
    2cf0:	39 f4       	brne	.+14     	; 0x2d00 <motorsMoving+0x30>
			printError(ERR_MTR, "motorsMoving: get_MOTOR_SPEED error");
    2cf2:	6a e0       	ldi	r22, 0x0A	; 10
    2cf4:	71 e9       	ldi	r23, 0x91	; 145
    2cf6:	86 e3       	ldi	r24, 0x36	; 54
    2cf8:	91 e0       	ldi	r25, 0x01	; 1
    2cfa:	0e 94 9b 06 	call	0xd36	; 0xd36 <printError>
			continue;
    2cfe:	08 c0       	rjmp	.+16     	; 0x2d10 <motorsMoving+0x40>
		}
		if (encoderSpeed != 0) {
    2d00:	89 81       	ldd	r24, Y+1	; 0x01
    2d02:	9a 81       	ldd	r25, Y+2	; 0x02
    2d04:	ab 81       	ldd	r26, Y+3	; 0x03
    2d06:	bc 81       	ldd	r27, Y+4	; 0x04
    2d08:	89 2b       	or	r24, r25
    2d0a:	8a 2b       	or	r24, r26
    2d0c:	8b 2b       	or	r24, r27
    2d0e:	29 f4       	brne	.+10     	; 0x2d1a <motorsMoving+0x4a>
uint8_t motorsMoving(void)
{
	uint8_t i;
	int32_t encoderSpeed;

	for (i = MOTOR_A; i <= MOTOR_C; i++) {
    2d10:	1f 5f       	subi	r17, 0xFF	; 255
    2d12:	13 38       	cpi	r17, 0x83	; 131
    2d14:	30 f3       	brcs	.-52     	; 0x2ce2 <motorsMoving+0x12>
		if (encoderSpeed != 0) {
			return(YES);
		}
	}

	return(NO);
    2d16:	80 e0       	ldi	r24, 0x00	; 0
    2d18:	01 c0       	rjmp	.+2      	; 0x2d1c <motorsMoving+0x4c>
		if (get_MOTOR_SPEED(i, &encoderSpeed) == ERROR) {
			printError(ERR_MTR, "motorsMoving: get_MOTOR_SPEED error");
			continue;
		}
		if (encoderSpeed != 0) {
			return(YES);
    2d1a:	81 e0       	ldi	r24, 0x01	; 1
		}
	}

	return(NO);

}
    2d1c:	24 96       	adiw	r28, 0x04	; 4
    2d1e:	cd bf       	out	0x3d, r28	; 61
    2d20:	de bf       	out	0x3e, r29	; 62
    2d22:	df 91       	pop	r29
    2d24:	cf 91       	pop	r28
    2d26:	1f 91       	pop	r17
    2d28:	08 95       	ret

00002d2a <put_FRAM_ENCODERS>:
	Returns:
		ERROR on get_MOTOREncoder or write_FRAM failure
		NOERROR otherwise
------------------------------------------------------------------------------*/
uint8_t put_FRAM_ENCODERS(void)
{
    2d2a:	ef 92       	push	r14
    2d2c:	ff 92       	push	r15
    2d2e:	0f 93       	push	r16
    2d30:	1f 93       	push	r17
    2d32:	cf 93       	push	r28
    2d34:	df 93       	push	r29
    2d36:	cd b7       	in	r28, 0x3d	; 61
    2d38:	de b7       	in	r29, 0x3e	; 62
    2d3a:	61 97       	sbiw	r28, 0x11	; 17
    2d3c:	cd bf       	out	0x3d, r28	; 61
    2d3e:	de bf       	out	0x3e, r29	; 62

	uint8_t i, tbuf[4], errorFlag, mtraddr[3] = {MOTOR_A, MOTOR_B, MOTOR_C};
    2d40:	80 e8       	ldi	r24, 0x80	; 128
    2d42:	8d 83       	std	Y+5, r24	; 0x05
    2d44:	81 e8       	ldi	r24, 0x81	; 129
    2d46:	8e 83       	std	Y+6, r24	; 0x06
    2d48:	82 e8       	ldi	r24, 0x82	; 130
    2d4a:	8f 83       	std	Y+7, r24	; 0x07
	uint16_t memaddr[3] = {ENCA_FRAMADDR, ENCB_FRAMADDR, ENCC_FRAMADDR};
    2d4c:	86 e0       	ldi	r24, 0x06	; 6
    2d4e:	ec e0       	ldi	r30, 0x0C	; 12
    2d50:	fc e8       	ldi	r31, 0x8C	; 140
    2d52:	de 01       	movw	r26, r28
    2d54:	18 96       	adiw	r26, 0x08	; 8
    2d56:	01 90       	ld	r0, Z+
    2d58:	0d 92       	st	X+, r0
    2d5a:	8a 95       	dec	r24
    2d5c:	e1 f7       	brne	.-8      	; 0x2d56 <put_FRAM_ENCODERS+0x2c>
	int32_t encoderValue;

	errorFlag = 0;
    2d5e:	e1 2c       	mov	r14, r1
	for (i = 0; i < 3; i++) {
    2d60:	f1 2c       	mov	r15, r1
    2d62:	3c c0       	rjmp	.+120    	; 0x2ddc <put_FRAM_ENCODERS+0xb2>
		if (get_MOTOR_ENCODER(mtraddr[i], &encoderValue) == ERROR) {
    2d64:	0f 2d       	mov	r16, r15
    2d66:	10 e0       	ldi	r17, 0x00	; 0
    2d68:	e5 e0       	ldi	r30, 0x05	; 5
    2d6a:	f0 e0       	ldi	r31, 0x00	; 0
    2d6c:	ec 0f       	add	r30, r28
    2d6e:	fd 1f       	adc	r31, r29
    2d70:	e0 0f       	add	r30, r16
    2d72:	f1 1f       	adc	r31, r17
    2d74:	be 01       	movw	r22, r28
    2d76:	62 5f       	subi	r22, 0xF2	; 242
    2d78:	7f 4f       	sbci	r23, 0xFF	; 255
    2d7a:	80 81       	ld	r24, Z
    2d7c:	0e 94 46 15 	call	0x2a8c	; 0x2a8c <get_MOTOR_ENCODER>
    2d80:	83 36       	cpi	r24, 0x63	; 99
    2d82:	41 f4       	brne	.+16     	; 0x2d94 <put_FRAM_ENCODERS+0x6a>
			printError(ERR_MTR, "put_FRAM_ENCODERS: get_MOTOR_ENCODER error");
    2d84:	6e e2       	ldi	r22, 0x2E	; 46
    2d86:	71 e9       	ldi	r23, 0x91	; 145
    2d88:	86 e3       	ldi	r24, 0x36	; 54
    2d8a:	91 e0       	ldi	r25, 0x01	; 1
    2d8c:	0e 94 9b 06 	call	0xd36	; 0xd36 <printError>
			errorFlag = 1;
    2d90:	ee 24       	eor	r14, r14
    2d92:	e3 94       	inc	r14
		}
		tbuf[0] = (encoderValue >> 24) & 0xFF;
    2d94:	8e 85       	ldd	r24, Y+14	; 0x0e
    2d96:	9f 85       	ldd	r25, Y+15	; 0x0f
    2d98:	28 89       	ldd	r18, Y+16	; 0x10
    2d9a:	39 89       	ldd	r19, Y+17	; 0x11
    2d9c:	39 83       	std	Y+1, r19	; 0x01
		tbuf[1] = (encoderValue >> 16) & 0xFF;
    2d9e:	2a 83       	std	Y+2, r18	; 0x02
		tbuf[2] = (encoderValue >> 8) & 0xFF;
    2da0:	9b 83       	std	Y+3, r25	; 0x03
		tbuf[3] = encoderValue & 0xFF;
    2da2:	8c 83       	std	Y+4, r24	; 0x04
		if (write_FRAM(FRAMTWIADDR, memaddr[i], tbuf, 4) == ERROR) {
    2da4:	00 0f       	add	r16, r16
    2da6:	11 1f       	adc	r17, r17
    2da8:	e1 e0       	ldi	r30, 0x01	; 1
    2daa:	f0 e0       	ldi	r31, 0x00	; 0
    2dac:	ec 0f       	add	r30, r28
    2dae:	fd 1f       	adc	r31, r29
    2db0:	e0 0f       	add	r30, r16
    2db2:	f1 1f       	adc	r31, r17
    2db4:	67 81       	ldd	r22, Z+7	; 0x07
    2db6:	70 85       	ldd	r23, Z+8	; 0x08
    2db8:	24 e0       	ldi	r18, 0x04	; 4
    2dba:	ae 01       	movw	r20, r28
    2dbc:	4f 5f       	subi	r20, 0xFF	; 255
    2dbe:	5f 4f       	sbci	r21, 0xFF	; 255
    2dc0:	80 e5       	ldi	r24, 0x50	; 80
    2dc2:	0e 94 4f 07 	call	0xe9e	; 0xe9e <write_FRAM>
    2dc6:	83 36       	cpi	r24, 0x63	; 99
    2dc8:	41 f4       	brne	.+16     	; 0x2dda <put_FRAM_ENCODERS+0xb0>
			printError(ERR_FRAM, "put_FRAM_ENCODERS: write_FRAM error");
    2dca:	69 e5       	ldi	r22, 0x59	; 89
    2dcc:	71 e9       	ldi	r23, 0x91	; 145
    2dce:	83 e9       	ldi	r24, 0x93	; 147
    2dd0:	91 e0       	ldi	r25, 0x01	; 1
    2dd2:	0e 94 9b 06 	call	0xd36	; 0xd36 <printError>
			errorFlag = 1;
    2dd6:	ee 24       	eor	r14, r14
    2dd8:	e3 94       	inc	r14
	uint8_t i, tbuf[4], errorFlag, mtraddr[3] = {MOTOR_A, MOTOR_B, MOTOR_C};
	uint16_t memaddr[3] = {ENCA_FRAMADDR, ENCB_FRAMADDR, ENCC_FRAMADDR};
	int32_t encoderValue;

	errorFlag = 0;
	for (i = 0; i < 3; i++) {
    2dda:	f3 94       	inc	r15
    2ddc:	82 e0       	ldi	r24, 0x02	; 2
    2dde:	8f 15       	cp	r24, r15
    2de0:	08 f6       	brcc	.-126    	; 0x2d64 <put_FRAM_ENCODERS+0x3a>
		if (write_FRAM(FRAMTWIADDR, memaddr[i], tbuf, 4) == ERROR) {
			printError(ERR_FRAM, "put_FRAM_ENCODERS: write_FRAM error");
			errorFlag = 1;
		}
	}
	if (errorFlag) {
    2de2:	ee 20       	and	r14, r14
    2de4:	11 f0       	breq	.+4      	; 0x2dea <put_FRAM_ENCODERS+0xc0>
		return(ERROR);
    2de6:	83 e6       	ldi	r24, 0x63	; 99
    2de8:	01 c0       	rjmp	.+2      	; 0x2dec <put_FRAM_ENCODERS+0xc2>
	} else {
		return(NOERROR);
    2dea:	80 e0       	ldi	r24, 0x00	; 0
	}
}
    2dec:	61 96       	adiw	r28, 0x11	; 17
    2dee:	cd bf       	out	0x3d, r28	; 61
    2df0:	de bf       	out	0x3e, r29	; 62
    2df2:	df 91       	pop	r29
    2df4:	cf 91       	pop	r28
    2df6:	1f 91       	pop	r17
    2df8:	0f 91       	pop	r16
    2dfa:	ff 90       	pop	r15
    2dfc:	ef 90       	pop	r14
    2dfe:	08 95       	ret

00002e00 <put_MOTOR>:

uint8_t put_MOTOR(uint8_t mtraddr, uint8_t cmd, uint8_t* data, uint8_t nbytes)
{
    2e00:	8f 92       	push	r8
    2e02:	9f 92       	push	r9
    2e04:	bf 92       	push	r11
    2e06:	cf 92       	push	r12
    2e08:	df 92       	push	r13
    2e0a:	ef 92       	push	r14
    2e0c:	ff 92       	push	r15
    2e0e:	0f 93       	push	r16
    2e10:	1f 93       	push	r17
    2e12:	cf 93       	push	r28
    2e14:	df 93       	push	r29
    2e16:	cd b7       	in	r28, 0x3d	; 61
    2e18:	de b7       	in	r29, 0x3e	; 62
    2e1a:	b2 2e       	mov	r11, r18
	if (recv1_buf.data[0] != 0xFF) {	// Bad ack
		printError(ERR_MTR, "put_MOTOR: bad ACK");
		return(ERROR);
	}
	return(NOERROR);
}
    2e1c:	cd b6       	in	r12, 0x3d	; 61
    2e1e:	de b6       	in	r13, 0x3e	; 62
	}
}

uint8_t put_MOTOR(uint8_t mtraddr, uint8_t cmd, uint8_t* data, uint8_t nbytes)
{
	uint8_t i, tbuf[nbytes+4];
    2e20:	82 2e       	mov	r8, r18
    2e22:	91 2c       	mov	r9, r1
    2e24:	94 01       	movw	r18, r8
    2e26:	2c 5f       	subi	r18, 0xFC	; 252
    2e28:	3f 4f       	sbci	r19, 0xFF	; 255
    2e2a:	74 01       	movw	r14, r8
    2e2c:	93 e0       	ldi	r25, 0x03	; 3
    2e2e:	e9 0e       	add	r14, r25
    2e30:	f1 1c       	adc	r15, r1
    2e32:	ed b7       	in	r30, 0x3d	; 61
    2e34:	fe b7       	in	r31, 0x3e	; 62
    2e36:	e2 1b       	sub	r30, r18
    2e38:	f3 0b       	sbc	r31, r19
    2e3a:	ed bf       	out	0x3d, r30	; 61
    2e3c:	fe bf       	out	0x3e, r31	; 62
    2e3e:	0d b7       	in	r16, 0x3d	; 61
    2e40:	1e b7       	in	r17, 0x3e	; 62
    2e42:	0f 5f       	subi	r16, 0xFF	; 255
    2e44:	1f 4f       	sbci	r17, 0xFF	; 255
    2e46:	98 01       	movw	r18, r16
	uint16_t crc;

	recv1_buf.data[0] = 0x00;			// Set up receiving buffer
    2e48:	10 92 35 2a 	sts	0x2A35, r1	; 0x802a35 <recv1_buf>
	recv1_buf.nbytes = 1;
    2e4c:	91 e0       	ldi	r25, 0x01	; 1
    2e4e:	90 93 35 2b 	sts	0x2B35, r25	; 0x802b35 <recv1_buf+0x100>
	recv1_buf.nxfrd = 0;
    2e52:	10 92 37 2b 	sts	0x2B37, r1	; 0x802b37 <recv1_buf+0x102>
	recv1_buf.done = NO;
    2e56:	10 92 38 2b 	sts	0x2B38, r1	; 0x802b38 <recv1_buf+0x103>

	tbuf[0] = mtraddr;
    2e5a:	81 83       	std	Z+1, r24	; 0x01
	tbuf[1] = cmd;
    2e5c:	f8 01       	movw	r30, r16
    2e5e:	61 83       	std	Z+1, r22	; 0x01
	for (i = 0; i < nbytes; i++) {
    2e60:	a0 e0       	ldi	r26, 0x00	; 0
    2e62:	0e c0       	rjmp	.+28     	; 0x2e80 <put_MOTOR+0x80>
		tbuf[i+2] = data[i];
    2e64:	8a 2f       	mov	r24, r26
    2e66:	90 e0       	ldi	r25, 0x00	; 0
    2e68:	bc 01       	movw	r22, r24
    2e6a:	6e 5f       	subi	r22, 0xFE	; 254
    2e6c:	7f 4f       	sbci	r23, 0xFF	; 255
    2e6e:	fa 01       	movw	r30, r20
    2e70:	e8 0f       	add	r30, r24
    2e72:	f9 1f       	adc	r31, r25
    2e74:	80 81       	ld	r24, Z
    2e76:	f9 01       	movw	r30, r18
    2e78:	e6 0f       	add	r30, r22
    2e7a:	f7 1f       	adc	r31, r23
    2e7c:	80 83       	st	Z, r24
	recv1_buf.nxfrd = 0;
	recv1_buf.done = NO;

	tbuf[0] = mtraddr;
	tbuf[1] = cmd;
	for (i = 0; i < nbytes; i++) {
    2e7e:	af 5f       	subi	r26, 0xFF	; 255
    2e80:	ab 15       	cp	r26, r11
    2e82:	80 f3       	brcs	.-32     	; 0x2e64 <put_MOTOR+0x64>
		tbuf[i+2] = data[i];
	}
	crc = crc16(tbuf, nbytes+2);
    2e84:	f2 e0       	ldi	r31, 0x02	; 2
    2e86:	8f 0e       	add	r8, r31
    2e88:	91 1c       	adc	r9, r1
    2e8a:	b4 01       	movw	r22, r8
    2e8c:	c8 01       	movw	r24, r16
    2e8e:	0e 94 0c 14 	call	0x2818	; 0x2818 <crc16>
	tbuf[nbytes+2] = (crc >> 8) & 0xFF;
    2e92:	f8 01       	movw	r30, r16
    2e94:	e8 0d       	add	r30, r8
    2e96:	f9 1d       	adc	r31, r9
    2e98:	90 83       	st	Z, r25
	tbuf[nbytes+3] = crc & 0xFF;
    2e9a:	f8 01       	movw	r30, r16
    2e9c:	ee 0d       	add	r30, r14
    2e9e:	ff 1d       	adc	r31, r15
    2ea0:	80 83       	st	Z, r24

	send_USART(1, tbuf, nbytes+4);		// Send the command
    2ea2:	44 e0       	ldi	r20, 0x04	; 4
    2ea4:	4b 0d       	add	r20, r11
    2ea6:	b8 01       	movw	r22, r16
    2ea8:	81 e0       	ldi	r24, 0x01	; 1
    2eaa:	0e 94 66 1b 	call	0x36cc	; 0x36cc <send_USART>

	USART1_ticks = 0;
    2eae:	10 92 30 2a 	sts	0x2A30, r1	; 0x802a30 <USART1_ticks>
    2eb2:	10 92 31 2a 	sts	0x2A31, r1	; 0x802a31 <USART1_ticks+0x1>
	start_TCB0(1);						// Start 1 ms USART1_ticks timer
    2eb6:	81 e0       	ldi	r24, 0x01	; 1
    2eb8:	90 e0       	ldi	r25, 0x00	; 0
    2eba:	0e 94 c4 19 	call	0x3388	; 0x3388 <start_TCB0>
	for (;;) {
		if (recv1_buf.done == YES) {	// Reply received
    2ebe:	80 91 38 2b 	lds	r24, 0x2B38	; 0x802b38 <recv1_buf+0x103>
    2ec2:	81 30       	cpi	r24, 0x01	; 1
    2ec4:	41 f4       	brne	.+16     	; 0x2ed6 <put_MOTOR+0xd6>
			stop_TCB0();
    2ec6:	0e 94 da 19 	call	0x33b4	; 0x33b4 <stop_TCB0>
			stop_TCB0();
			printError(ERR_MTR, "put_MOTOR: serial timeout");
			return(ERROR);
		}
	}
	if (recv1_buf.data[0] != 0xFF) {	// Bad ack
    2eca:	80 91 35 2a 	lds	r24, 0x2A35	; 0x802a35 <recv1_buf>
    2ece:	8f 3f       	cpi	r24, 0xFF	; 255
    2ed0:	91 f4       	brne	.+36     	; 0x2ef6 <put_MOTOR+0xf6>
		printError(ERR_MTR, "put_MOTOR: bad ACK");
		return(ERROR);
	}
	return(NOERROR);
    2ed2:	80 e0       	ldi	r24, 0x00	; 0
    2ed4:	17 c0       	rjmp	.+46     	; 0x2f04 <put_MOTOR+0x104>
	for (;;) {
		if (recv1_buf.done == YES) {	// Reply received
			stop_TCB0();
			break;
		}
		if (USART1_ticks > 50) {
    2ed6:	80 91 30 2a 	lds	r24, 0x2A30	; 0x802a30 <USART1_ticks>
    2eda:	90 91 31 2a 	lds	r25, 0x2A31	; 0x802a31 <USART1_ticks+0x1>
    2ede:	c3 97       	sbiw	r24, 0x33	; 51
    2ee0:	70 f3       	brcs	.-36     	; 0x2ebe <put_MOTOR+0xbe>
			stop_TCB0();
    2ee2:	0e 94 da 19 	call	0x33b4	; 0x33b4 <stop_TCB0>
			printError(ERR_MTR, "put_MOTOR: serial timeout");
    2ee6:	6d e7       	ldi	r22, 0x7D	; 125
    2ee8:	71 e9       	ldi	r23, 0x91	; 145
    2eea:	86 e3       	ldi	r24, 0x36	; 54
    2eec:	91 e0       	ldi	r25, 0x01	; 1
    2eee:	0e 94 9b 06 	call	0xd36	; 0xd36 <printError>
			return(ERROR);
    2ef2:	83 e6       	ldi	r24, 0x63	; 99
    2ef4:	07 c0       	rjmp	.+14     	; 0x2f04 <put_MOTOR+0x104>
		}
	}
	if (recv1_buf.data[0] != 0xFF) {	// Bad ack
		printError(ERR_MTR, "put_MOTOR: bad ACK");
    2ef6:	67 e9       	ldi	r22, 0x97	; 151
    2ef8:	71 e9       	ldi	r23, 0x91	; 145
    2efa:	86 e3       	ldi	r24, 0x36	; 54
    2efc:	91 e0       	ldi	r25, 0x01	; 1
    2efe:	0e 94 9b 06 	call	0xd36	; 0xd36 <printError>
		return(ERROR);
    2f02:	83 e6       	ldi	r24, 0x63	; 99
	}
	return(NOERROR);
}
    2f04:	cd be       	out	0x3d, r12	; 61
    2f06:	de be       	out	0x3e, r13	; 62
    2f08:	df 91       	pop	r29
    2f0a:	cf 91       	pop	r28
    2f0c:	1f 91       	pop	r17
    2f0e:	0f 91       	pop	r16
    2f10:	ff 90       	pop	r15
    2f12:	ef 90       	pop	r14
    2f14:	df 90       	pop	r13
    2f16:	cf 90       	pop	r12
    2f18:	bf 90       	pop	r11
    2f1a:	9f 90       	pop	r9
    2f1c:	8f 90       	pop	r8
    2f1e:	08 95       	ret

00002f20 <move_MOTOR>:
	return(ERROR);

}

uint8_t move_MOTOR(uint8_t mtraddr, int32_t newPosition)
{
    2f20:	1f 93       	push	r17
    2f22:	cf 93       	push	r28
    2f24:	df 93       	push	r29
    2f26:	cd b7       	in	r28, 0x3d	; 61
    2f28:	de b7       	in	r29, 0x3e	; 62
    2f2a:	61 97       	sbiw	r28, 0x11	; 17
    2f2c:	cd bf       	out	0x3d, r28	; 61
    2f2e:	de bf       	out	0x3e, r29	; 62
	buffer = 0;						// Operation is buffered
	acceleration = ACCELERATION;	// See roboclaw.h
	deceleration = DECELERATION;
	speed = SPEED;

	data[0] = (acceleration >> 24) & 0XFF;
    2f30:	19 82       	std	Y+1, r1	; 0x01
	data[1] = (acceleration >> 16) & 0xFF;
    2f32:	1a 82       	std	Y+2, r1	; 0x02
	data[2] = (acceleration >> 8) & 0xFF;
    2f34:	90 e2       	ldi	r25, 0x20	; 32
    2f36:	9b 83       	std	Y+3, r25	; 0x03
	data[3] = (acceleration) & 0xFF;
    2f38:	1c 82       	std	Y+4, r1	; 0x04
	data[4] = (speed >> 24) & 0xFF;
    2f3a:	1d 82       	std	Y+5, r1	; 0x05
	data[5] = (speed >> 16) & 0xFF;
    2f3c:	1e 82       	std	Y+6, r1	; 0x06
	data[6] = (speed >> 8) & 0xFF;
    2f3e:	20 e4       	ldi	r18, 0x40	; 64
    2f40:	2f 83       	std	Y+7, r18	; 0x07
	data[7] = (speed) & 0xFF;
    2f42:	18 86       	std	Y+8, r1	; 0x08
	data[8] = (deceleration >> 24) & 0xFF;
    2f44:	19 86       	std	Y+9, r1	; 0x09
	data[9] = (deceleration >> 16) & 0xFF;
    2f46:	1a 86       	std	Y+10, r1	; 0x0a
	data[10] = (deceleration >> 8) & 0xFF;
    2f48:	9b 87       	std	Y+11, r25	; 0x0b
	data[11] = (deceleration) & 0xFF;
    2f4a:	1c 86       	std	Y+12, r1	; 0x0c
	data[12] = (newPosition >> 24) & 0xFF;
    2f4c:	7d 87       	std	Y+13, r23	; 0x0d
	data[13] = (newPosition >> 16) & 0xFF;
    2f4e:	6e 87       	std	Y+14, r22	; 0x0e
	data[14] = (newPosition >> 8) & 0xFF;
    2f50:	5f 87       	std	Y+15, r21	; 0x0f
	data[15] = (newPosition) & 0xFF;
    2f52:	48 8b       	std	Y+16, r20	; 0x10
	data[16] = buffer;
    2f54:	19 8a       	std	Y+17, r1	; 0x11

	if (put_MOTOR(mtraddr, DRIVETO, data, nbytes) == ERROR) {
    2f56:	21 e1       	ldi	r18, 0x11	; 17
    2f58:	ae 01       	movw	r20, r28
    2f5a:	4f 5f       	subi	r20, 0xFF	; 255
    2f5c:	5f 4f       	sbci	r21, 0xFF	; 255
    2f5e:	61 e4       	ldi	r22, 0x41	; 65
    2f60:	0e 94 00 17 	call	0x2e00	; 0x2e00 <put_MOTOR>
    2f64:	18 2f       	mov	r17, r24
    2f66:	83 36       	cpi	r24, 0x63	; 99
    2f68:	39 f4       	brne	.+14     	; 0x2f78 <move_MOTOR+0x58>
		printError(ERR_MTR, "move_MOTOR: put_MOTOR call error");
    2f6a:	6a ea       	ldi	r22, 0xAA	; 170
    2f6c:	71 e9       	ldi	r23, 0x91	; 145
    2f6e:	86 e3       	ldi	r24, 0x36	; 54
    2f70:	91 e0       	ldi	r25, 0x01	; 1
    2f72:	0e 94 9b 06 	call	0xd36	; 0xd36 <printError>
		return(ERROR);
    2f76:	01 c0       	rjmp	.+2      	; 0x2f7a <move_MOTOR+0x5a>
	}

	return(NOERROR);
    2f78:	10 e0       	ldi	r17, 0x00	; 0

}
    2f7a:	81 2f       	mov	r24, r17
    2f7c:	61 96       	adiw	r28, 0x11	; 17
    2f7e:	cd bf       	out	0x3d, r28	; 61
    2f80:	de bf       	out	0x3e, r29	; 62
    2f82:	df 91       	pop	r29
    2f84:	cf 91       	pop	r28
    2f86:	1f 91       	pop	r17
    2f88:	08 95       	ret

00002f8a <move_MOTOR_CMD>:
	Returns:
		ERROR if an unknown motor designator (not A, B, C, or a, b, c) is read
		NOERROR otherwise
------------------------------------------------------------------------------*/
uint8_t move_MOTOR_CMD(uint8_t cstack)
{
    2f8a:	cf 92       	push	r12
    2f8c:	df 92       	push	r13
    2f8e:	ef 92       	push	r14
    2f90:	ff 92       	push	r15
    2f92:	1f 93       	push	r17
    2f94:	cf 93       	push	r28
    2f96:	df 93       	push	r29
    2f98:	00 d0       	rcall	.+0      	; 0x2f9a <move_MOTOR_CMD+0x10>
    2f9a:	00 d0       	rcall	.+0      	; 0x2f9c <move_MOTOR_CMD+0x12>
    2f9c:	cd b7       	in	r28, 0x3d	; 61
    2f9e:	de b7       	in	r29, 0x3e	; 62

	uint8_t motor, controller, retval;
	int32_t newPosition, currentPosition;

	motor = pcmd[cstack].cobject;
    2fa0:	e8 2e       	mov	r14, r24
    2fa2:	f1 2c       	mov	r15, r1
    2fa4:	84 e3       	ldi	r24, 0x34	; 52
    2fa6:	8e 9d       	mul	r24, r14
    2fa8:	f0 01       	movw	r30, r0
    2faa:	8f 9d       	mul	r24, r15
    2fac:	f0 0d       	add	r31, r0
    2fae:	11 24       	eor	r1, r1
    2fb0:	ed 5f       	subi	r30, 0xFD	; 253
    2fb2:	f7 4d       	sbci	r31, 0xD7	; 215
    2fb4:	81 81       	ldd	r24, Z+1	; 0x01
	switch(motor) {
    2fb6:	81 34       	cpi	r24, 0x41	; 65
    2fb8:	00 f1       	brcs	.+64     	; 0x2ffa <move_MOTOR_CMD+0x70>
    2fba:	84 34       	cpi	r24, 0x44	; 68
    2fbc:	28 f0       	brcs	.+10     	; 0x2fc8 <move_MOTOR_CMD+0x3e>
    2fbe:	9f e9       	ldi	r25, 0x9F	; 159
    2fc0:	98 0f       	add	r25, r24
    2fc2:	93 30       	cpi	r25, 0x03	; 3
    2fc4:	40 f0       	brcs	.+16     	; 0x2fd6 <move_MOTOR_CMD+0x4c>
    2fc6:	19 c0       	rjmp	.+50     	; 0x2ffa <move_MOTOR_CMD+0x70>
		case 'A':
		case 'B':
		case 'C':
			controller = motor + 63;
    2fc8:	1f e3       	ldi	r17, 0x3F	; 63
    2fca:	18 0f       	add	r17, r24
			currentPosition = 0;
    2fcc:	19 82       	std	Y+1, r1	; 0x01
    2fce:	1a 82       	std	Y+2, r1	; 0x02
    2fd0:	1b 82       	std	Y+3, r1	; 0x03
    2fd2:	1c 82       	std	Y+4, r1	; 0x04
			break;
    2fd4:	1a c0       	rjmp	.+52     	; 0x300a <move_MOTOR_CMD+0x80>

		case 'a':
		case 'b':
		case 'c':
			controller = motor + 31;
    2fd6:	1f e1       	ldi	r17, 0x1F	; 31
    2fd8:	18 0f       	add	r17, r24
			retval = get_MOTOR_ENCODER(controller, &currentPosition);
    2fda:	be 01       	movw	r22, r28
    2fdc:	6f 5f       	subi	r22, 0xFF	; 255
    2fde:	7f 4f       	sbci	r23, 0xFF	; 255
    2fe0:	81 2f       	mov	r24, r17
    2fe2:	0e 94 46 15 	call	0x2a8c	; 0x2a8c <get_MOTOR_ENCODER>
			if (retval == ERROR) {
    2fe6:	83 36       	cpi	r24, 0x63	; 99
    2fe8:	81 f4       	brne	.+32     	; 0x300a <move_MOTOR_CMD+0x80>
				printError(ERR_MTR_ENC_VAL, "move_MOTOR_CMD: get_MOTOR_ENCODER error");
    2fea:	6b ec       	ldi	r22, 0xCB	; 203
    2fec:	71 e9       	ldi	r23, 0x91	; 145
    2fee:	85 e3       	ldi	r24, 0x35	; 53
    2ff0:	91 e0       	ldi	r25, 0x01	; 1
    2ff2:	0e 94 9b 06 	call	0xd36	; 0xd36 <printError>
				return(ERROR);
    2ff6:	13 e6       	ldi	r17, 0x63	; 99
    2ff8:	3d c0       	rjmp	.+122    	; 0x3074 <move_MOTOR_CMD+0xea>
			}
			break;

		default:
			printError(ERR_MTR, "move_MOTOR_CMD: unknown motor");
    2ffa:	63 ef       	ldi	r22, 0xF3	; 243
    2ffc:	71 e9       	ldi	r23, 0x91	; 145
    2ffe:	86 e3       	ldi	r24, 0x36	; 54
    3000:	91 e0       	ldi	r25, 0x01	; 1
    3002:	0e 94 9b 06 	call	0xd36	; 0xd36 <printError>
			return(ERROR);
    3006:	13 e6       	ldi	r17, 0x63	; 99
    3008:	35 c0       	rjmp	.+106    	; 0x3074 <move_MOTOR_CMD+0xea>
			break;	
	}

	if (pcmd[cstack].cvalue[0] == '\0') {	// Don't do anything on null distance
    300a:	84 e3       	ldi	r24, 0x34	; 52
    300c:	8e 9d       	mul	r24, r14
    300e:	f0 01       	movw	r30, r0
    3010:	8f 9d       	mul	r24, r15
    3012:	f0 0d       	add	r31, r0
    3014:	11 24       	eor	r1, r1
    3016:	ed 5f       	subi	r30, 0xFD	; 253
    3018:	f7 4d       	sbci	r31, 0xD7	; 215
    301a:	82 81       	ldd	r24, Z+2	; 0x02
    301c:	88 23       	and	r24, r24
    301e:	39 f1       	breq	.+78     	; 0x306e <move_MOTOR_CMD+0xe4>
		return(NOERROR);
	}

	newPosition = currentPosition + (atol(pcmd[cstack].cvalue) * ENC_COUNTS_PER_MICRON);
    3020:	24 e3       	ldi	r18, 0x34	; 52
    3022:	2e 9d       	mul	r18, r14
    3024:	c0 01       	movw	r24, r0
    3026:	2f 9d       	mul	r18, r15
    3028:	90 0d       	add	r25, r0
    302a:	11 24       	eor	r1, r1
    302c:	8b 5f       	subi	r24, 0xFB	; 251
    302e:	97 4d       	sbci	r25, 0xD7	; 215
    3030:	0e 94 c8 23 	call	0x4790	; 0x4790 <atol>
    3034:	9b 01       	movw	r18, r22
    3036:	ac 01       	movw	r20, r24
    3038:	ac e0       	ldi	r26, 0x0C	; 12
    303a:	b1 e0       	ldi	r27, 0x01	; 1
    303c:	0e 94 47 23 	call	0x468e	; 0x468e <__muluhisi3>
    3040:	c9 80       	ldd	r12, Y+1	; 0x01
    3042:	da 80       	ldd	r13, Y+2	; 0x02
    3044:	eb 80       	ldd	r14, Y+3	; 0x03
    3046:	fc 80       	ldd	r15, Y+4	; 0x04
    3048:	ab 01       	movw	r20, r22
    304a:	bc 01       	movw	r22, r24
    304c:	4c 0d       	add	r20, r12
    304e:	5d 1d       	adc	r21, r13
    3050:	6e 1d       	adc	r22, r14
    3052:	7f 1d       	adc	r23, r15

	if (move_MOTOR(controller, newPosition) == ERROR) {
    3054:	81 2f       	mov	r24, r17
    3056:	0e 94 90 17 	call	0x2f20	; 0x2f20 <move_MOTOR>
    305a:	18 2f       	mov	r17, r24
    305c:	83 36       	cpi	r24, 0x63	; 99
    305e:	49 f4       	brne	.+18     	; 0x3072 <move_MOTOR_CMD+0xe8>
		printError(ERR_MTR, "move_MOTOR_CMD: move_MOTOR call error");
    3060:	61 e1       	ldi	r22, 0x11	; 17
    3062:	72 e9       	ldi	r23, 0x92	; 146
    3064:	86 e3       	ldi	r24, 0x36	; 54
    3066:	91 e0       	ldi	r25, 0x01	; 1
    3068:	0e 94 9b 06 	call	0xd36	; 0xd36 <printError>
		return(ERROR);
    306c:	03 c0       	rjmp	.+6      	; 0x3074 <move_MOTOR_CMD+0xea>
			return(ERROR);
			break;	
	}

	if (pcmd[cstack].cvalue[0] == '\0') {	// Don't do anything on null distance
		return(NOERROR);
    306e:	10 e0       	ldi	r17, 0x00	; 0
    3070:	01 c0       	rjmp	.+2      	; 0x3074 <move_MOTOR_CMD+0xea>
	if (move_MOTOR(controller, newPosition) == ERROR) {
		printError(ERR_MTR, "move_MOTOR_CMD: move_MOTOR call error");
		return(ERROR);
	}

	return(ERROR);
    3072:	13 e6       	ldi	r17, 0x63	; 99

}
    3074:	81 2f       	mov	r24, r17
    3076:	24 96       	adiw	r28, 0x04	; 4
    3078:	cd bf       	out	0x3d, r28	; 61
    307a:	de bf       	out	0x3e, r29	; 62
    307c:	df 91       	pop	r29
    307e:	cf 91       	pop	r28
    3080:	1f 91       	pop	r17
    3082:	ff 90       	pop	r15
    3084:	ef 90       	pop	r14
    3086:	df 90       	pop	r13
    3088:	cf 90       	pop	r12
    308a:	08 95       	ret

0000308c <put_MOTOR_ENCODER>:
	}
	return(NOERROR);
}

uint8_t put_MOTOR_ENCODER(uint8_t mtraddr, int32_t encoderValue)
{
    308c:	cf 93       	push	r28
    308e:	df 93       	push	r29
    3090:	cd b7       	in	r28, 0x3d	; 61
    3092:	de b7       	in	r29, 0x3e	; 62
    3094:	28 97       	sbiw	r28, 0x08	; 8
    3096:	cd bf       	out	0x3d, r28	; 61
    3098:	de bf       	out	0x3e, r29	; 62
	uint8_t tbuf[8];
	uint16_t crc;

	recv1_buf.data[0] = 0x00;			// Set up receiving buffer
    309a:	10 92 35 2a 	sts	0x2A35, r1	; 0x802a35 <recv1_buf>
	recv1_buf.nbytes = 1;
    309e:	91 e0       	ldi	r25, 0x01	; 1
    30a0:	90 93 35 2b 	sts	0x2B35, r25	; 0x802b35 <recv1_buf+0x100>
	recv1_buf.nxfrd = 0;
    30a4:	10 92 37 2b 	sts	0x2B37, r1	; 0x802b37 <recv1_buf+0x102>
	recv1_buf.done = NO;
    30a8:	10 92 38 2b 	sts	0x2B38, r1	; 0x802b38 <recv1_buf+0x103>

	tbuf[0] = mtraddr;
    30ac:	89 83       	std	Y+1, r24	; 0x01
	tbuf[1] = PUTENCODER;
    30ae:	86 e1       	ldi	r24, 0x16	; 22
    30b0:	8a 83       	std	Y+2, r24	; 0x02
	tbuf[2] = (encoderValue >> 24) & 0xFF;
    30b2:	7b 83       	std	Y+3, r23	; 0x03
	tbuf[3] = (encoderValue >> 16) & 0xFF;
    30b4:	6c 83       	std	Y+4, r22	; 0x04
	tbuf[4] = (encoderValue >> 8) & 0xFF;
    30b6:	5d 83       	std	Y+5, r21	; 0x05
	tbuf[5] = encoderValue & 0xFF;
    30b8:	4e 83       	std	Y+6, r20	; 0x06
	crc = crc16(tbuf, 6);
    30ba:	66 e0       	ldi	r22, 0x06	; 6
    30bc:	70 e0       	ldi	r23, 0x00	; 0
    30be:	ce 01       	movw	r24, r28
    30c0:	01 96       	adiw	r24, 0x01	; 1
    30c2:	0e 94 0c 14 	call	0x2818	; 0x2818 <crc16>
	tbuf[6] = (crc >> 8) & 0xFF;
    30c6:	9f 83       	std	Y+7, r25	; 0x07
	tbuf[7] = crc & 0xFF;
    30c8:	88 87       	std	Y+8, r24	; 0x08
	
	send_USART(1, tbuf, 8);				// Send the command
    30ca:	48 e0       	ldi	r20, 0x08	; 8
    30cc:	be 01       	movw	r22, r28
    30ce:	6f 5f       	subi	r22, 0xFF	; 255
    30d0:	7f 4f       	sbci	r23, 0xFF	; 255
    30d2:	81 e0       	ldi	r24, 0x01	; 1
    30d4:	0e 94 66 1b 	call	0x36cc	; 0x36cc <send_USART>

	USART1_ticks = 0;
    30d8:	10 92 30 2a 	sts	0x2A30, r1	; 0x802a30 <USART1_ticks>
    30dc:	10 92 31 2a 	sts	0x2A31, r1	; 0x802a31 <USART1_ticks+0x1>
	start_TCB0(1);						// Start 1 ms ticks timer
    30e0:	81 e0       	ldi	r24, 0x01	; 1
    30e2:	90 e0       	ldi	r25, 0x00	; 0
    30e4:	0e 94 c4 19 	call	0x3388	; 0x3388 <start_TCB0>

	for (;;) {
		if (recv1_buf.done == YES) {	// Reply received
    30e8:	80 91 38 2b 	lds	r24, 0x2B38	; 0x802b38 <recv1_buf+0x103>
    30ec:	81 30       	cpi	r24, 0x01	; 1
    30ee:	41 f4       	brne	.+16     	; 0x3100 <put_MOTOR_ENCODER+0x74>
			stop_TCB0();
    30f0:	0e 94 da 19 	call	0x33b4	; 0x33b4 <stop_TCB0>
			printError(ERR_MTR, "put_MOTOR_ENCODER: serial timeout");
			return(ERROR);
		}
	}

	if (recv1_buf.data[0] != 0xFF) {	// Bad ack
    30f4:	80 91 35 2a 	lds	r24, 0x2A35	; 0x802a35 <recv1_buf>
    30f8:	8f 3f       	cpi	r24, 0xFF	; 255
    30fa:	91 f4       	brne	.+36     	; 0x3120 <put_MOTOR_ENCODER+0x94>
		printError(ERR_MTRTIMEOUT, "put_MOTOREncoder bad ack");
		return(ERROR);
	}

	return(NOERROR);
    30fc:	80 e0       	ldi	r24, 0x00	; 0
    30fe:	17 c0       	rjmp	.+46     	; 0x312e <put_MOTOR_ENCODER+0xa2>
	for (;;) {
		if (recv1_buf.done == YES) {	// Reply received
			stop_TCB0();
			break;
		}
		if (USART1_ticks > 50) {				// 4 ms barely works at 38400 baud
    3100:	80 91 30 2a 	lds	r24, 0x2A30	; 0x802a30 <USART1_ticks>
    3104:	90 91 31 2a 	lds	r25, 0x2A31	; 0x802a31 <USART1_ticks+0x1>
    3108:	c3 97       	sbiw	r24, 0x33	; 51
    310a:	70 f3       	brcs	.-36     	; 0x30e8 <put_MOTOR_ENCODER+0x5c>
			stop_TCB0();
    310c:	0e 94 da 19 	call	0x33b4	; 0x33b4 <stop_TCB0>
			printError(ERR_MTR, "put_MOTOR_ENCODER: serial timeout");
    3110:	67 e3       	ldi	r22, 0x37	; 55
    3112:	72 e9       	ldi	r23, 0x92	; 146
    3114:	86 e3       	ldi	r24, 0x36	; 54
    3116:	91 e0       	ldi	r25, 0x01	; 1
    3118:	0e 94 9b 06 	call	0xd36	; 0xd36 <printError>
			return(ERROR);
    311c:	83 e6       	ldi	r24, 0x63	; 99
    311e:	07 c0       	rjmp	.+14     	; 0x312e <put_MOTOR_ENCODER+0xa2>
		}
	}

	if (recv1_buf.data[0] != 0xFF) {	// Bad ack
		printError(ERR_MTRTIMEOUT, "put_MOTOREncoder bad ack");
    3120:	69 e5       	ldi	r22, 0x59	; 89
    3122:	72 e9       	ldi	r23, 0x92	; 146
    3124:	8f e2       	ldi	r24, 0x2F	; 47
    3126:	91 e0       	ldi	r25, 0x01	; 1
    3128:	0e 94 9b 06 	call	0xd36	; 0xd36 <printError>
		return(ERROR);
    312c:	83 e6       	ldi	r24, 0x63	; 99
	}

	return(NOERROR);

}
    312e:	28 96       	adiw	r28, 0x08	; 8
    3130:	cd bf       	out	0x3d, r28	; 61
    3132:	de bf       	out	0x3e, r29	; 62
    3134:	df 91       	pop	r29
    3136:	cf 91       	pop	r28
    3138:	08 95       	ret

0000313a <init_MOTORS>:
		NOERROR otherwise

ADD ERROR CHECKS?
------------------------------------------------------------------------------*/
uint8_t init_MOTORS(void)
{
    313a:	1f 93       	push	r17
    313c:	cf 93       	push	r28
    313e:	df 93       	push	r29
    3140:	00 d0       	rcall	.+0      	; 0x3142 <init_MOTORS+0x8>
    3142:	00 d0       	rcall	.+0      	; 0x3144 <init_MOTORS+0xa>
    3144:	cd b7       	in	r28, 0x3d	; 61
    3146:	de b7       	in	r29, 0x3e	; 62
    3148:	2a e6       	ldi	r18, 0x6A	; 106
    314a:	84 e0       	ldi	r24, 0x04	; 4
    314c:	91 e0       	ldi	r25, 0x01	; 1
    314e:	21 50       	subi	r18, 0x01	; 1
    3150:	80 40       	sbci	r24, 0x00	; 0
    3152:	90 40       	sbci	r25, 0x00	; 0
    3154:	e1 f7       	brne	.-8      	; 0x314e <init_MOTORS+0x14>
    3156:	00 c0       	rjmp	.+0      	; 0x3158 <init_MOTORS+0x1e>

	uint8_t controller;
	int32_t encoderValue;

	_delay_ms(100);	// 50 seems to work
	timerSAVEENCODER = 0;
    3158:	10 92 32 2a 	sts	0x2A32, r1	; 0x802a32 <timerSAVEENCODER>
	timeoutSAVEENCODER = SAVEENCODERFREQUENCY;
    315c:	8b e0       	ldi	r24, 0x0B	; 11
    315e:	80 93 2d 2a 	sts	0x2A2D, r24	; 0x802a2d <timeoutSAVEENCODER>
	for (controller = MOTOR_A; controller <= MOTOR_C; controller++) {
    3162:	10 e8       	ldi	r17, 0x80	; 128
    3164:	0e c0       	rjmp	.+28     	; 0x3182 <init_MOTORS+0x48>
		get_FRAM_MOTOR_ENCODER(controller, &encoderValue);
    3166:	be 01       	movw	r22, r28
    3168:	6f 5f       	subi	r22, 0xFF	; 255
    316a:	7f 4f       	sbci	r23, 0xFF	; 255
    316c:	81 2f       	mov	r24, r17
    316e:	0e 94 31 14 	call	0x2862	; 0x2862 <get_FRAM_MOTOR_ENCODER>
		put_MOTOR_ENCODER(controller, encoderValue);
    3172:	49 81       	ldd	r20, Y+1	; 0x01
    3174:	5a 81       	ldd	r21, Y+2	; 0x02
    3176:	6b 81       	ldd	r22, Y+3	; 0x03
    3178:	7c 81       	ldd	r23, Y+4	; 0x04
    317a:	81 2f       	mov	r24, r17
    317c:	0e 94 46 18 	call	0x308c	; 0x308c <put_MOTOR_ENCODER>
	int32_t encoderValue;

	_delay_ms(100);	// 50 seems to work
	timerSAVEENCODER = 0;
	timeoutSAVEENCODER = SAVEENCODERFREQUENCY;
	for (controller = MOTOR_A; controller <= MOTOR_C; controller++) {
    3180:	1f 5f       	subi	r17, 0xFF	; 255
    3182:	13 38       	cpi	r17, 0x83	; 131
    3184:	80 f3       	brcs	.-32     	; 0x3166 <init_MOTORS+0x2c>
		get_FRAM_MOTOR_ENCODER(controller, &encoderValue);
		put_MOTOR_ENCODER(controller, encoderValue);
	}
	return(NOERROR);
}
    3186:	80 e0       	ldi	r24, 0x00	; 0
    3188:	24 96       	adiw	r28, 0x04	; 4
    318a:	cd bf       	out	0x3d, r28	; 61
    318c:	de bf       	out	0x3e, r29	; 62
    318e:	df 91       	pop	r29
    3190:	cf 91       	pop	r28
    3192:	1f 91       	pop	r17
    3194:	08 95       	ret

00003196 <init_RTC>:
			between interrupts. ticksRTC = 30719 generates an interrupt
			every minute. ticksRTC = 511 generates an interrupt every
			second.
----------------------------------------------------------------------*/
void init_RTC(uint16_t ticksRTC)
{
    3196:	ac 01       	movw	r20, r24

	uint8_t temp;

	// Disable the external oscillator by clearing the enable bit 0
	temp = CLKCTRL.XOSC32KCTRLA;
    3198:	e0 e6       	ldi	r30, 0x60	; 96
    319a:	f0 e0       	ldi	r31, 0x00	; 0
    319c:	94 8d       	ldd	r25, Z+28	; 0x1c
	temp &= ~CLKCTRL_ENABLE_bm;		// set bit 0 of CLKCTRL.XOSC32KCTRLA to 0
    319e:	9e 7f       	andi	r25, 0xFE	; 254
	CPU_CCP = CCP_IOREG_gc;
    31a0:	88 ed       	ldi	r24, 0xD8	; 216
    31a2:	84 bf       	out	0x34, r24	; 52
	CLKCTRL.XOSC32KCTRLA = temp;
    31a4:	94 8f       	std	Z+28, r25	; 0x1c

	// Wait for status bit (bit 6) in MCLKSTATUS to go to 0 (XOSC32K not running)
	while (CLKCTRL.MCLKSTATUS & CLKCTRL_XOSC32KS_bm) {
    31a6:	01 c0       	rjmp	.+2      	; 0x31aa <init_RTC+0x14>
		asm("nop");
    31a8:	00 00       	nop
	temp &= ~CLKCTRL_ENABLE_bm;		// set bit 0 of CLKCTRL.XOSC32KCTRLA to 0
	CPU_CCP = CCP_IOREG_gc;
	CLKCTRL.XOSC32KCTRLA = temp;

	// Wait for status bit (bit 6) in MCLKSTATUS to go to 0 (XOSC32K not running)
	while (CLKCTRL.MCLKSTATUS & CLKCTRL_XOSC32KS_bm) {
    31aa:	90 91 63 00 	lds	r25, 0x0063	; 0x800063 <__TEXT_REGION_LENGTH__+0x7f4063>
    31ae:	96 fd       	sbrc	r25, 6
    31b0:	fb cf       	rjmp	.-10     	; 0x31a8 <init_RTC+0x12>
		asm("nop");
	}

	// Select the external crystal (as opposed to external clock)
	// by setting the SEL bit on XOSC32KCTRLA (bit 2) to 0
	temp = CLKCTRL.XOSC32KCTRLA;
    31b2:	e0 e6       	ldi	r30, 0x60	; 96
    31b4:	f0 e0       	ldi	r31, 0x00	; 0
    31b6:	94 8d       	ldd	r25, Z+28	; 0x1c
	temp &= ~CLKCTRL_SEL_bm;
    31b8:	9b 7f       	andi	r25, 0xFB	; 251
	CPU_CCP = CCP_IOREG_gc;
    31ba:	28 ed       	ldi	r18, 0xD8	; 216
    31bc:	24 bf       	out	0x34, r18	; 52
	CLKCTRL.XOSC32KCTRLA = temp;
    31be:	94 8f       	std	Z+28, r25	; 0x1c

	// Enable the external oscillator by setting the enable bit
	// (bit 0) in CLKCTRL.XOSC32KCTRLA to 1
	temp = CLKCTRL.XOSC32KCTRLA;
    31c0:	94 8d       	ldd	r25, Z+28	; 0x1c
	temp |= CLKCTRL_ENABLE_bm;
    31c2:	91 60       	ori	r25, 0x01	; 1
	CPU_CCP = CCP_IOREG_gc;
    31c4:	24 bf       	out	0x34, r18	; 52
	CLKCTRL.XOSC32KCTRLA = temp;
    31c6:	94 8f       	std	Z+28, r25	; 0x1c

	while (RTC.STATUS) {	// Wait for all registers to sync
    31c8:	01 c0       	rjmp	.+2      	; 0x31cc <init_RTC+0x36>
		asm("nop");
    31ca:	00 00       	nop
	temp = CLKCTRL.XOSC32KCTRLA;
	temp |= CLKCTRL_ENABLE_bm;
	CPU_CCP = CCP_IOREG_gc;
	CLKCTRL.XOSC32KCTRLA = temp;

	while (RTC.STATUS) {	// Wait for all registers to sync
    31cc:	90 91 41 01 	lds	r25, 0x0141	; 0x800141 <__TEXT_REGION_LENGTH__+0x7f4141>
    31d0:	91 11       	cpse	r25, r1
    31d2:	fb cf       	rjmp	.-10     	; 0x31ca <init_RTC+0x34>
		asm("nop");
	}

//	RTC.PER = 30719;	// Set 1 minute period for overflow interrupts 
//	RTC.PER = 511;		// Set 1 sec period for overflow interrupts
	RTC.PER = ticksRTC;
    31d4:	e0 e4       	ldi	r30, 0x40	; 64
    31d6:	f1 e0       	ldi	r31, 0x01	; 1
    31d8:	42 87       	std	Z+10, r20	; 0x0a
    31da:	53 87       	std	Z+11, r21	; 0x0b

	// Select the external crystal oscillator in RTC.CLKSEL register
	RTC.CLKSEL = RTC_CLKSEL_TOSC32K_gc;
    31dc:	82 e0       	ldi	r24, 0x02	; 2
    31de:	87 83       	std	Z+7, r24	; 0x07

	// Enable running in debug mode by setting bit 0 in RTC.CLKSEL to 1
	RTC.DBGCTRL |= RTC_DBGRUN_bm;
    31e0:	85 81       	ldd	r24, Z+5	; 0x05
    31e2:	81 60       	ori	r24, 0x01	; 1
    31e4:	85 83       	std	Z+5, r24	; 0x05

	// Enable running in standby mode by setting bit 7 in RTC.CTRLA to 1
	// & set the prescaler to DIV64 (512 Hz) and set the RTC enable bit
	RTC.CTRLA = RTC_PRESCALER_DIV64_gc | RTC_RUNSTDBY_bm | RTC_RTCEN_bm;
    31e6:	81 eb       	ldi	r24, 0xB1	; 177
    31e8:	80 83       	st	Z, r24

	RTC.INTCTRL |= RTC_OVF_bm;	// Enable interrupt on overflow
    31ea:	82 81       	ldd	r24, Z+2	; 0x02
    31ec:	81 60       	ori	r24, 0x01	; 1
    31ee:	82 83       	std	Z+2, r24	; 0x02
    31f0:	08 95       	ret

000031f2 <__vector_3>:
/*---------------------------------------------------------------------
Interrupt routine for RTC
	Every tick of the RTC executes here
----------------------------------------------------------------------*/
ISR(RTC_CNT_vect)
{
    31f2:	1f 92       	push	r1
    31f4:	0f 92       	push	r0
    31f6:	0f b6       	in	r0, 0x3f	; 63
    31f8:	0f 92       	push	r0
    31fa:	11 24       	eor	r1, r1
    31fc:	8f 93       	push	r24
    31fe:	9f 93       	push	r25

	RTC.INTFLAGS = RTC_OVF_bm;		// Clear interrupt flag
    3200:	81 e0       	ldi	r24, 0x01	; 1
    3202:	80 93 43 01 	sts	0x0143, r24	; 0x800143 <__TEXT_REGION_LENGTH__+0x7f4143>

	timerOLED++;					// Turn off the OLED display
    3206:	80 91 0c 2a 	lds	r24, 0x2A0C	; 0x802a0c <timerOLED>
    320a:	90 91 0d 2a 	lds	r25, 0x2A0D	; 0x802a0d <timerOLED+0x1>
    320e:	01 96       	adiw	r24, 0x01	; 1
    3210:	80 93 0c 2a 	sts	0x2A0C, r24	; 0x802a0c <timerOLED>
    3214:	90 93 0d 2a 	sts	0x2A0D, r25	; 0x802a0d <timerOLED+0x1>
	toggle_LED;						// Blink the light
    3218:	80 e2       	ldi	r24, 0x20	; 32
    321a:	80 93 a7 04 	sts	0x04A7, r24	; 0x8004a7 <__TEXT_REGION_LENGTH__+0x7f44a7>
	timerSAVEENCODER++;				// Save the motor encoder values
    321e:	80 91 32 2a 	lds	r24, 0x2A32	; 0x802a32 <timerSAVEENCODER>
    3222:	8f 5f       	subi	r24, 0xFF	; 255
    3224:	80 93 32 2a 	sts	0x2A32, r24	; 0x802a32 <timerSAVEENCODER>

}
    3228:	9f 91       	pop	r25
    322a:	8f 91       	pop	r24
    322c:	0f 90       	pop	r0
    322e:	0f be       	out	0x3f, r0	; 63
    3230:	0f 90       	pop	r0
    3232:	1f 90       	pop	r1
    3234:	18 95       	reti

00003236 <set>:
	Returns:
		ERROR if an invalid object was requested.
		NOERROR otherwise
------------------------------------------------------------------------------*/
uint8_t set(uint8_t cstack)
{
    3236:	cf 93       	push	r28
    3238:	df 93       	push	r29

	char object;

	object = pcmd[cstack].cobject;
    323a:	90 e0       	ldi	r25, 0x00	; 0
    323c:	24 e3       	ldi	r18, 0x34	; 52
    323e:	28 9f       	mul	r18, r24
    3240:	f0 01       	movw	r30, r0
    3242:	29 9f       	mul	r18, r25
    3244:	f0 0d       	add	r31, r0
    3246:	11 24       	eor	r1, r1
    3248:	ed 5f       	subi	r30, 0xFD	; 253
    324a:	f7 4d       	sbci	r31, 0xD7	; 215
    324c:	21 81       	ldd	r18, Z+1	; 0x01

	switch(object) {
    324e:	24 37       	cpi	r18, 0x74	; 116
    3250:	29 f5       	brne	.+74     	; 0x329c <set+0x66>
		case 't':
			if (strlen(pcmd[cstack].cvalue) != 19) {
    3252:	24 e3       	ldi	r18, 0x34	; 52
    3254:	28 9f       	mul	r18, r24
    3256:	e0 01       	movw	r28, r0
    3258:	29 9f       	mul	r18, r25
    325a:	d0 0d       	add	r29, r0
    325c:	11 24       	eor	r1, r1
    325e:	cb 5f       	subi	r28, 0xFB	; 251
    3260:	d7 4d       	sbci	r29, 0xD7	; 215
    3262:	fe 01       	movw	r30, r28
    3264:	01 90       	ld	r0, Z+
    3266:	00 20       	and	r0, r0
    3268:	e9 f7       	brne	.-6      	; 0x3264 <set+0x2e>
    326a:	31 97       	sbiw	r30, 0x01	; 1
    326c:	ec 1b       	sub	r30, r28
    326e:	fd 0b       	sbc	r31, r29
    3270:	73 97       	sbiw	r30, 0x13	; 19
    3272:	41 f0       	breq	.+16     	; 0x3284 <set+0x4e>
				printError(ERR_SETTIME, "set: bad time format");
    3274:	6e e9       	ldi	r22, 0x9E	; 158
    3276:	72 e9       	ldi	r23, 0x92	; 146
    3278:	8a e5       	ldi	r24, 0x5A	; 90
    327a:	92 e0       	ldi	r25, 0x02	; 2
    327c:	0e 94 9b 06 	call	0xd36	; 0xd36 <printError>
				return(ERROR);
    3280:	83 e6       	ldi	r24, 0x63	; 99
    3282:	13 c0       	rjmp	.+38     	; 0x32aa <set+0x74>
			}
			put_time(pcmd[cstack].cvalue);
    3284:	ce 01       	movw	r24, r28
    3286:	0e 94 2b 06 	call	0xc56	; 0xc56 <put_time>
			write_FRAM(FRAMTWIADDR, SETTIMEADDR, (uint8_t*) pcmd[cstack].cvalue, 20);
    328a:	24 e1       	ldi	r18, 0x14	; 20
    328c:	ae 01       	movw	r20, r28
    328e:	60 e0       	ldi	r22, 0x00	; 0
    3290:	70 e0       	ldi	r23, 0x00	; 0
    3292:	80 e5       	ldi	r24, 0x50	; 80
    3294:	0e 94 4f 07 	call	0xe9e	; 0xe9e <write_FRAM>

		default:
			printError(ERR_SET, "set what?");
			return(ERROR);
	}
	return(NOERROR);
    3298:	80 e0       	ldi	r24, 0x00	; 0
    329a:	07 c0       	rjmp	.+14     	; 0x32aa <set+0x74>
			put_time(pcmd[cstack].cvalue);
			write_FRAM(FRAMTWIADDR, SETTIMEADDR, (uint8_t*) pcmd[cstack].cvalue, 20);
			break;

		default:
			printError(ERR_SET, "set what?");
    329c:	63 eb       	ldi	r22, 0xB3	; 179
    329e:	72 e9       	ldi	r23, 0x92	; 146
    32a0:	89 e5       	ldi	r24, 0x59	; 89
    32a2:	92 e0       	ldi	r25, 0x02	; 2
    32a4:	0e 94 9b 06 	call	0xd36	; 0xd36 <printError>
			return(ERROR);
    32a8:	83 e6       	ldi	r24, 0x63	; 99
	}
	return(NOERROR);
}
    32aa:	df 91       	pop	r29
    32ac:	cf 91       	pop	r28
    32ae:	08 95       	ret

000032b0 <get_temperature>:
	point for the actual devices.

	The signal is 1.5E-3 mV/K with a 1500 kOhm dropping resistor.
------------------------------------------------------------------------------*/
float get_temperature(uint8_t sensor)
{
    32b0:	cf 93       	push	r28
    32b2:	df 93       	push	r29
    32b4:	00 d0       	rcall	.+0      	; 0x32b6 <get_temperature+0x6>
    32b6:	00 d0       	rcall	.+0      	; 0x32b8 <get_temperature+0x8>
    32b8:	cd b7       	in	r28, 0x3d	; 61
    32ba:	de b7       	in	r29, 0x3e	; 62

	float temperature;

	switch (sensor) {
    32bc:	83 30       	cpi	r24, 0x03	; 3
    32be:	18 f0       	brcs	.+6      	; 0x32c6 <get_temperature+0x16>
    32c0:	83 30       	cpi	r24, 0x03	; 3
    32c2:	39 f0       	breq	.+14     	; 0x32d2 <get_temperature+0x22>
    32c4:	0b c0       	rjmp	.+22     	; 0x32dc <get_temperature+0x2c>
		case 0:
		case 1:
		case 2:
			read_AD590(sensor, &temperature);
    32c6:	be 01       	movw	r22, r28
    32c8:	6f 5f       	subi	r22, 0xFF	; 255
    32ca:	7f 4f       	sbci	r23, 0xFF	; 255
    32cc:	0e 94 47 01 	call	0x28e	; 0x28e <read_AD590>
			break;
    32d0:	0d c0       	rjmp	.+26     	; 0x32ec <get_temperature+0x3c>
		case 3:
			read_MCP9808(&temperature);
    32d2:	ce 01       	movw	r24, r28
    32d4:	01 96       	adiw	r24, 0x01	; 1
    32d6:	0e 94 46 09 	call	0x128c	; 0x128c <read_MCP9808>
			break;
    32da:	08 c0       	rjmp	.+16     	; 0x32ec <get_temperature+0x3c>
		default:
			temperature = -666.0;
    32dc:	80 e0       	ldi	r24, 0x00	; 0
    32de:	90 e8       	ldi	r25, 0x80	; 128
    32e0:	a6 e2       	ldi	r26, 0x26	; 38
    32e2:	b4 ec       	ldi	r27, 0xC4	; 196
    32e4:	89 83       	std	Y+1, r24	; 0x01
    32e6:	9a 83       	std	Y+2, r25	; 0x02
    32e8:	ab 83       	std	Y+3, r26	; 0x03
    32ea:	bc 83       	std	Y+4, r27	; 0x04
			break;
	}

	return(temperature);
    32ec:	69 81       	ldd	r22, Y+1	; 0x01
    32ee:	7a 81       	ldd	r23, Y+2	; 0x02
    32f0:	8b 81       	ldd	r24, Y+3	; 0x03
    32f2:	9c 81       	ldd	r25, Y+4	; 0x04

}
    32f4:	24 96       	adiw	r28, 0x04	; 4
    32f6:	cd bf       	out	0x3d, r28	; 61
    32f8:	de bf       	out	0x3e, r29	; 62
    32fa:	df 91       	pop	r29
    32fc:	cf 91       	pop	r28
    32fe:	08 95       	ret

00003300 <testroutine>:

#include "commands.h"
#include "errors.h"

void testroutine(void)
{
    3300:	ef 92       	push	r14
    3302:	ff 92       	push	r15
    3304:	1f 93       	push	r17
    3306:	cf 93       	push	r28
    3308:	df 93       	push	r29
    330a:	cd b7       	in	r28, 0x3d	; 61
    330c:	de b7       	in	r29, 0x3e	; 62
    330e:	c2 55       	subi	r28, 0x52	; 82
    3310:	d1 09       	sbc	r29, r1
    3312:	cd bf       	out	0x3d, r28	; 61
    3314:	de bf       	out	0x3e, r29	; 62
	
	char strbuf[80];
	uint8_t i;
	uint16_t current;
	for (i = 0; i < 50; i++) {
    3316:	10 e0       	ldi	r17, 0x00	; 0
    3318:	2b c0       	rjmp	.+86     	; 0x3370 <testroutine+0x70>
		get_MOTOR_CURRENT(128, &current);
    331a:	be 01       	movw	r22, r28
    331c:	6f 5a       	subi	r22, 0xAF	; 175
    331e:	7f 4f       	sbci	r23, 0xFF	; 255
    3320:	80 e8       	ldi	r24, 0x80	; 128
    3322:	0e 94 28 16 	call	0x2c50	; 0x2c50 <get_MOTOR_CURRENT>
		sprintf(strbuf, "current = %dmA", current);
    3326:	63 96       	adiw	r28, 0x13	; 19
    3328:	8f ad       	ldd	r24, Y+63	; 0x3f
    332a:	63 97       	sbiw	r28, 0x13	; 19
    332c:	8f 93       	push	r24
    332e:	62 96       	adiw	r28, 0x12	; 18
    3330:	8f ad       	ldd	r24, Y+63	; 0x3f
    3332:	62 97       	sbiw	r28, 0x12	; 18
    3334:	8f 93       	push	r24
    3336:	8d eb       	ldi	r24, 0xBD	; 189
    3338:	92 e9       	ldi	r25, 0x92	; 146
    333a:	9f 93       	push	r25
    333c:	8f 93       	push	r24
    333e:	ce 01       	movw	r24, r28
    3340:	01 96       	adiw	r24, 0x01	; 1
    3342:	7c 01       	movw	r14, r24
    3344:	9f 93       	push	r25
    3346:	8f 93       	push	r24
    3348:	0e 94 40 25 	call	0x4a80	; 0x4a80 <sprintf>
		printLine(strbuf);
    334c:	c7 01       	movw	r24, r14
    334e:	0e 94 7f 03 	call	0x6fe	; 0x6fe <printLine>
    3352:	9a e6       	ldi	r25, 0x6A	; 106
    3354:	24 e0       	ldi	r18, 0x04	; 4
    3356:	81 e0       	ldi	r24, 0x01	; 1
    3358:	91 50       	subi	r25, 0x01	; 1
    335a:	20 40       	sbci	r18, 0x00	; 0
    335c:	80 40       	sbci	r24, 0x00	; 0
    335e:	e1 f7       	brne	.-8      	; 0x3358 <testroutine+0x58>
    3360:	00 c0       	rjmp	.+0      	; 0x3362 <testroutine+0x62>
{
	
	char strbuf[80];
	uint8_t i;
	uint16_t current;
	for (i = 0; i < 50; i++) {
    3362:	1f 5f       	subi	r17, 0xFF	; 255
    3364:	0f 90       	pop	r0
    3366:	0f 90       	pop	r0
    3368:	0f 90       	pop	r0
    336a:	0f 90       	pop	r0
    336c:	0f 90       	pop	r0
    336e:	0f 90       	pop	r0
    3370:	12 33       	cpi	r17, 0x32	; 50
    3372:	98 f2       	brcs	.-90     	; 0x331a <testroutine+0x1a>

	sprintf(strbuf, " maxPos=%ld", pid.maxPos);
	printLine(strbuf);
*/
	return;
    3374:	ce 5a       	subi	r28, 0xAE	; 174
    3376:	df 4f       	sbci	r29, 0xFF	; 255
    3378:	cd bf       	out	0x3d, r28	; 61
    337a:	de bf       	out	0x3e, r29	; 62
    337c:	df 91       	pop	r29
    337e:	cf 91       	pop	r28
    3380:	1f 91       	pop	r17
    3382:	ff 90       	pop	r15
    3384:	ef 90       	pop	r14
    3386:	08 95       	ret

00003388 <start_TCB0>:
	Output:
		None
------------------------------------------------------------------------------*/
void start_TCB0(uint16_t msPeriod)
{
ticks = 0;
    3388:	10 92 33 2a 	sts	0x2A33, r1	; 0x802a33 <ticks>
    338c:	10 92 34 2a 	sts	0x2A34, r1	; 0x802a34 <ticks+0x1>
	// Check for overflows; msPeriod=19ms is max for 3.33MHz
	TCB0.CCMP = msPeriod * (uint16_t) (F_CPU/1000UL);
    3390:	25 e0       	ldi	r18, 0x05	; 5
    3392:	3d e0       	ldi	r19, 0x0D	; 13
    3394:	ac 01       	movw	r20, r24
    3396:	42 9f       	mul	r20, r18
    3398:	c0 01       	movw	r24, r0
    339a:	43 9f       	mul	r20, r19
    339c:	90 0d       	add	r25, r0
    339e:	52 9f       	mul	r21, r18
    33a0:	90 0d       	add	r25, r0
    33a2:	11 24       	eor	r1, r1
    33a4:	e0 e8       	ldi	r30, 0x80	; 128
    33a6:	fa e0       	ldi	r31, 0x0A	; 10
    33a8:	84 87       	std	Z+12, r24	; 0x0c
    33aa:	95 87       	std	Z+13, r25	; 0x0d
	TCB0.INTCTRL = TCB_CAPT_bm;				// Interrupt at TOP
    33ac:	81 e0       	ldi	r24, 0x01	; 1
    33ae:	85 83       	std	Z+5, r24	; 0x05
	TCB0.CTRLA = TCB_ENABLE_bm;				// Start the clock
    33b0:	80 83       	st	Z, r24
    33b2:	08 95       	ret

000033b4 <stop_TCB0>:
	Turn off the TCB0 timer
------------------------------------------------------------------------------*/
void stop_TCB0(void)
{
	
	TCB0.CTRLA = 0;
    33b4:	10 92 80 0a 	sts	0x0A80, r1	; 0x800a80 <__TEXT_REGION_LENGTH__+0x7f4a80>
    33b8:	08 95       	ret

000033ba <__vector_12>:

}

ISR(TCB0_INT_vect)
{
    33ba:	1f 92       	push	r1
    33bc:	0f 92       	push	r0
    33be:	0f b6       	in	r0, 0x3f	; 63
    33c0:	0f 92       	push	r0
    33c2:	11 24       	eor	r1, r1
    33c4:	8f 93       	push	r24
    33c6:	9f 93       	push	r25

	TCB0_INTFLAGS = TCB_CAPT_bm;	// Clear interrupt flag
    33c8:	81 e0       	ldi	r24, 0x01	; 1
    33ca:	80 93 86 0a 	sts	0x0A86, r24	; 0x800a86 <__TEXT_REGION_LENGTH__+0x7f4a86>
	ticks++;
    33ce:	80 91 33 2a 	lds	r24, 0x2A33	; 0x802a33 <ticks>
    33d2:	90 91 34 2a 	lds	r25, 0x2A34	; 0x802a34 <ticks+0x1>
    33d6:	01 96       	adiw	r24, 0x01	; 1
    33d8:	80 93 33 2a 	sts	0x2A33, r24	; 0x802a33 <ticks>
    33dc:	90 93 34 2a 	sts	0x2A34, r25	; 0x802a34 <ticks+0x1>
	TWI_ticks++;
    33e0:	80 91 2e 2a 	lds	r24, 0x2A2E	; 0x802a2e <TWI_ticks>
    33e4:	90 91 2f 2a 	lds	r25, 0x2A2F	; 0x802a2f <TWI_ticks+0x1>
    33e8:	01 96       	adiw	r24, 0x01	; 1
    33ea:	80 93 2e 2a 	sts	0x2A2E, r24	; 0x802a2e <TWI_ticks>
    33ee:	90 93 2f 2a 	sts	0x2A2F, r25	; 0x802a2f <TWI_ticks+0x1>
	USART1_ticks++;
    33f2:	80 91 30 2a 	lds	r24, 0x2A30	; 0x802a30 <USART1_ticks>
    33f6:	90 91 31 2a 	lds	r25, 0x2A31	; 0x802a31 <USART1_ticks+0x1>
    33fa:	01 96       	adiw	r24, 0x01	; 1
    33fc:	80 93 30 2a 	sts	0x2A30, r24	; 0x802a30 <USART1_ticks>
    3400:	90 93 31 2a 	sts	0x2A31, r25	; 0x802a31 <USART1_ticks+0x1>

    3404:	9f 91       	pop	r25
    3406:	8f 91       	pop	r24
    3408:	0f 90       	pop	r0
    340a:	0f be       	out	0x3f, r0	; 63
    340c:	0f 90       	pop	r0
    340e:	1f 90       	pop	r1
    3410:	18 95       	reti

00003412 <init_TWI>:
	4.	Set bus state to IDLE by writing 0x01 to BUSSTATE in TWIn.MSTATUS.
------------------------------------------------------------------------------*/
void init_TWI(void)
{

	TWI0.MBAUD = TWIBAUD;
    3412:	e0 ea       	ldi	r30, 0xA0	; 160
    3414:	f8 e0       	ldi	r31, 0x08	; 8
    3416:	8b e0       	ldi	r24, 0x0B	; 11
    3418:	86 83       	std	Z+6, r24	; 0x06
	TWI0.MCTRLA |= TWI_ENABLE_bm;			// Enable TWI
    341a:	83 81       	ldd	r24, Z+3	; 0x03
    341c:	81 60       	ori	r24, 0x01	; 1
    341e:	83 83       	std	Z+3, r24	; 0x03
	TWI0.MSTATUS |= TWI_BUSSTATE_IDLE_gc;	// Set bus state to IDLE
    3420:	85 81       	ldd	r24, Z+5	; 0x05
    3422:	81 60       	ori	r24, 0x01	; 1
    3424:	85 83       	std	Z+5, r24	; 0x05
    3426:	08 95       	ret

00003428 <read_TWI>:
uint8_t read_TWI(void)
{

	uint8_t data;

	TWI_ticks = 0;
    3428:	10 92 2e 2a 	sts	0x2A2E, r1	; 0x802a2e <TWI_ticks>
    342c:	10 92 2f 2a 	sts	0x2A2F, r1	; 0x802a2f <TWI_ticks+0x1>
	start_TCB0(1);								// 1 ms ticks
    3430:	81 e0       	ldi	r24, 0x01	; 1
    3432:	90 e0       	ldi	r25, 0x00	; 0
    3434:	0e 94 c4 19 	call	0x3388	; 0x3388 <start_TCB0>
	while (!(TWI0.MSTATUS & TWI_RIF_bm)) {		// Wait xfer to complete
    3438:	11 c0       	rjmp	.+34     	; 0x345c <read_TWI+0x34>
		asm("nop");
    343a:	00 00       	nop
		if (TWI_ticks > 50) {					// Typically 0 ticks needed
    343c:	80 91 2e 2a 	lds	r24, 0x2A2E	; 0x802a2e <TWI_ticks>
    3440:	90 91 2f 2a 	lds	r25, 0x2A2F	; 0x802a2f <TWI_ticks+0x1>
    3444:	c3 97       	sbiw	r24, 0x33	; 51
    3446:	50 f0       	brcs	.+20     	; 0x345c <read_TWI+0x34>
			printError(ERR_TWI, "read_TWI timeout");
    3448:	6c ec       	ldi	r22, 0xCC	; 204
    344a:	72 e9       	ldi	r23, 0x92	; 146
    344c:	81 e9       	ldi	r24, 0x91	; 145
    344e:	91 e0       	ldi	r25, 0x01	; 1
    3450:	0e 94 9b 06 	call	0xd36	; 0xd36 <printError>
			stop_TCB0();
    3454:	0e 94 da 19 	call	0x33b4	; 0x33b4 <stop_TCB0>
			return(0xFF);
    3458:	8f ef       	ldi	r24, 0xFF	; 255
    345a:	08 95       	ret

	uint8_t data;

	TWI_ticks = 0;
	start_TCB0(1);								// 1 ms ticks
	while (!(TWI0.MSTATUS & TWI_RIF_bm)) {		// Wait xfer to complete
    345c:	80 91 a5 08 	lds	r24, 0x08A5	; 0x8008a5 <__TEXT_REGION_LENGTH__+0x7f48a5>
    3460:	88 23       	and	r24, r24
    3462:	5c f7       	brge	.-42     	; 0x343a <read_TWI+0x12>
			printError(ERR_TWI, "read_TWI timeout");
			stop_TCB0();
			return(0xFF);
		}
	}
	stop_TCB0();
    3464:	0e 94 da 19 	call	0x33b4	; 0x33b4 <stop_TCB0>

	TWI0.MCTRLB &= ~(1<<TWI_ACKACT_bp);			// Send ACK
    3468:	e0 ea       	ldi	r30, 0xA0	; 160
    346a:	f8 e0       	ldi	r31, 0x08	; 8
    346c:	84 81       	ldd	r24, Z+4	; 0x04
    346e:	8b 7f       	andi	r24, 0xFB	; 251
    3470:	84 83       	std	Z+4, r24	; 0x04
	data = TWI0.MDATA;							// Next read
    3472:	80 85       	ldd	r24, Z+8	; 0x08
	TWI0.MCTRLB |= TWI_MCMD_RECVTRANS_gc;		// Send ACK after read
    3474:	94 81       	ldd	r25, Z+4	; 0x04
    3476:	92 60       	ori	r25, 0x02	; 2
    3478:	94 83       	std	Z+4, r25	; 0x04

	return(data);

}
    347a:	08 95       	ret

0000347c <readlast_TWI>:
uint8_t readlast_TWI(void)
{

	uint8_t data;

	TWI_ticks = 0;
    347c:	10 92 2e 2a 	sts	0x2A2E, r1	; 0x802a2e <TWI_ticks>
    3480:	10 92 2f 2a 	sts	0x2A2F, r1	; 0x802a2f <TWI_ticks+0x1>
	start_TCB0(1);								// 1 ms ticks
    3484:	81 e0       	ldi	r24, 0x01	; 1
    3486:	90 e0       	ldi	r25, 0x00	; 0
    3488:	0e 94 c4 19 	call	0x3388	; 0x3388 <start_TCB0>
	while (!(TWI0.MSTATUS & TWI_RIF_bm)) {		// Wait for xfer to complete
    348c:	11 c0       	rjmp	.+34     	; 0x34b0 <readlast_TWI+0x34>
		asm("nop");
    348e:	00 00       	nop
		if (TWI_ticks > 50) {						// Typically 0 ticks needed
    3490:	80 91 2e 2a 	lds	r24, 0x2A2E	; 0x802a2e <TWI_ticks>
    3494:	90 91 2f 2a 	lds	r25, 0x2A2F	; 0x802a2f <TWI_ticks+0x1>
    3498:	c3 97       	sbiw	r24, 0x33	; 51
    349a:	50 f0       	brcs	.+20     	; 0x34b0 <readlast_TWI+0x34>
			printError(ERR_TWI, "readlast timeout");
    349c:	6d ed       	ldi	r22, 0xDD	; 221
    349e:	72 e9       	ldi	r23, 0x92	; 146
    34a0:	81 e9       	ldi	r24, 0x91	; 145
    34a2:	91 e0       	ldi	r25, 0x01	; 1
    34a4:	0e 94 9b 06 	call	0xd36	; 0xd36 <printError>
			stop_TCB0();
    34a8:	0e 94 da 19 	call	0x33b4	; 0x33b4 <stop_TCB0>
			return(0xFF);
    34ac:	8f ef       	ldi	r24, 0xFF	; 255
    34ae:	08 95       	ret

	uint8_t data;

	TWI_ticks = 0;
	start_TCB0(1);								// 1 ms ticks
	while (!(TWI0.MSTATUS & TWI_RIF_bm)) {		// Wait for xfer to complete
    34b0:	80 91 a5 08 	lds	r24, 0x08A5	; 0x8008a5 <__TEXT_REGION_LENGTH__+0x7f48a5>
    34b4:	88 23       	and	r24, r24
    34b6:	5c f7       	brge	.-42     	; 0x348e <readlast_TWI+0x12>
			printError(ERR_TWI, "readlast timeout");
			stop_TCB0();
			return(0xFF);
		}
	}
	stop_TCB0();
    34b8:	0e 94 da 19 	call	0x33b4	; 0x33b4 <stop_TCB0>

	TWI0.MCTRLB |= TWI_ACKACT_NACK_gc;
    34bc:	e0 ea       	ldi	r30, 0xA0	; 160
    34be:	f8 e0       	ldi	r31, 0x08	; 8
    34c0:	84 81       	ldd	r24, Z+4	; 0x04
    34c2:	84 60       	ori	r24, 0x04	; 4
    34c4:	84 83       	std	Z+4, r24	; 0x04
	data = TWI0.MDATA;
    34c6:	80 85       	ldd	r24, Z+8	; 0x08

	return(data);

}
    34c8:	08 95       	ret

000034ca <start_TWI>:
		of TWI0.MADDR, TWI0.MDATA, or the CMD bits in TWI-.MCTRLB.
------------------------------------------------------------------------------*/
uint8_t start_TWI(uint8_t addr, uint8_t rw)
{

	if (rw == TWIREAD) {
    34ca:	61 30       	cpi	r22, 0x01	; 1
    34cc:	39 f4       	brne	.+14     	; 0x34dc <start_TWI+0x12>
		TWI0.MADDR = ((addr << 1) | 0x01);
    34ce:	90 e0       	ldi	r25, 0x00	; 0
    34d0:	88 0f       	add	r24, r24
    34d2:	99 1f       	adc	r25, r25
    34d4:	81 60       	ori	r24, 0x01	; 1
    34d6:	80 93 a7 08 	sts	0x08A7, r24	; 0x8008a7 <__TEXT_REGION_LENGTH__+0x7f48a7>
    34da:	03 c0       	rjmp	.+6      	; 0x34e2 <start_TWI+0x18>
	} else {
		TWI0.MADDR = (addr << 1);
    34dc:	88 0f       	add	r24, r24
    34de:	80 93 a7 08 	sts	0x08A7, r24	; 0x8008a7 <__TEXT_REGION_LENGTH__+0x7f48a7>
	}

	TWI_ticks = 0;
    34e2:	10 92 2e 2a 	sts	0x2A2E, r1	; 0x802a2e <TWI_ticks>
    34e6:	10 92 2f 2a 	sts	0x2A2F, r1	; 0x802a2f <TWI_ticks+0x1>
	start_TCB0(1);								// 1 ms ticks
    34ea:	81 e0       	ldi	r24, 0x01	; 1
    34ec:	90 e0       	ldi	r25, 0x00	; 0
    34ee:	0e 94 c4 19 	call	0x3388	; 0x3388 <start_TCB0>
	while (!(TWI0.MSTATUS & (TWI_WIF_bm | TWI_RIF_bm))) {
    34f2:	11 c0       	rjmp	.+34     	; 0x3516 <start_TWI+0x4c>
		asm("nop");								// Wait for addr transmission
    34f4:	00 00       	nop
		if (TWI_ticks > 50) {
    34f6:	80 91 2e 2a 	lds	r24, 0x2A2E	; 0x802a2e <TWI_ticks>
    34fa:	90 91 2f 2a 	lds	r25, 0x2A2F	; 0x802a2f <TWI_ticks+0x1>
    34fe:	c3 97       	sbiw	r24, 0x33	; 51
    3500:	50 f0       	brcs	.+20     	; 0x3516 <start_TWI+0x4c>
			printError(ERR_TWI, "TWI start timeout");
    3502:	6e ee       	ldi	r22, 0xEE	; 238
    3504:	72 e9       	ldi	r23, 0x92	; 146
    3506:	81 e9       	ldi	r24, 0x91	; 145
    3508:	91 e0       	ldi	r25, 0x01	; 1
    350a:	0e 94 9b 06 	call	0xd36	; 0xd36 <printError>
			stop_TCB0();
    350e:	0e 94 da 19 	call	0x33b4	; 0x33b4 <stop_TCB0>
			return(ERROR);
    3512:	83 e6       	ldi	r24, 0x63	; 99
    3514:	08 95       	ret
		TWI0.MADDR = (addr << 1);
	}

	TWI_ticks = 0;
	start_TCB0(1);								// 1 ms ticks
	while (!(TWI0.MSTATUS & (TWI_WIF_bm | TWI_RIF_bm))) {
    3516:	80 91 a5 08 	lds	r24, 0x08A5	; 0x8008a5 <__TEXT_REGION_LENGTH__+0x7f48a5>
    351a:	80 7c       	andi	r24, 0xC0	; 192
    351c:	59 f3       	breq	.-42     	; 0x34f4 <start_TWI+0x2a>
			printError(ERR_TWI, "TWI start timeout");
			stop_TCB0();
			return(ERROR);
		}
	}
	stop_TCB0();
    351e:	0e 94 da 19 	call	0x33b4	; 0x33b4 <stop_TCB0>

	if ((TWI0.MSTATUS & TWI_BUSERR_bm)) {		// Bus error
    3522:	80 91 a5 08 	lds	r24, 0x08A5	; 0x8008a5 <__TEXT_REGION_LENGTH__+0x7f48a5>
    3526:	82 ff       	sbrs	r24, 2
    3528:	08 c0       	rjmp	.+16     	; 0x353a <start_TWI+0x70>
		printError(ERR_TWI, "TWI bus");
    352a:	60 e0       	ldi	r22, 0x00	; 0
    352c:	73 e9       	ldi	r23, 0x93	; 147
    352e:	81 e9       	ldi	r24, 0x91	; 145
    3530:	91 e0       	ldi	r25, 0x01	; 1
    3532:	0e 94 9b 06 	call	0xd36	; 0xd36 <printError>
		return(ERROR);
    3536:	83 e6       	ldi	r24, 0x63	; 99
    3538:	08 95       	ret
	} else if (TWI0.MSTATUS & TWI_ARBLOST_bm) {	// Arbitration lost
    353a:	80 91 a5 08 	lds	r24, 0x08A5	; 0x8008a5 <__TEXT_REGION_LENGTH__+0x7f48a5>
    353e:	83 ff       	sbrs	r24, 3
    3540:	08 c0       	rjmp	.+16     	; 0x3552 <start_TWI+0x88>
		printError(ERR_TWI, "TWI arbitration");
    3542:	68 e0       	ldi	r22, 0x08	; 8
    3544:	73 e9       	ldi	r23, 0x93	; 147
    3546:	81 e9       	ldi	r24, 0x91	; 145
    3548:	91 e0       	ldi	r25, 0x01	; 1
    354a:	0e 94 9b 06 	call	0xd36	; 0xd36 <printError>
		return(ERROR);
    354e:	83 e6       	ldi	r24, 0x63	; 99
    3550:	08 95       	ret
	} else if (TWI0.MSTATUS & TWI_RXACK_bm) {	// No device responded
    3552:	90 91 a5 08 	lds	r25, 0x08A5	; 0x8008a5 <__TEXT_REGION_LENGTH__+0x7f48a5>
    3556:	89 2f       	mov	r24, r25
    3558:	80 71       	andi	r24, 0x10	; 16
    355a:	94 ff       	sbrs	r25, 4
    355c:	07 c0       	rjmp	.+14     	; 0x356c <start_TWI+0xa2>
		printError(ERR_TWI, "TWI no device responded");
    355e:	68 e1       	ldi	r22, 0x18	; 24
    3560:	73 e9       	ldi	r23, 0x93	; 147
    3562:	81 e9       	ldi	r24, 0x91	; 145
    3564:	91 e0       	ldi	r25, 0x01	; 1
    3566:	0e 94 9b 06 	call	0xd36	; 0xd36 <printError>
		return(ERROR);
    356a:	83 e6       	ldi	r24, 0x63	; 99
	}

	return(NOERROR);

}
    356c:	08 95       	ret

0000356e <stop_TWI>:
	is a strobe action.
------------------------------------------------------------------------------*/
void stop_TWI(void)
{

	TWI0.MCTRLB = (TWI_ACKACT_bm | TWI_MCMD_STOP_gc);	// NACK and STOP
    356e:	87 e0       	ldi	r24, 0x07	; 7
    3570:	80 93 a4 08 	sts	0x08A4, r24	; 0x8008a4 <__TEXT_REGION_LENGTH__+0x7f48a4>
    3574:	08 95       	ret

00003576 <write_TWI>:
	is required to get out of the NOP loop at the top.

	Returns 0 on success.
------------------------------------------------------------------------------*/
uint8_t write_TWI(uint8_t data)
{
    3576:	cf 93       	push	r28
    3578:	c8 2f       	mov	r28, r24

	TWI_ticks = 0;
    357a:	10 92 2e 2a 	sts	0x2A2E, r1	; 0x802a2e <TWI_ticks>
    357e:	10 92 2f 2a 	sts	0x2A2F, r1	; 0x802a2f <TWI_ticks+0x1>
	start_TCB0(1);							// 1 ms ticks
    3582:	81 e0       	ldi	r24, 0x01	; 1
    3584:	90 e0       	ldi	r25, 0x00	; 0
    3586:	0e 94 c4 19 	call	0x3388	; 0x3388 <start_TCB0>
	while (!(TWI0.MSTATUS & TWI_WIF_bm)) {	// Wait for previous writes
    358a:	11 c0       	rjmp	.+34     	; 0x35ae <write_TWI+0x38>
		asm("nop");
    358c:	00 00       	nop
		if (TWI_ticks > 50) {
    358e:	80 91 2e 2a 	lds	r24, 0x2A2E	; 0x802a2e <TWI_ticks>
    3592:	90 91 2f 2a 	lds	r25, 0x2A2F	; 0x802a2f <TWI_ticks+0x1>
    3596:	c3 97       	sbiw	r24, 0x33	; 51
    3598:	50 f0       	brcs	.+20     	; 0x35ae <write_TWI+0x38>
			printError(ERR_TWI, "write_TWI error1");
    359a:	60 e3       	ldi	r22, 0x30	; 48
    359c:	73 e9       	ldi	r23, 0x93	; 147
    359e:	81 e9       	ldi	r24, 0x91	; 145
    35a0:	91 e0       	ldi	r25, 0x01	; 1
    35a2:	0e 94 9b 06 	call	0xd36	; 0xd36 <printError>
			stop_TCB0();
    35a6:	0e 94 da 19 	call	0x33b4	; 0x33b4 <stop_TCB0>
			return(ERROR);
    35aa:	83 e6       	ldi	r24, 0x63	; 99
    35ac:	35 c0       	rjmp	.+106    	; 0x3618 <write_TWI+0xa2>
uint8_t write_TWI(uint8_t data)
{

	TWI_ticks = 0;
	start_TCB0(1);							// 1 ms ticks
	while (!(TWI0.MSTATUS & TWI_WIF_bm)) {	// Wait for previous writes
    35ae:	80 91 a5 08 	lds	r24, 0x08A5	; 0x8008a5 <__TEXT_REGION_LENGTH__+0x7f48a5>
    35b2:	86 ff       	sbrs	r24, 6
    35b4:	eb cf       	rjmp	.-42     	; 0x358c <write_TWI+0x16>
			printError(ERR_TWI, "write_TWI error1");
			stop_TCB0();
			return(ERROR);
		}
	}
	stop_TCB0();
    35b6:	0e 94 da 19 	call	0x33b4	; 0x33b4 <stop_TCB0>

	TWI0.MDATA = data;
    35ba:	c0 93 a8 08 	sts	0x08A8, r28	; 0x8008a8 <__TEXT_REGION_LENGTH__+0x7f48a8>

	TWI_ticks = 0;
    35be:	10 92 2e 2a 	sts	0x2A2E, r1	; 0x802a2e <TWI_ticks>
    35c2:	10 92 2f 2a 	sts	0x2A2F, r1	; 0x802a2f <TWI_ticks+0x1>
	start_TCB0(1);
    35c6:	81 e0       	ldi	r24, 0x01	; 1
    35c8:	90 e0       	ldi	r25, 0x00	; 0
    35ca:	0e 94 c4 19 	call	0x3388	; 0x3388 <start_TCB0>
	while (!(TWI0.MSTATUS & TWI_WIF_bm)) {
    35ce:	11 c0       	rjmp	.+34     	; 0x35f2 <write_TWI+0x7c>
		asm("nop");
    35d0:	00 00       	nop
		if (TWI_ticks > 50) {
    35d2:	80 91 2e 2a 	lds	r24, 0x2A2E	; 0x802a2e <TWI_ticks>
    35d6:	90 91 2f 2a 	lds	r25, 0x2A2F	; 0x802a2f <TWI_ticks+0x1>
    35da:	c3 97       	sbiw	r24, 0x33	; 51
    35dc:	50 f0       	brcs	.+20     	; 0x35f2 <write_TWI+0x7c>
			printError(ERR_TWI, "write_TWI error2");
    35de:	61 e4       	ldi	r22, 0x41	; 65
    35e0:	73 e9       	ldi	r23, 0x93	; 147
    35e2:	81 e9       	ldi	r24, 0x91	; 145
    35e4:	91 e0       	ldi	r25, 0x01	; 1
    35e6:	0e 94 9b 06 	call	0xd36	; 0xd36 <printError>
			stop_TCB0();
    35ea:	0e 94 da 19 	call	0x33b4	; 0x33b4 <stop_TCB0>
			return(ERROR);
    35ee:	83 e6       	ldi	r24, 0x63	; 99
    35f0:	13 c0       	rjmp	.+38     	; 0x3618 <write_TWI+0xa2>

	TWI0.MDATA = data;

	TWI_ticks = 0;
	start_TCB0(1);
	while (!(TWI0.MSTATUS & TWI_WIF_bm)) {
    35f2:	80 91 a5 08 	lds	r24, 0x08A5	; 0x8008a5 <__TEXT_REGION_LENGTH__+0x7f48a5>
    35f6:	86 ff       	sbrs	r24, 6
    35f8:	eb cf       	rjmp	.-42     	; 0x35d0 <write_TWI+0x5a>
			printError(ERR_TWI, "write_TWI error2");
			stop_TCB0();
			return(ERROR);
		}
	}
	stop_TCB0();
    35fa:	0e 94 da 19 	call	0x33b4	; 0x33b4 <stop_TCB0>

	if (TWI0.MSTATUS & TWI_RXACK_bm) {		// If device did not ACK
    35fe:	90 91 a5 08 	lds	r25, 0x08A5	; 0x8008a5 <__TEXT_REGION_LENGTH__+0x7f48a5>
    3602:	89 2f       	mov	r24, r25
    3604:	80 71       	andi	r24, 0x10	; 16
    3606:	94 ff       	sbrs	r25, 4
    3608:	07 c0       	rjmp	.+14     	; 0x3618 <write_TWI+0xa2>
		printError(ERR_TWI, "ACK not received");
    360a:	62 e5       	ldi	r22, 0x52	; 82
    360c:	73 e9       	ldi	r23, 0x93	; 147
    360e:	81 e9       	ldi	r24, 0x91	; 145
    3610:	91 e0       	ldi	r25, 0x01	; 1
    3612:	0e 94 9b 06 	call	0xd36	; 0xd36 <printError>
		return(ERROR);
    3616:	83 e6       	ldi	r24, 0x63	; 99
	} else {
		return(NOERROR);
	}

}
    3618:	cf 91       	pop	r28
    361a:	08 95       	ret

0000361c <init_USART>:
------------------------------------------------------------------------------*/
void init_USART(void)
{

	// USART0 PA0 is TxD, PA1 is RxD, Default pin position
	PORTA.OUTSET = PIN0_bm;
    361c:	e0 e0       	ldi	r30, 0x00	; 0
    361e:	f4 e0       	ldi	r31, 0x04	; 4
    3620:	81 e0       	ldi	r24, 0x01	; 1
    3622:	85 83       	std	Z+5, r24	; 0x05
	PORTA.DIRSET = PIN0_bm;
    3624:	81 83       	std	Z+1, r24	; 0x01
//	USART0.BAUD = (uint16_t) USART_BAUD_RATE(9600);
	USART0.BAUD = (uint16_t) USART_BAUD_RATE(115200);
    3626:	e0 e0       	ldi	r30, 0x00	; 0
    3628:	f8 e0       	ldi	r31, 0x08	; 8
    362a:	24 e7       	ldi	r18, 0x74	; 116
    362c:	30 e0       	ldi	r19, 0x00	; 0
    362e:	20 87       	std	Z+8, r18	; 0x08
    3630:	31 87       	std	Z+9, r19	; 0x09
	USART0.CTRLA |= USART_RXCIE_bm;		// Enable receive complete interrupt
    3632:	95 81       	ldd	r25, Z+5	; 0x05
    3634:	90 68       	ori	r25, 0x80	; 128
    3636:	95 83       	std	Z+5, r25	; 0x05
	USART0.CTRLB |= USART_TXEN_bm;		// Enable USART transmitter
    3638:	96 81       	ldd	r25, Z+6	; 0x06
    363a:	90 64       	ori	r25, 0x40	; 64
    363c:	96 83       	std	Z+6, r25	; 0x06
	USART0.CTRLB |= USART_RXEN_bm;		// Enable USART receiver
    363e:	96 81       	ldd	r25, Z+6	; 0x06
    3640:	90 68       	ori	r25, 0x80	; 128
    3642:	96 83       	std	Z+6, r25	; 0x06
	send0_buf.head = 0;					// Set up send/receive buffers
    3644:	10 92 3b 2d 	sts	0x2D3B, r1	; 0x802d3b <send0_buf+0xfe>
	send0_buf.tail = 0;
    3648:	10 92 3c 2d 	sts	0x2D3C, r1	; 0x802d3c <send0_buf+0xff>
	send0_buf.done = YES;
    364c:	80 93 40 2d 	sts	0x2D40, r24	; 0x802d40 <send0_buf+0x103>
	recv0_buf.head = 0;
    3650:	10 92 37 2c 	sts	0x2C37, r1	; 0x802c37 <recv0_buf+0xfe>
	recv0_buf.tail = 0;
    3654:	10 92 38 2c 	sts	0x2C38, r1	; 0x802c38 <recv0_buf+0xff>
	recv0_buf.data[0] = '\0';
    3658:	10 92 39 2b 	sts	0x2B39, r1	; 0x802b39 <recv0_buf>
	recv0_buf.length = 0;
    365c:	10 92 3a 2c 	sts	0x2C3A, r1	; 0x802c3a <recv0_buf+0x101>
	recv0_buf.done = NO;
    3660:	10 92 3c 2c 	sts	0x2C3C, r1	; 0x802c3c <recv0_buf+0x103>

	// USART1 PC0 is TxD, PC1 is RxD
	PORTC.OUTSET = PIN0_bm;
    3664:	e0 e4       	ldi	r30, 0x40	; 64
    3666:	f4 e0       	ldi	r31, 0x04	; 4
    3668:	85 83       	std	Z+5, r24	; 0x05
	PORTC.DIRSET = PIN0_bm;
    366a:	81 83       	std	Z+1, r24	; 0x01
//	USART1.BAUD = (uint16_t) USART_BAUD_RATE(38400);
	USART1.BAUD = (uint16_t) USART_BAUD_RATE(9600);
    366c:	e0 e2       	ldi	r30, 0x20	; 32
    366e:	f8 e0       	ldi	r31, 0x08	; 8
    3670:	2d e6       	ldi	r18, 0x6D	; 109
    3672:	35 e0       	ldi	r19, 0x05	; 5
    3674:	20 87       	std	Z+8, r18	; 0x08
    3676:	31 87       	std	Z+9, r19	; 0x09
	USART1.CTRLA |= USART_RXCIE_bm;		// Enable receive complete interrupt
    3678:	95 81       	ldd	r25, Z+5	; 0x05
    367a:	90 68       	ori	r25, 0x80	; 128
    367c:	95 83       	std	Z+5, r25	; 0x05
	USART1.CTRLB |= USART_TXEN_bm;		// Enable USART transmitter
    367e:	96 81       	ldd	r25, Z+6	; 0x06
    3680:	90 64       	ori	r25, 0x40	; 64
    3682:	96 83       	std	Z+6, r25	; 0x06
	USART1.CTRLB |= USART_RXEN_bm;		// Enable USART receiver
    3684:	96 81       	ldd	r25, Z+6	; 0x06
    3686:	90 68       	ori	r25, 0x80	; 128
    3688:	96 83       	std	Z+6, r25	; 0x06
	send1_buf.head = 0;
    368a:	10 92 47 30 	sts	0x3047, r1	; 0x803047 <send1_buf+0xfe>
	send1_buf.tail = 0;
    368e:	10 92 48 30 	sts	0x3048, r1	; 0x803048 <send1_buf+0xff>
	send1_buf.done = YES;
    3692:	80 93 4c 30 	sts	0x304C, r24	; 0x80304c <send1_buf+0x103>
	recv1_buf.head = 0;
    3696:	10 92 33 2b 	sts	0x2B33, r1	; 0x802b33 <recv1_buf+0xfe>
	recv1_buf.tail = 0;
    369a:	10 92 34 2b 	sts	0x2B34, r1	; 0x802b34 <recv1_buf+0xff>
	recv1_buf.data[0] = '\0';
    369e:	10 92 35 2a 	sts	0x2A35, r1	; 0x802a35 <recv1_buf>
	recv1_buf.done = NO;
    36a2:	10 92 38 2b 	sts	0x2B38, r1	; 0x802b38 <recv1_buf+0x103>

	// USART3 PB0 is TxD, PB1 is RxD
	PORTB.OUTSET = PIN0_bm;
    36a6:	e0 e2       	ldi	r30, 0x20	; 32
    36a8:	f4 e0       	ldi	r31, 0x04	; 4
    36aa:	85 83       	std	Z+5, r24	; 0x05
	PORTB.DIRSET = PIN0_bm;
    36ac:	81 83       	std	Z+1, r24	; 0x01
	USART3.BAUD = (uint16_t) USART_BAUD_RATE(9600);
    36ae:	e0 e6       	ldi	r30, 0x60	; 96
    36b0:	f8 e0       	ldi	r31, 0x08	; 8
    36b2:	20 87       	std	Z+8, r18	; 0x08
    36b4:	31 87       	std	Z+9, r19	; 0x09
	USART3.CTRLB |= USART_TXEN_bm;
    36b6:	96 81       	ldd	r25, Z+6	; 0x06
    36b8:	90 64       	ori	r25, 0x40	; 64
    36ba:	96 83       	std	Z+6, r25	; 0x06
	USART3.CTRLB |= USART_RXEN_bm;
    36bc:	96 81       	ldd	r25, Z+6	; 0x06
    36be:	90 68       	ori	r25, 0x80	; 128
    36c0:	96 83       	std	Z+6, r25	; 0x06
	send3_buf.done = YES;
    36c2:	80 93 48 2f 	sts	0x2F48, r24	; 0x802f48 <send3_buf+0x103>
	recv3_buf.done = NO;
    36c6:	10 92 44 2e 	sts	0x2E44, r1	; 0x802e44 <recv3_buf+0x103>
    36ca:	08 95       	ret

000036cc <send_USART>:
		"transmit data register empty" interrupt (DREIE). The USARTn_DRE_vect
		puts the bytes into the transmit register until the tail catches up
		to the head of the circular buffer.
------------------------------------------------------------------------------*/
void send_USART(uint8_t port, uint8_t *data, uint8_t nbytes)
{
    36cc:	0f 93       	push	r16
    36ce:	1f 93       	push	r17
    36d0:	cf 93       	push	r28
    36d2:	df 93       	push	r29
    36d4:	eb 01       	movw	r28, r22
    36d6:	14 2f       	mov	r17, r20

	uint8_t i;
	uint16_t crc;

	switch (port) {
    36d8:	81 30       	cpi	r24, 0x01	; 1
    36da:	d1 f1       	breq	.+116    	; 0x3750 <send_USART+0x84>
    36dc:	20 f0       	brcs	.+8      	; 0x36e6 <send_USART+0x1a>
    36de:	83 30       	cpi	r24, 0x03	; 3
    36e0:	09 f4       	brne	.+2      	; 0x36e4 <send_USART+0x18>
    36e2:	85 c0       	rjmp	.+266    	; 0x37ee <send_USART+0x122>
    36e4:	8c c0       	rjmp	.+280    	; 0x37fe <send_USART+0x132>
		case 0:
			send0_buf.done = NO;
    36e6:	10 92 40 2d 	sts	0x2D40, r1	; 0x802d40 <send0_buf+0x103>
			for (i = 0; i < nbytes; i++) {
    36ea:	20 e0       	ldi	r18, 0x00	; 0
    36ec:	11 c0       	rjmp	.+34     	; 0x3710 <send_USART+0x44>
				send0_buf.data[send0_buf.head] = *data++;
    36ee:	eb e3       	ldi	r30, 0x3B	; 59
    36f0:	fd e2       	ldi	r31, 0x2D	; 45
    36f2:	80 81       	ld	r24, Z
    36f4:	90 e0       	ldi	r25, 0x00	; 0
    36f6:	38 81       	ld	r19, Y
    36f8:	dc 01       	movw	r26, r24
    36fa:	a3 5c       	subi	r26, 0xC3	; 195
    36fc:	b3 4d       	sbci	r27, 0xD3	; 211
    36fe:	3c 93       	st	X, r19
				send0_buf.head = (send0_buf.head + 1) % BUFSIZE;
    3700:	01 96       	adiw	r24, 0x01	; 1
    3702:	6e ef       	ldi	r22, 0xFE	; 254
    3704:	70 e0       	ldi	r23, 0x00	; 0
    3706:	0e 94 0e 23 	call	0x461c	; 0x461c <__divmodhi4>
    370a:	80 83       	st	Z, r24
	uint16_t crc;

	switch (port) {
		case 0:
			send0_buf.done = NO;
			for (i = 0; i < nbytes; i++) {
    370c:	2f 5f       	subi	r18, 0xFF	; 255
				send0_buf.data[send0_buf.head] = *data++;
    370e:	21 96       	adiw	r28, 0x01	; 1
	uint16_t crc;

	switch (port) {
		case 0:
			send0_buf.done = NO;
			for (i = 0; i < nbytes; i++) {
    3710:	21 17       	cp	r18, r17
    3712:	68 f3       	brcs	.-38     	; 0x36ee <send_USART+0x22>
				send0_buf.data[send0_buf.head] = *data++;
				send0_buf.head = (send0_buf.head + 1) % BUFSIZE;
			}
			USART0.CTRLA |= USART_DREIE_bm;		// Enable interrupts
    3714:	e0 e0       	ldi	r30, 0x00	; 0
    3716:	f8 e0       	ldi	r31, 0x08	; 8
    3718:	85 81       	ldd	r24, Z+5	; 0x05
    371a:	80 62       	ori	r24, 0x20	; 32
    371c:	85 83       	std	Z+5, r24	; 0x05
			start_TCB0(10);						// 10 ms ticks
    371e:	8a e0       	ldi	r24, 0x0A	; 10
    3720:	90 e0       	ldi	r25, 0x00	; 0
    3722:	0e 94 c4 19 	call	0x3388	; 0x3388 <start_TCB0>
			while (send0_buf.done == NO) {
    3726:	0d c0       	rjmp	.+26     	; 0x3742 <send_USART+0x76>
				if (ticks > 100) {				// 1 second enough?
    3728:	80 91 33 2a 	lds	r24, 0x2A33	; 0x802a33 <ticks>
    372c:	90 91 34 2a 	lds	r25, 0x2A34	; 0x802a34 <ticks+0x1>
    3730:	85 36       	cpi	r24, 0x65	; 101
    3732:	91 05       	cpc	r25, r1
    3734:	30 f0       	brcs	.+12     	; 0x3742 <send_USART+0x76>
					stop_TCB0();
    3736:	0e 94 da 19 	call	0x33b4	; 0x33b4 <stop_TCB0>
					send0_buf.done = YES;
    373a:	81 e0       	ldi	r24, 0x01	; 1
    373c:	80 93 40 2d 	sts	0x2D40, r24	; 0x802d40 <send0_buf+0x103>
					return;
    3740:	5e c0       	rjmp	.+188    	; 0x37fe <send_USART+0x132>
				send0_buf.data[send0_buf.head] = *data++;
				send0_buf.head = (send0_buf.head + 1) % BUFSIZE;
			}
			USART0.CTRLA |= USART_DREIE_bm;		// Enable interrupts
			start_TCB0(10);						// 10 ms ticks
			while (send0_buf.done == NO) {
    3742:	80 91 40 2d 	lds	r24, 0x2D40	; 0x802d40 <send0_buf+0x103>
    3746:	88 23       	and	r24, r24
    3748:	79 f3       	breq	.-34     	; 0x3728 <send_USART+0x5c>
					stop_TCB0();
					send0_buf.done = YES;
					return;
				}
			}
			stop_TCB0();
    374a:	0e 94 da 19 	call	0x33b4	; 0x33b4 <stop_TCB0>
			break;
    374e:	57 c0       	rjmp	.+174    	; 0x37fe <send_USART+0x132>

		case 1:			// Timeouts are handled in caller routines
			crc = crc16(data, nbytes);
    3750:	64 2f       	mov	r22, r20
    3752:	70 e0       	ldi	r23, 0x00	; 0
    3754:	ce 01       	movw	r24, r28
    3756:	0e 94 0c 14 	call	0x2818	; 0x2818 <crc16>
    375a:	48 2f       	mov	r20, r24
    375c:	09 2f       	mov	r16, r25
			for (i = 0; i < nbytes; i++) {
    375e:	20 e0       	ldi	r18, 0x00	; 0
    3760:	11 c0       	rjmp	.+34     	; 0x3784 <send_USART+0xb8>
				send1_buf.data[send1_buf.head] = *data++;
    3762:	e7 e4       	ldi	r30, 0x47	; 71
    3764:	f0 e3       	ldi	r31, 0x30	; 48
    3766:	80 81       	ld	r24, Z
    3768:	90 e0       	ldi	r25, 0x00	; 0
    376a:	38 81       	ld	r19, Y
    376c:	dc 01       	movw	r26, r24
    376e:	a7 5b       	subi	r26, 0xB7	; 183
    3770:	b0 4d       	sbci	r27, 0xD0	; 208
    3772:	3c 93       	st	X, r19
				send1_buf.head = (send1_buf.head + 1) % BUFSIZE;
    3774:	01 96       	adiw	r24, 0x01	; 1
    3776:	6e ef       	ldi	r22, 0xFE	; 254
    3778:	70 e0       	ldi	r23, 0x00	; 0
    377a:	0e 94 0e 23 	call	0x461c	; 0x461c <__divmodhi4>
    377e:	80 83       	st	Z, r24
			stop_TCB0();
			break;

		case 1:			// Timeouts are handled in caller routines
			crc = crc16(data, nbytes);
			for (i = 0; i < nbytes; i++) {
    3780:	2f 5f       	subi	r18, 0xFF	; 255
				send1_buf.data[send1_buf.head] = *data++;
    3782:	21 96       	adiw	r28, 0x01	; 1
			stop_TCB0();
			break;

		case 1:			// Timeouts are handled in caller routines
			crc = crc16(data, nbytes);
			for (i = 0; i < nbytes; i++) {
    3784:	21 17       	cp	r18, r17
    3786:	68 f3       	brcs	.-38     	; 0x3762 <send_USART+0x96>
				send1_buf.data[send1_buf.head] = *data++;
				send1_buf.head = (send1_buf.head + 1) % BUFSIZE;
			}
			send1_buf.data[send1_buf.head] = (crc >> 8);
    3788:	e7 e4       	ldi	r30, 0x47	; 71
    378a:	f0 e3       	ldi	r31, 0x30	; 48
    378c:	80 81       	ld	r24, Z
    378e:	90 e0       	ldi	r25, 0x00	; 0
    3790:	dc 01       	movw	r26, r24
    3792:	a7 5b       	subi	r26, 0xB7	; 183
    3794:	b0 4d       	sbci	r27, 0xD0	; 208
    3796:	0c 93       	st	X, r16
			send1_buf.head = (send1_buf.head + 1) % BUFSIZE;
    3798:	01 96       	adiw	r24, 0x01	; 1
    379a:	2e ef       	ldi	r18, 0xFE	; 254
    379c:	30 e0       	ldi	r19, 0x00	; 0
    379e:	b9 01       	movw	r22, r18
    37a0:	0e 94 0e 23 	call	0x461c	; 0x461c <__divmodhi4>
			send1_buf.data[send1_buf.head] = (crc & 0xFF);
    37a4:	90 e0       	ldi	r25, 0x00	; 0
    37a6:	dc 01       	movw	r26, r24
    37a8:	a7 5b       	subi	r26, 0xB7	; 183
    37aa:	b0 4d       	sbci	r27, 0xD0	; 208
    37ac:	4c 93       	st	X, r20
			send1_buf.head = (send1_buf.head + 1) % BUFSIZE;
    37ae:	01 96       	adiw	r24, 0x01	; 1
    37b0:	b9 01       	movw	r22, r18
    37b2:	0e 94 0e 23 	call	0x461c	; 0x461c <__divmodhi4>
    37b6:	80 83       	st	Z, r24
			send1_buf.nbytes = nbytes + 2;
    37b8:	1e 5f       	subi	r17, 0xFE	; 254
    37ba:	10 93 49 30 	sts	0x3049, r17	; 0x803049 <send1_buf+0x100>
//			send1_buf.nxfrd = 0;
			USART1.CTRLA |= USART_DREIE_bm;		// Enable interrupts
    37be:	e0 e2       	ldi	r30, 0x20	; 32
    37c0:	f8 e0       	ldi	r31, 0x08	; 8
    37c2:	85 81       	ldd	r24, Z+5	; 0x05
    37c4:	80 62       	ori	r24, 0x20	; 32
    37c6:	85 83       	std	Z+5, r24	; 0x05
			break;
    37c8:	1a c0       	rjmp	.+52     	; 0x37fe <send_USART+0x132>

		case 3:
			for (i = 0; i < nbytes; i++) {
				send3_buf.data[send3_buf.head] = *data++;
    37ca:	e3 e4       	ldi	r30, 0x43	; 67
    37cc:	ff e2       	ldi	r31, 0x2F	; 47
    37ce:	80 81       	ld	r24, Z
    37d0:	90 e0       	ldi	r25, 0x00	; 0
    37d2:	38 81       	ld	r19, Y
    37d4:	dc 01       	movw	r26, r24
    37d6:	ab 5b       	subi	r26, 0xBB	; 187
    37d8:	b1 4d       	sbci	r27, 0xD1	; 209
    37da:	3c 93       	st	X, r19
				send3_buf.head = (send3_buf.head + 1) % BUFSIZE;
    37dc:	01 96       	adiw	r24, 0x01	; 1
    37de:	6e ef       	ldi	r22, 0xFE	; 254
    37e0:	70 e0       	ldi	r23, 0x00	; 0
    37e2:	0e 94 0e 23 	call	0x461c	; 0x461c <__divmodhi4>
    37e6:	80 83       	st	Z, r24
//			send1_buf.nxfrd = 0;
			USART1.CTRLA |= USART_DREIE_bm;		// Enable interrupts
			break;

		case 3:
			for (i = 0; i < nbytes; i++) {
    37e8:	2f 5f       	subi	r18, 0xFF	; 255
				send3_buf.data[send3_buf.head] = *data++;
    37ea:	21 96       	adiw	r28, 0x01	; 1
    37ec:	01 c0       	rjmp	.+2      	; 0x37f0 <send_USART+0x124>
{

	uint8_t i;
	uint16_t crc;

	switch (port) {
    37ee:	20 e0       	ldi	r18, 0x00	; 0
//			send1_buf.nxfrd = 0;
			USART1.CTRLA |= USART_DREIE_bm;		// Enable interrupts
			break;

		case 3:
			for (i = 0; i < nbytes; i++) {
    37f0:	21 17       	cp	r18, r17
    37f2:	58 f3       	brcs	.-42     	; 0x37ca <send_USART+0xfe>
				send3_buf.data[send3_buf.head] = *data++;
				send3_buf.head = (send3_buf.head + 1) % BUFSIZE;
			}
			USART3.CTRLA |= USART_DREIE_bm;		// Enable interrupts
    37f4:	e0 e6       	ldi	r30, 0x60	; 96
    37f6:	f8 e0       	ldi	r31, 0x08	; 8
    37f8:	85 81       	ldd	r24, Z+5	; 0x05
    37fa:	80 62       	ori	r24, 0x20	; 32
    37fc:	85 83       	std	Z+5, r24	; 0x05

		default:
			break;
	}

}
    37fe:	df 91       	pop	r29
    3800:	cf 91       	pop	r28
    3802:	1f 91       	pop	r17
    3804:	0f 91       	pop	r16
    3806:	08 95       	ret

00003808 <__vector_17>:
	If the character received is a <CR> ('\r'), a string terminator ('\0') is
	inserted into the buffer instead of the '\r'. The done flag is set and the
	nxfrd value set back to 0.
------------------------------------------------------------------------------*/
ISR(USART0_RXC_vect)
{
    3808:	1f 92       	push	r1
    380a:	0f 92       	push	r0
    380c:	0f b6       	in	r0, 0x3f	; 63
    380e:	0f 92       	push	r0
    3810:	11 24       	eor	r1, r1
    3812:	5f 93       	push	r21
    3814:	6f 93       	push	r22
    3816:	7f 93       	push	r23
    3818:	8f 93       	push	r24
    381a:	9f 93       	push	r25
    381c:	af 93       	push	r26
    381e:	bf 93       	push	r27
    3820:	ef 93       	push	r30
    3822:	ff 93       	push	r31

	uint8_t c;

	c = USART0.RXDATAL;
    3824:	90 91 00 08 	lds	r25, 0x0800	; 0x800800 <__TEXT_REGION_LENGTH__+0x7f4800>
	if (recv0_buf.length < (BUFSIZE-1)) {		// BUFSIZE-1 to make room for the terminating \0
    3828:	80 91 3a 2c 	lds	r24, 0x2C3A	; 0x802c3a <recv0_buf+0x101>
    382c:	8d 3f       	cpi	r24, 0xFD	; 253
    382e:	10 f5       	brcc	.+68     	; 0x3874 <__vector_17+0x6c>
//		c = USART0.RXDATAL;
		if ((char) c == '\r') {
    3830:	9d 30       	cpi	r25, 0x0D	; 13
    3832:	51 f4       	brne	.+20     	; 0x3848 <__vector_17+0x40>
			recv0_buf.done = YES;
    3834:	81 e0       	ldi	r24, 0x01	; 1
    3836:	80 93 3c 2c 	sts	0x2C3C, r24	; 0x802c3c <recv0_buf+0x103>
			recv0_buf.data[recv0_buf.head] = '\0';
    383a:	e0 91 37 2c 	lds	r30, 0x2C37	; 0x802c37 <recv0_buf+0xfe>
    383e:	f0 e0       	ldi	r31, 0x00	; 0
    3840:	e7 5c       	subi	r30, 0xC7	; 199
    3842:	f4 4d       	sbci	r31, 0xD4	; 212
    3844:	10 82       	st	Z, r1
    3846:	06 c0       	rjmp	.+12     	; 0x3854 <__vector_17+0x4c>
		} else {
			recv0_buf.data[recv0_buf.head] = c;
    3848:	e0 91 37 2c 	lds	r30, 0x2C37	; 0x802c37 <recv0_buf+0xfe>
    384c:	f0 e0       	ldi	r31, 0x00	; 0
    384e:	e7 5c       	subi	r30, 0xC7	; 199
    3850:	f4 4d       	sbci	r31, 0xD4	; 212
    3852:	90 83       	st	Z, r25
		}
		recv0_buf.length++;
    3854:	ea e3       	ldi	r30, 0x3A	; 58
    3856:	fc e2       	ldi	r31, 0x2C	; 44
    3858:	80 81       	ld	r24, Z
    385a:	8f 5f       	subi	r24, 0xFF	; 255
    385c:	80 83       	st	Z, r24
		recv0_buf.head = (recv0_buf.head + 1) % BUFSIZE;
    385e:	e7 e3       	ldi	r30, 0x37	; 55
    3860:	fc e2       	ldi	r31, 0x2C	; 44
    3862:	80 81       	ld	r24, Z
    3864:	90 e0       	ldi	r25, 0x00	; 0
    3866:	01 96       	adiw	r24, 0x01	; 1
    3868:	6e ef       	ldi	r22, 0xFE	; 254
    386a:	70 e0       	ldi	r23, 0x00	; 0
    386c:	0e 94 0e 23 	call	0x461c	; 0x461c <__divmodhi4>
    3870:	80 83       	st	Z, r24
    3872:	0a c0       	rjmp	.+20     	; 0x3888 <__vector_17+0x80>
	} else {
		recv0_buf.head = 0;
    3874:	10 92 37 2c 	sts	0x2C37, r1	; 0x802c37 <recv0_buf+0xfe>
		recv0_buf.tail = 0;
    3878:	10 92 38 2c 	sts	0x2C38, r1	; 0x802c38 <recv0_buf+0xff>
		recv0_buf.data[0] = '\0';
    387c:	10 92 39 2b 	sts	0x2B39, r1	; 0x802b39 <recv0_buf>
		recv0_buf.length = 0;
    3880:	10 92 3a 2c 	sts	0x2C3A, r1	; 0x802c3a <recv0_buf+0x101>
		recv0_buf.done = NO;
    3884:	10 92 3c 2c 	sts	0x2C3C, r1	; 0x802c3c <recv0_buf+0x103>
	}
}
    3888:	ff 91       	pop	r31
    388a:	ef 91       	pop	r30
    388c:	bf 91       	pop	r27
    388e:	af 91       	pop	r26
    3890:	9f 91       	pop	r25
    3892:	8f 91       	pop	r24
    3894:	7f 91       	pop	r23
    3896:	6f 91       	pop	r22
    3898:	5f 91       	pop	r21
    389a:	0f 90       	pop	r0
    389c:	0f be       	out	0x3f, r0	; 63
    389e:	0f 90       	pop	r0
    38a0:	1f 90       	pop	r1
    38a2:	18 95       	reti

000038a4 <__vector_18>:
	off this interrupt.

	Sending is started by calling send_USART(port).
------------------------------------------------------------------------------*/
ISR(USART0_DRE_vect)
{
    38a4:	1f 92       	push	r1
    38a6:	0f 92       	push	r0
    38a8:	0f b6       	in	r0, 0x3f	; 63
    38aa:	0f 92       	push	r0
    38ac:	11 24       	eor	r1, r1
    38ae:	2f 93       	push	r18
    38b0:	8f 93       	push	r24
    38b2:	9f 93       	push	r25
    38b4:	ef 93       	push	r30
    38b6:	ff 93       	push	r31

	USART0.CTRLA &= ~USART_DREIE_bm;	// Turn off interrupts
    38b8:	e0 e0       	ldi	r30, 0x00	; 0
    38ba:	f8 e0       	ldi	r31, 0x08	; 8
    38bc:	85 81       	ldd	r24, Z+5	; 0x05
    38be:	8f 7d       	andi	r24, 0xDF	; 223
    38c0:	85 83       	std	Z+5, r24	; 0x05
	if (send0_buf.head - send0_buf.tail) {
    38c2:	80 91 3b 2d 	lds	r24, 0x2D3B	; 0x802d3b <send0_buf+0xfe>
    38c6:	e0 91 3c 2d 	lds	r30, 0x2D3C	; 0x802d3c <send0_buf+0xff>
    38ca:	8e 17       	cp	r24, r30
    38cc:	d1 f0       	breq	.+52     	; 0x3902 <__vector_18+0x5e>
		USART0.TXDATAL = send0_buf.data[send0_buf.tail++];
    38ce:	81 e0       	ldi	r24, 0x01	; 1
    38d0:	8e 0f       	add	r24, r30
    38d2:	80 93 3c 2d 	sts	0x2D3C, r24	; 0x802d3c <send0_buf+0xff>
    38d6:	f0 e0       	ldi	r31, 0x00	; 0
    38d8:	e3 5c       	subi	r30, 0xC3	; 195
    38da:	f3 4d       	sbci	r31, 0xD3	; 211
    38dc:	90 81       	ld	r25, Z
    38de:	90 93 02 08 	sts	0x0802, r25	; 0x800802 <__TEXT_REGION_LENGTH__+0x7f4802>
		send0_buf.tail %= BUFSIZE;
    38e2:	91 e0       	ldi	r25, 0x01	; 1
    38e4:	8e 3f       	cpi	r24, 0xFE	; 254
    38e6:	08 f4       	brcc	.+2      	; 0x38ea <__vector_18+0x46>
    38e8:	90 e0       	ldi	r25, 0x00	; 0
    38ea:	91 95       	neg	r25
    38ec:	29 2f       	mov	r18, r25
    38ee:	22 0f       	add	r18, r18
    38f0:	82 1b       	sub	r24, r18
    38f2:	80 93 3c 2d 	sts	0x2D3C, r24	; 0x802d3c <send0_buf+0xff>
		USART0.CTRLA |= USART_DREIE_bm;		// Turn on interrupts
    38f6:	e0 e0       	ldi	r30, 0x00	; 0
    38f8:	f8 e0       	ldi	r31, 0x08	; 8
    38fa:	85 81       	ldd	r24, Z+5	; 0x05
    38fc:	80 62       	ori	r24, 0x20	; 32
    38fe:	85 83       	std	Z+5, r24	; 0x05
    3900:	03 c0       	rjmp	.+6      	; 0x3908 <__vector_18+0x64>
	} else {
		send0_buf.done = YES;
    3902:	81 e0       	ldi	r24, 0x01	; 1
    3904:	80 93 40 2d 	sts	0x2D40, r24	; 0x802d40 <send0_buf+0x103>
	}

}
    3908:	ff 91       	pop	r31
    390a:	ef 91       	pop	r30
    390c:	9f 91       	pop	r25
    390e:	8f 91       	pop	r24
    3910:	2f 91       	pop	r18
    3912:	0f 90       	pop	r0
    3914:	0f be       	out	0x3f, r0	; 63
    3916:	0f 90       	pop	r0
    3918:	1f 90       	pop	r1
    391a:	18 95       	reti

0000391c <__vector_26>:
/*------------------------------------------------------------------------------
ISR(USART1_RXC_vect)
	A byte at USART1 has been received.
------------------------------------------------------------------------------*/
ISR(USART1_RXC_vect)
{
    391c:	1f 92       	push	r1
    391e:	0f 92       	push	r0
    3920:	0f b6       	in	r0, 0x3f	; 63
    3922:	0f 92       	push	r0
    3924:	11 24       	eor	r1, r1
    3926:	2f 93       	push	r18
    3928:	8f 93       	push	r24
    392a:	9f 93       	push	r25
    392c:	ef 93       	push	r30
    392e:	ff 93       	push	r31

	uint8_t c;

	c = USART1.RXDATAL;
    3930:	90 91 20 08 	lds	r25, 0x0820	; 0x800820 <__TEXT_REGION_LENGTH__+0x7f4820>

	if (recv1_buf.nxfrd < recv1_buf.nbytes) {
    3934:	e0 91 37 2b 	lds	r30, 0x2B37	; 0x802b37 <recv1_buf+0x102>
    3938:	80 91 35 2b 	lds	r24, 0x2B35	; 0x802b35 <recv1_buf+0x100>
    393c:	e8 17       	cp	r30, r24
    393e:	40 f4       	brcc	.+16     	; 0x3950 <__vector_26+0x34>
		recv1_buf.data[recv1_buf.nxfrd++] = c;
    3940:	21 e0       	ldi	r18, 0x01	; 1
    3942:	2e 0f       	add	r18, r30
    3944:	20 93 37 2b 	sts	0x2B37, r18	; 0x802b37 <recv1_buf+0x102>
    3948:	f0 e0       	ldi	r31, 0x00	; 0
    394a:	eb 5c       	subi	r30, 0xCB	; 203
    394c:	f5 4d       	sbci	r31, 0xD5	; 213
    394e:	90 83       	st	Z, r25
	}

	if (recv1_buf.nxfrd >= recv1_buf.nbytes) {
    3950:	90 91 37 2b 	lds	r25, 0x2B37	; 0x802b37 <recv1_buf+0x102>
    3954:	98 17       	cp	r25, r24
    3956:	18 f0       	brcs	.+6      	; 0x395e <__vector_26+0x42>
		recv1_buf.done = YES;
    3958:	81 e0       	ldi	r24, 0x01	; 1
    395a:	80 93 38 2b 	sts	0x2B38, r24	; 0x802b38 <recv1_buf+0x103>
	}

}
    395e:	ff 91       	pop	r31
    3960:	ef 91       	pop	r30
    3962:	9f 91       	pop	r25
    3964:	8f 91       	pop	r24
    3966:	2f 91       	pop	r18
    3968:	0f 90       	pop	r0
    396a:	0f be       	out	0x3f, r0	; 63
    396c:	0f 90       	pop	r0
    396e:	1f 90       	pop	r1
    3970:	18 95       	reti

00003972 <__vector_27>:
	off this interrupt.

	Sending is started by calling send_USART(port).
------------------------------------------------------------------------------*/
ISR(USART1_DRE_vect)
{
    3972:	1f 92       	push	r1
    3974:	0f 92       	push	r0
    3976:	0f b6       	in	r0, 0x3f	; 63
    3978:	0f 92       	push	r0
    397a:	11 24       	eor	r1, r1
    397c:	2f 93       	push	r18
    397e:	8f 93       	push	r24
    3980:	9f 93       	push	r25
    3982:	ef 93       	push	r30
    3984:	ff 93       	push	r31

	USART1.CTRLA &= ~USART_DREIE_bm;	// Turn off interrupts
    3986:	e0 e2       	ldi	r30, 0x20	; 32
    3988:	f8 e0       	ldi	r31, 0x08	; 8
    398a:	85 81       	ldd	r24, Z+5	; 0x05
    398c:	8f 7d       	andi	r24, 0xDF	; 223
    398e:	85 83       	std	Z+5, r24	; 0x05
	if (send1_buf.head - send1_buf.tail) {
    3990:	80 91 47 30 	lds	r24, 0x3047	; 0x803047 <send1_buf+0xfe>
    3994:	e0 91 48 30 	lds	r30, 0x3048	; 0x803048 <send1_buf+0xff>
    3998:	8e 17       	cp	r24, r30
    399a:	d1 f0       	breq	.+52     	; 0x39d0 <__vector_27+0x5e>
		USART1.TXDATAL = send1_buf.data[send1_buf.tail++];
    399c:	81 e0       	ldi	r24, 0x01	; 1
    399e:	8e 0f       	add	r24, r30
    39a0:	80 93 48 30 	sts	0x3048, r24	; 0x803048 <send1_buf+0xff>
    39a4:	f0 e0       	ldi	r31, 0x00	; 0
    39a6:	e7 5b       	subi	r30, 0xB7	; 183
    39a8:	f0 4d       	sbci	r31, 0xD0	; 208
    39aa:	90 81       	ld	r25, Z
    39ac:	90 93 22 08 	sts	0x0822, r25	; 0x800822 <__TEXT_REGION_LENGTH__+0x7f4822>
		send1_buf.tail %= BUFSIZE;
    39b0:	91 e0       	ldi	r25, 0x01	; 1
    39b2:	8e 3f       	cpi	r24, 0xFE	; 254
    39b4:	08 f4       	brcc	.+2      	; 0x39b8 <__vector_27+0x46>
    39b6:	90 e0       	ldi	r25, 0x00	; 0
    39b8:	91 95       	neg	r25
    39ba:	29 2f       	mov	r18, r25
    39bc:	22 0f       	add	r18, r18
    39be:	82 1b       	sub	r24, r18
    39c0:	80 93 48 30 	sts	0x3048, r24	; 0x803048 <send1_buf+0xff>
		USART1.CTRLA |= USART_DREIE_bm;		// Turn on interrupts
    39c4:	e0 e2       	ldi	r30, 0x20	; 32
    39c6:	f8 e0       	ldi	r31, 0x08	; 8
    39c8:	85 81       	ldd	r24, Z+5	; 0x05
    39ca:	80 62       	ori	r24, 0x20	; 32
    39cc:	85 83       	std	Z+5, r24	; 0x05
    39ce:	03 c0       	rjmp	.+6      	; 0x39d6 <__vector_27+0x64>
	} else {
		send1_buf.done = YES;
    39d0:	81 e0       	ldi	r24, 0x01	; 1
    39d2:	80 93 4c 30 	sts	0x304C, r24	; 0x80304c <send1_buf+0x103>
	}

}
    39d6:	ff 91       	pop	r31
    39d8:	ef 91       	pop	r30
    39da:	9f 91       	pop	r25
    39dc:	8f 91       	pop	r24
    39de:	2f 91       	pop	r18
    39e0:	0f 90       	pop	r0
    39e2:	0f be       	out	0x3f, r0	; 63
    39e4:	0f 90       	pop	r0
    39e6:	1f 90       	pop	r1
    39e8:	18 95       	reti

000039ea <__vector_37>:
	If the character received is a <CR> ('\r'), a string terminator ('\0') is
	inserted into the buffer instead of the '\r'. The done flag is set and the
	nxfrd value set back to 0.
------------------------------------------------------------------------------*/
ISR(USART3_RXC_vect)
{
    39ea:	1f 92       	push	r1
    39ec:	0f 92       	push	r0
    39ee:	0f b6       	in	r0, 0x3f	; 63
    39f0:	0f 92       	push	r0
    39f2:	11 24       	eor	r1, r1
    39f4:	8f 93       	push	r24
    39f6:	9f 93       	push	r25
    39f8:	af 93       	push	r26
    39fa:	bf 93       	push	r27
    39fc:	ef 93       	push	r30
    39fe:	ff 93       	push	r31

	uint8_t c;

	c = USART3.RXDATAL;
    3a00:	80 91 60 08 	lds	r24, 0x0860	; 0x800860 <__TEXT_REGION_LENGTH__+0x7f4860>
	if (((char) c == '\r') || (recv3_buf.nxfrd >= (BUFSIZE-1))) {
    3a04:	8d 30       	cpi	r24, 0x0D	; 13
    3a06:	21 f0       	breq	.+8      	; 0x3a10 <__vector_37+0x26>
    3a08:	e0 91 43 2e 	lds	r30, 0x2E43	; 0x802e43 <recv3_buf+0x102>
    3a0c:	ed 3f       	cpi	r30, 0xFD	; 253
    3a0e:	78 f0       	brcs	.+30     	; 0x3a2e <__vector_37+0x44>
		recv3_buf.done = YES;
    3a10:	81 e0       	ldi	r24, 0x01	; 1
    3a12:	80 93 44 2e 	sts	0x2E44, r24	; 0x802e44 <recv3_buf+0x103>
		recv3_buf.data[recv3_buf.nxfrd] = 0;	// String terminator
    3a16:	a3 e4       	ldi	r26, 0x43	; 67
    3a18:	be e2       	ldi	r27, 0x2E	; 46
    3a1a:	8c 91       	ld	r24, X
    3a1c:	e8 2f       	mov	r30, r24
    3a1e:	f0 e0       	ldi	r31, 0x00	; 0
    3a20:	ef 5b       	subi	r30, 0xBF	; 191
    3a22:	f2 4d       	sbci	r31, 0xD2	; 210
    3a24:	10 82       	st	Z, r1
		recv3_buf.nbytes = recv3_buf.nxfrd;
    3a26:	80 93 41 2e 	sts	0x2E41, r24	; 0x802e41 <recv3_buf+0x100>
		recv3_buf.nxfrd = 0;
    3a2a:	1c 92       	st	X, r1
		return;
    3a2c:	08 c0       	rjmp	.+16     	; 0x3a3e <__vector_37+0x54>
	} else {
		recv3_buf.data[recv3_buf.nxfrd++] = c;
    3a2e:	91 e0       	ldi	r25, 0x01	; 1
    3a30:	9e 0f       	add	r25, r30
    3a32:	90 93 43 2e 	sts	0x2E43, r25	; 0x802e43 <recv3_buf+0x102>
    3a36:	f0 e0       	ldi	r31, 0x00	; 0
    3a38:	ef 5b       	subi	r30, 0xBF	; 191
    3a3a:	f2 4d       	sbci	r31, 0xD2	; 210
    3a3c:	80 83       	st	Z, r24
	}

}
    3a3e:	ff 91       	pop	r31
    3a40:	ef 91       	pop	r30
    3a42:	bf 91       	pop	r27
    3a44:	af 91       	pop	r26
    3a46:	9f 91       	pop	r25
    3a48:	8f 91       	pop	r24
    3a4a:	0f 90       	pop	r0
    3a4c:	0f be       	out	0x3f, r0	; 63
    3a4e:	0f 90       	pop	r0
    3a50:	1f 90       	pop	r1
    3a52:	18 95       	reti

00003a54 <__vector_38>:
	off this interrupt.

	Sending is started by calling send_USART(port).
------------------------------------------------------------------------------*/
ISR(USART3_DRE_vect)
{
    3a54:	1f 92       	push	r1
    3a56:	0f 92       	push	r0
    3a58:	0f b6       	in	r0, 0x3f	; 63
    3a5a:	0f 92       	push	r0
    3a5c:	11 24       	eor	r1, r1
    3a5e:	8f 93       	push	r24
    3a60:	9f 93       	push	r25
    3a62:	af 93       	push	r26
    3a64:	bf 93       	push	r27
    3a66:	ef 93       	push	r30
    3a68:	ff 93       	push	r31

	USART3.TXDATAL = send3_buf.data[send3_buf.nxfrd++];
    3a6a:	a7 e4       	ldi	r26, 0x47	; 71
    3a6c:	bf e2       	ldi	r27, 0x2F	; 47
    3a6e:	ec 91       	ld	r30, X
    3a70:	81 e0       	ldi	r24, 0x01	; 1
    3a72:	8e 0f       	add	r24, r30
    3a74:	8c 93       	st	X, r24
    3a76:	f0 e0       	ldi	r31, 0x00	; 0
    3a78:	eb 5b       	subi	r30, 0xBB	; 187
    3a7a:	f1 4d       	sbci	r31, 0xD1	; 209
    3a7c:	90 81       	ld	r25, Z
    3a7e:	90 93 62 08 	sts	0x0862, r25	; 0x800862 <__TEXT_REGION_LENGTH__+0x7f4862>
	if (send3_buf.nxfrd >= send3_buf.nbytes) {
    3a82:	90 91 45 2f 	lds	r25, 0x2F45	; 0x802f45 <send3_buf+0x100>
    3a86:	89 17       	cp	r24, r25
    3a88:	40 f0       	brcs	.+16     	; 0x3a9a <__vector_38+0x46>
		USART3.CTRLA &= ~USART_DREIE_bm;	// Turn off interrupts
    3a8a:	e0 e6       	ldi	r30, 0x60	; 96
    3a8c:	f8 e0       	ldi	r31, 0x08	; 8
    3a8e:	85 81       	ldd	r24, Z+5	; 0x05
    3a90:	8f 7d       	andi	r24, 0xDF	; 223
    3a92:	85 83       	std	Z+5, r24	; 0x05
		send3_buf.done = YES;
    3a94:	81 e0       	ldi	r24, 0x01	; 1
    3a96:	80 93 48 2f 	sts	0x2F48, r24	; 0x802f48 <send3_buf+0x103>
	}

}
    3a9a:	ff 91       	pop	r31
    3a9c:	ef 91       	pop	r30
    3a9e:	bf 91       	pop	r27
    3aa0:	af 91       	pop	r26
    3aa2:	9f 91       	pop	r25
    3aa4:	8f 91       	pop	r24
    3aa6:	0f 90       	pop	r0
    3aa8:	0f be       	out	0x3f, r0	; 63
    3aaa:	0f 90       	pop	r0
    3aac:	1f 90       	pop	r1
    3aae:	18 95       	reti

00003ab0 <reboot>:
#include "wdt.h"

void reboot(void)
{

	CPU_CCP = CCP_IOREG_gc;
    3ab0:	88 ed       	ldi	r24, 0xD8	; 216
    3ab2:	84 bf       	out	0x34, r24	; 52
	WDT.CTRLA = WDT_PERIOD_8CLK_gc;
    3ab4:	81 e0       	ldi	r24, 0x01	; 1
    3ab6:	80 93 00 01 	sts	0x0100, r24	; 0x800100 <__TEXT_REGION_LENGTH__+0x7f4100>
    3aba:	08 95       	ret

00003abc <__vector_29>:

}

ISR(PORTF_PORT_vect)
{
    3abc:	1f 92       	push	r1
    3abe:	0f 92       	push	r0
    3ac0:	0f b6       	in	r0, 0x3f	; 63
    3ac2:	0f 92       	push	r0
    3ac4:	11 24       	eor	r1, r1
    3ac6:	2f 93       	push	r18
    3ac8:	3f 93       	push	r19
    3aca:	4f 93       	push	r20
    3acc:	5f 93       	push	r21
    3ace:	6f 93       	push	r22
    3ad0:	7f 93       	push	r23
    3ad2:	8f 93       	push	r24
    3ad4:	9f 93       	push	r25
    3ad6:	af 93       	push	r26
    3ad8:	bf 93       	push	r27
    3ada:	ef 93       	push	r30
    3adc:	ff 93       	push	r31

	if (PORTF.INTFLAGS & PIN6_bm) {		// Curiosity Nano button
    3ade:	80 91 a9 04 	lds	r24, 0x04A9	; 0x8004a9 <__TEXT_REGION_LENGTH__+0x7f44a9>
    3ae2:	86 ff       	sbrs	r24, 6
    3ae4:	05 c0       	rjmp	.+10     	; 0x3af0 <__vector_29+0x34>
		PORTF.INTFLAGS = PIN6_bm;		// Clear the interrupt flag
    3ae6:	80 e4       	ldi	r24, 0x40	; 64
    3ae8:	80 93 a9 04 	sts	0x04A9, r24	; 0x8004a9 <__TEXT_REGION_LENGTH__+0x7f44a9>
		reboot();
    3aec:	0e 94 58 1d 	call	0x3ab0	; 0x3ab0 <reboot>
	}

}
    3af0:	ff 91       	pop	r31
    3af2:	ef 91       	pop	r30
    3af4:	bf 91       	pop	r27
    3af6:	af 91       	pop	r26
    3af8:	9f 91       	pop	r25
    3afa:	8f 91       	pop	r24
    3afc:	7f 91       	pop	r23
    3afe:	6f 91       	pop	r22
    3b00:	5f 91       	pop	r21
    3b02:	4f 91       	pop	r20
    3b04:	3f 91       	pop	r19
    3b06:	2f 91       	pop	r18
    3b08:	0f 90       	pop	r0
    3b0a:	0f be       	out	0x3f, r0	; 63
    3b0c:	0f 90       	pop	r0
    3b0e:	1f 90       	pop	r1
    3b10:	18 95       	reti

00003b12 <__subsf3>:
    3b12:	50 58       	subi	r21, 0x80	; 128

00003b14 <__addsf3>:
    3b14:	bb 27       	eor	r27, r27
    3b16:	aa 27       	eor	r26, r26
    3b18:	0e 94 a1 1d 	call	0x3b42	; 0x3b42 <__addsf3x>
    3b1c:	0c 94 e5 1e 	jmp	0x3dca	; 0x3dca <__fp_round>
    3b20:	0e 94 d7 1e 	call	0x3dae	; 0x3dae <__fp_pscA>
    3b24:	38 f0       	brcs	.+14     	; 0x3b34 <__addsf3+0x20>
    3b26:	0e 94 de 1e 	call	0x3dbc	; 0x3dbc <__fp_pscB>
    3b2a:	20 f0       	brcs	.+8      	; 0x3b34 <__addsf3+0x20>
    3b2c:	39 f4       	brne	.+14     	; 0x3b3c <__addsf3+0x28>
    3b2e:	9f 3f       	cpi	r25, 0xFF	; 255
    3b30:	19 f4       	brne	.+6      	; 0x3b38 <__addsf3+0x24>
    3b32:	26 f4       	brtc	.+8      	; 0x3b3c <__addsf3+0x28>
    3b34:	0c 94 d4 1e 	jmp	0x3da8	; 0x3da8 <__fp_nan>
    3b38:	0e f4       	brtc	.+2      	; 0x3b3c <__addsf3+0x28>
    3b3a:	e0 95       	com	r30
    3b3c:	e7 fb       	bst	r30, 7
    3b3e:	0c 94 ce 1e 	jmp	0x3d9c	; 0x3d9c <__fp_inf>

00003b42 <__addsf3x>:
    3b42:	e9 2f       	mov	r30, r25
    3b44:	0e 94 f6 1e 	call	0x3dec	; 0x3dec <__fp_split3>
    3b48:	58 f3       	brcs	.-42     	; 0x3b20 <__addsf3+0xc>
    3b4a:	ba 17       	cp	r27, r26
    3b4c:	62 07       	cpc	r22, r18
    3b4e:	73 07       	cpc	r23, r19
    3b50:	84 07       	cpc	r24, r20
    3b52:	95 07       	cpc	r25, r21
    3b54:	20 f0       	brcs	.+8      	; 0x3b5e <__addsf3x+0x1c>
    3b56:	79 f4       	brne	.+30     	; 0x3b76 <__addsf3x+0x34>
    3b58:	a6 f5       	brtc	.+104    	; 0x3bc2 <__addsf3x+0x80>
    3b5a:	0c 94 18 1f 	jmp	0x3e30	; 0x3e30 <__fp_zero>
    3b5e:	0e f4       	brtc	.+2      	; 0x3b62 <__addsf3x+0x20>
    3b60:	e0 95       	com	r30
    3b62:	0b 2e       	mov	r0, r27
    3b64:	ba 2f       	mov	r27, r26
    3b66:	a0 2d       	mov	r26, r0
    3b68:	0b 01       	movw	r0, r22
    3b6a:	b9 01       	movw	r22, r18
    3b6c:	90 01       	movw	r18, r0
    3b6e:	0c 01       	movw	r0, r24
    3b70:	ca 01       	movw	r24, r20
    3b72:	a0 01       	movw	r20, r0
    3b74:	11 24       	eor	r1, r1
    3b76:	ff 27       	eor	r31, r31
    3b78:	59 1b       	sub	r21, r25
    3b7a:	99 f0       	breq	.+38     	; 0x3ba2 <__addsf3x+0x60>
    3b7c:	59 3f       	cpi	r21, 0xF9	; 249
    3b7e:	50 f4       	brcc	.+20     	; 0x3b94 <__addsf3x+0x52>
    3b80:	50 3e       	cpi	r21, 0xE0	; 224
    3b82:	68 f1       	brcs	.+90     	; 0x3bde <__addsf3x+0x9c>
    3b84:	1a 16       	cp	r1, r26
    3b86:	f0 40       	sbci	r31, 0x00	; 0
    3b88:	a2 2f       	mov	r26, r18
    3b8a:	23 2f       	mov	r18, r19
    3b8c:	34 2f       	mov	r19, r20
    3b8e:	44 27       	eor	r20, r20
    3b90:	58 5f       	subi	r21, 0xF8	; 248
    3b92:	f3 cf       	rjmp	.-26     	; 0x3b7a <__addsf3x+0x38>
    3b94:	46 95       	lsr	r20
    3b96:	37 95       	ror	r19
    3b98:	27 95       	ror	r18
    3b9a:	a7 95       	ror	r26
    3b9c:	f0 40       	sbci	r31, 0x00	; 0
    3b9e:	53 95       	inc	r21
    3ba0:	c9 f7       	brne	.-14     	; 0x3b94 <__addsf3x+0x52>
    3ba2:	7e f4       	brtc	.+30     	; 0x3bc2 <__addsf3x+0x80>
    3ba4:	1f 16       	cp	r1, r31
    3ba6:	ba 0b       	sbc	r27, r26
    3ba8:	62 0b       	sbc	r22, r18
    3baa:	73 0b       	sbc	r23, r19
    3bac:	84 0b       	sbc	r24, r20
    3bae:	ba f0       	brmi	.+46     	; 0x3bde <__addsf3x+0x9c>
    3bb0:	91 50       	subi	r25, 0x01	; 1
    3bb2:	a1 f0       	breq	.+40     	; 0x3bdc <__addsf3x+0x9a>
    3bb4:	ff 0f       	add	r31, r31
    3bb6:	bb 1f       	adc	r27, r27
    3bb8:	66 1f       	adc	r22, r22
    3bba:	77 1f       	adc	r23, r23
    3bbc:	88 1f       	adc	r24, r24
    3bbe:	c2 f7       	brpl	.-16     	; 0x3bb0 <__addsf3x+0x6e>
    3bc0:	0e c0       	rjmp	.+28     	; 0x3bde <__addsf3x+0x9c>
    3bc2:	ba 0f       	add	r27, r26
    3bc4:	62 1f       	adc	r22, r18
    3bc6:	73 1f       	adc	r23, r19
    3bc8:	84 1f       	adc	r24, r20
    3bca:	48 f4       	brcc	.+18     	; 0x3bde <__addsf3x+0x9c>
    3bcc:	87 95       	ror	r24
    3bce:	77 95       	ror	r23
    3bd0:	67 95       	ror	r22
    3bd2:	b7 95       	ror	r27
    3bd4:	f7 95       	ror	r31
    3bd6:	9e 3f       	cpi	r25, 0xFE	; 254
    3bd8:	08 f0       	brcs	.+2      	; 0x3bdc <__addsf3x+0x9a>
    3bda:	b0 cf       	rjmp	.-160    	; 0x3b3c <__addsf3+0x28>
    3bdc:	93 95       	inc	r25
    3bde:	88 0f       	add	r24, r24
    3be0:	08 f0       	brcs	.+2      	; 0x3be4 <__addsf3x+0xa2>
    3be2:	99 27       	eor	r25, r25
    3be4:	ee 0f       	add	r30, r30
    3be6:	97 95       	ror	r25
    3be8:	87 95       	ror	r24
    3bea:	08 95       	ret

00003bec <__cmpsf2>:
    3bec:	0e 94 aa 1e 	call	0x3d54	; 0x3d54 <__fp_cmp>
    3bf0:	08 f4       	brcc	.+2      	; 0x3bf4 <__cmpsf2+0x8>
    3bf2:	81 e0       	ldi	r24, 0x01	; 1
    3bf4:	08 95       	ret

00003bf6 <__divsf3>:
    3bf6:	0e 94 0f 1e 	call	0x3c1e	; 0x3c1e <__divsf3x>
    3bfa:	0c 94 e5 1e 	jmp	0x3dca	; 0x3dca <__fp_round>
    3bfe:	0e 94 de 1e 	call	0x3dbc	; 0x3dbc <__fp_pscB>
    3c02:	58 f0       	brcs	.+22     	; 0x3c1a <__divsf3+0x24>
    3c04:	0e 94 d7 1e 	call	0x3dae	; 0x3dae <__fp_pscA>
    3c08:	40 f0       	brcs	.+16     	; 0x3c1a <__divsf3+0x24>
    3c0a:	29 f4       	brne	.+10     	; 0x3c16 <__divsf3+0x20>
    3c0c:	5f 3f       	cpi	r21, 0xFF	; 255
    3c0e:	29 f0       	breq	.+10     	; 0x3c1a <__divsf3+0x24>
    3c10:	0c 94 ce 1e 	jmp	0x3d9c	; 0x3d9c <__fp_inf>
    3c14:	51 11       	cpse	r21, r1
    3c16:	0c 94 19 1f 	jmp	0x3e32	; 0x3e32 <__fp_szero>
    3c1a:	0c 94 d4 1e 	jmp	0x3da8	; 0x3da8 <__fp_nan>

00003c1e <__divsf3x>:
    3c1e:	0e 94 f6 1e 	call	0x3dec	; 0x3dec <__fp_split3>
    3c22:	68 f3       	brcs	.-38     	; 0x3bfe <__divsf3+0x8>

00003c24 <__divsf3_pse>:
    3c24:	99 23       	and	r25, r25
    3c26:	b1 f3       	breq	.-20     	; 0x3c14 <__divsf3+0x1e>
    3c28:	55 23       	and	r21, r21
    3c2a:	91 f3       	breq	.-28     	; 0x3c10 <__divsf3+0x1a>
    3c2c:	95 1b       	sub	r25, r21
    3c2e:	55 0b       	sbc	r21, r21
    3c30:	bb 27       	eor	r27, r27
    3c32:	aa 27       	eor	r26, r26
    3c34:	62 17       	cp	r22, r18
    3c36:	73 07       	cpc	r23, r19
    3c38:	84 07       	cpc	r24, r20
    3c3a:	38 f0       	brcs	.+14     	; 0x3c4a <__divsf3_pse+0x26>
    3c3c:	9f 5f       	subi	r25, 0xFF	; 255
    3c3e:	5f 4f       	sbci	r21, 0xFF	; 255
    3c40:	22 0f       	add	r18, r18
    3c42:	33 1f       	adc	r19, r19
    3c44:	44 1f       	adc	r20, r20
    3c46:	aa 1f       	adc	r26, r26
    3c48:	a9 f3       	breq	.-22     	; 0x3c34 <__divsf3_pse+0x10>
    3c4a:	35 d0       	rcall	.+106    	; 0x3cb6 <__divsf3_pse+0x92>
    3c4c:	0e 2e       	mov	r0, r30
    3c4e:	3a f0       	brmi	.+14     	; 0x3c5e <__divsf3_pse+0x3a>
    3c50:	e0 e8       	ldi	r30, 0x80	; 128
    3c52:	32 d0       	rcall	.+100    	; 0x3cb8 <__divsf3_pse+0x94>
    3c54:	91 50       	subi	r25, 0x01	; 1
    3c56:	50 40       	sbci	r21, 0x00	; 0
    3c58:	e6 95       	lsr	r30
    3c5a:	00 1c       	adc	r0, r0
    3c5c:	ca f7       	brpl	.-14     	; 0x3c50 <__divsf3_pse+0x2c>
    3c5e:	2b d0       	rcall	.+86     	; 0x3cb6 <__divsf3_pse+0x92>
    3c60:	fe 2f       	mov	r31, r30
    3c62:	29 d0       	rcall	.+82     	; 0x3cb6 <__divsf3_pse+0x92>
    3c64:	66 0f       	add	r22, r22
    3c66:	77 1f       	adc	r23, r23
    3c68:	88 1f       	adc	r24, r24
    3c6a:	bb 1f       	adc	r27, r27
    3c6c:	26 17       	cp	r18, r22
    3c6e:	37 07       	cpc	r19, r23
    3c70:	48 07       	cpc	r20, r24
    3c72:	ab 07       	cpc	r26, r27
    3c74:	b0 e8       	ldi	r27, 0x80	; 128
    3c76:	09 f0       	breq	.+2      	; 0x3c7a <__divsf3_pse+0x56>
    3c78:	bb 0b       	sbc	r27, r27
    3c7a:	80 2d       	mov	r24, r0
    3c7c:	bf 01       	movw	r22, r30
    3c7e:	ff 27       	eor	r31, r31
    3c80:	93 58       	subi	r25, 0x83	; 131
    3c82:	5f 4f       	sbci	r21, 0xFF	; 255
    3c84:	3a f0       	brmi	.+14     	; 0x3c94 <__divsf3_pse+0x70>
    3c86:	9e 3f       	cpi	r25, 0xFE	; 254
    3c88:	51 05       	cpc	r21, r1
    3c8a:	78 f0       	brcs	.+30     	; 0x3caa <__divsf3_pse+0x86>
    3c8c:	0c 94 ce 1e 	jmp	0x3d9c	; 0x3d9c <__fp_inf>
    3c90:	0c 94 19 1f 	jmp	0x3e32	; 0x3e32 <__fp_szero>
    3c94:	5f 3f       	cpi	r21, 0xFF	; 255
    3c96:	e4 f3       	brlt	.-8      	; 0x3c90 <__divsf3_pse+0x6c>
    3c98:	98 3e       	cpi	r25, 0xE8	; 232
    3c9a:	d4 f3       	brlt	.-12     	; 0x3c90 <__divsf3_pse+0x6c>
    3c9c:	86 95       	lsr	r24
    3c9e:	77 95       	ror	r23
    3ca0:	67 95       	ror	r22
    3ca2:	b7 95       	ror	r27
    3ca4:	f7 95       	ror	r31
    3ca6:	9f 5f       	subi	r25, 0xFF	; 255
    3ca8:	c9 f7       	brne	.-14     	; 0x3c9c <__divsf3_pse+0x78>
    3caa:	88 0f       	add	r24, r24
    3cac:	91 1d       	adc	r25, r1
    3cae:	96 95       	lsr	r25
    3cb0:	87 95       	ror	r24
    3cb2:	97 f9       	bld	r25, 7
    3cb4:	08 95       	ret
    3cb6:	e1 e0       	ldi	r30, 0x01	; 1
    3cb8:	66 0f       	add	r22, r22
    3cba:	77 1f       	adc	r23, r23
    3cbc:	88 1f       	adc	r24, r24
    3cbe:	bb 1f       	adc	r27, r27
    3cc0:	62 17       	cp	r22, r18
    3cc2:	73 07       	cpc	r23, r19
    3cc4:	84 07       	cpc	r24, r20
    3cc6:	ba 07       	cpc	r27, r26
    3cc8:	20 f0       	brcs	.+8      	; 0x3cd2 <__divsf3_pse+0xae>
    3cca:	62 1b       	sub	r22, r18
    3ccc:	73 0b       	sbc	r23, r19
    3cce:	84 0b       	sbc	r24, r20
    3cd0:	ba 0b       	sbc	r27, r26
    3cd2:	ee 1f       	adc	r30, r30
    3cd4:	88 f7       	brcc	.-30     	; 0x3cb8 <__divsf3_pse+0x94>
    3cd6:	e0 95       	com	r30
    3cd8:	08 95       	ret

00003cda <__floatunsisf>:
    3cda:	e8 94       	clt
    3cdc:	09 c0       	rjmp	.+18     	; 0x3cf0 <__floatsisf+0x12>

00003cde <__floatsisf>:
    3cde:	97 fb       	bst	r25, 7
    3ce0:	3e f4       	brtc	.+14     	; 0x3cf0 <__floatsisf+0x12>
    3ce2:	90 95       	com	r25
    3ce4:	80 95       	com	r24
    3ce6:	70 95       	com	r23
    3ce8:	61 95       	neg	r22
    3cea:	7f 4f       	sbci	r23, 0xFF	; 255
    3cec:	8f 4f       	sbci	r24, 0xFF	; 255
    3cee:	9f 4f       	sbci	r25, 0xFF	; 255
    3cf0:	99 23       	and	r25, r25
    3cf2:	a9 f0       	breq	.+42     	; 0x3d1e <__floatsisf+0x40>
    3cf4:	f9 2f       	mov	r31, r25
    3cf6:	96 e9       	ldi	r25, 0x96	; 150
    3cf8:	bb 27       	eor	r27, r27
    3cfa:	93 95       	inc	r25
    3cfc:	f6 95       	lsr	r31
    3cfe:	87 95       	ror	r24
    3d00:	77 95       	ror	r23
    3d02:	67 95       	ror	r22
    3d04:	b7 95       	ror	r27
    3d06:	f1 11       	cpse	r31, r1
    3d08:	f8 cf       	rjmp	.-16     	; 0x3cfa <__floatsisf+0x1c>
    3d0a:	fa f4       	brpl	.+62     	; 0x3d4a <__floatsisf+0x6c>
    3d0c:	bb 0f       	add	r27, r27
    3d0e:	11 f4       	brne	.+4      	; 0x3d14 <__floatsisf+0x36>
    3d10:	60 ff       	sbrs	r22, 0
    3d12:	1b c0       	rjmp	.+54     	; 0x3d4a <__floatsisf+0x6c>
    3d14:	6f 5f       	subi	r22, 0xFF	; 255
    3d16:	7f 4f       	sbci	r23, 0xFF	; 255
    3d18:	8f 4f       	sbci	r24, 0xFF	; 255
    3d1a:	9f 4f       	sbci	r25, 0xFF	; 255
    3d1c:	16 c0       	rjmp	.+44     	; 0x3d4a <__floatsisf+0x6c>
    3d1e:	88 23       	and	r24, r24
    3d20:	11 f0       	breq	.+4      	; 0x3d26 <__floatsisf+0x48>
    3d22:	96 e9       	ldi	r25, 0x96	; 150
    3d24:	11 c0       	rjmp	.+34     	; 0x3d48 <__floatsisf+0x6a>
    3d26:	77 23       	and	r23, r23
    3d28:	21 f0       	breq	.+8      	; 0x3d32 <__floatsisf+0x54>
    3d2a:	9e e8       	ldi	r25, 0x8E	; 142
    3d2c:	87 2f       	mov	r24, r23
    3d2e:	76 2f       	mov	r23, r22
    3d30:	05 c0       	rjmp	.+10     	; 0x3d3c <__floatsisf+0x5e>
    3d32:	66 23       	and	r22, r22
    3d34:	71 f0       	breq	.+28     	; 0x3d52 <__floatsisf+0x74>
    3d36:	96 e8       	ldi	r25, 0x86	; 134
    3d38:	86 2f       	mov	r24, r22
    3d3a:	70 e0       	ldi	r23, 0x00	; 0
    3d3c:	60 e0       	ldi	r22, 0x00	; 0
    3d3e:	2a f0       	brmi	.+10     	; 0x3d4a <__floatsisf+0x6c>
    3d40:	9a 95       	dec	r25
    3d42:	66 0f       	add	r22, r22
    3d44:	77 1f       	adc	r23, r23
    3d46:	88 1f       	adc	r24, r24
    3d48:	da f7       	brpl	.-10     	; 0x3d40 <__floatsisf+0x62>
    3d4a:	88 0f       	add	r24, r24
    3d4c:	96 95       	lsr	r25
    3d4e:	87 95       	ror	r24
    3d50:	97 f9       	bld	r25, 7
    3d52:	08 95       	ret

00003d54 <__fp_cmp>:
    3d54:	99 0f       	add	r25, r25
    3d56:	00 08       	sbc	r0, r0
    3d58:	55 0f       	add	r21, r21
    3d5a:	aa 0b       	sbc	r26, r26
    3d5c:	e0 e8       	ldi	r30, 0x80	; 128
    3d5e:	fe ef       	ldi	r31, 0xFE	; 254
    3d60:	16 16       	cp	r1, r22
    3d62:	17 06       	cpc	r1, r23
    3d64:	e8 07       	cpc	r30, r24
    3d66:	f9 07       	cpc	r31, r25
    3d68:	c0 f0       	brcs	.+48     	; 0x3d9a <__fp_cmp+0x46>
    3d6a:	12 16       	cp	r1, r18
    3d6c:	13 06       	cpc	r1, r19
    3d6e:	e4 07       	cpc	r30, r20
    3d70:	f5 07       	cpc	r31, r21
    3d72:	98 f0       	brcs	.+38     	; 0x3d9a <__fp_cmp+0x46>
    3d74:	62 1b       	sub	r22, r18
    3d76:	73 0b       	sbc	r23, r19
    3d78:	84 0b       	sbc	r24, r20
    3d7a:	95 0b       	sbc	r25, r21
    3d7c:	39 f4       	brne	.+14     	; 0x3d8c <__fp_cmp+0x38>
    3d7e:	0a 26       	eor	r0, r26
    3d80:	61 f0       	breq	.+24     	; 0x3d9a <__fp_cmp+0x46>
    3d82:	23 2b       	or	r18, r19
    3d84:	24 2b       	or	r18, r20
    3d86:	25 2b       	or	r18, r21
    3d88:	21 f4       	brne	.+8      	; 0x3d92 <__fp_cmp+0x3e>
    3d8a:	08 95       	ret
    3d8c:	0a 26       	eor	r0, r26
    3d8e:	09 f4       	brne	.+2      	; 0x3d92 <__fp_cmp+0x3e>
    3d90:	a1 40       	sbci	r26, 0x01	; 1
    3d92:	a6 95       	lsr	r26
    3d94:	8f ef       	ldi	r24, 0xFF	; 255
    3d96:	81 1d       	adc	r24, r1
    3d98:	81 1d       	adc	r24, r1
    3d9a:	08 95       	ret

00003d9c <__fp_inf>:
    3d9c:	97 f9       	bld	r25, 7
    3d9e:	9f 67       	ori	r25, 0x7F	; 127
    3da0:	80 e8       	ldi	r24, 0x80	; 128
    3da2:	70 e0       	ldi	r23, 0x00	; 0
    3da4:	60 e0       	ldi	r22, 0x00	; 0
    3da6:	08 95       	ret

00003da8 <__fp_nan>:
    3da8:	9f ef       	ldi	r25, 0xFF	; 255
    3daa:	80 ec       	ldi	r24, 0xC0	; 192
    3dac:	08 95       	ret

00003dae <__fp_pscA>:
    3dae:	00 24       	eor	r0, r0
    3db0:	0a 94       	dec	r0
    3db2:	16 16       	cp	r1, r22
    3db4:	17 06       	cpc	r1, r23
    3db6:	18 06       	cpc	r1, r24
    3db8:	09 06       	cpc	r0, r25
    3dba:	08 95       	ret

00003dbc <__fp_pscB>:
    3dbc:	00 24       	eor	r0, r0
    3dbe:	0a 94       	dec	r0
    3dc0:	12 16       	cp	r1, r18
    3dc2:	13 06       	cpc	r1, r19
    3dc4:	14 06       	cpc	r1, r20
    3dc6:	05 06       	cpc	r0, r21
    3dc8:	08 95       	ret

00003dca <__fp_round>:
    3dca:	09 2e       	mov	r0, r25
    3dcc:	03 94       	inc	r0
    3dce:	00 0c       	add	r0, r0
    3dd0:	11 f4       	brne	.+4      	; 0x3dd6 <__fp_round+0xc>
    3dd2:	88 23       	and	r24, r24
    3dd4:	52 f0       	brmi	.+20     	; 0x3dea <__fp_round+0x20>
    3dd6:	bb 0f       	add	r27, r27
    3dd8:	40 f4       	brcc	.+16     	; 0x3dea <__fp_round+0x20>
    3dda:	bf 2b       	or	r27, r31
    3ddc:	11 f4       	brne	.+4      	; 0x3de2 <__fp_round+0x18>
    3dde:	60 ff       	sbrs	r22, 0
    3de0:	04 c0       	rjmp	.+8      	; 0x3dea <__fp_round+0x20>
    3de2:	6f 5f       	subi	r22, 0xFF	; 255
    3de4:	7f 4f       	sbci	r23, 0xFF	; 255
    3de6:	8f 4f       	sbci	r24, 0xFF	; 255
    3de8:	9f 4f       	sbci	r25, 0xFF	; 255
    3dea:	08 95       	ret

00003dec <__fp_split3>:
    3dec:	57 fd       	sbrc	r21, 7
    3dee:	90 58       	subi	r25, 0x80	; 128
    3df0:	44 0f       	add	r20, r20
    3df2:	55 1f       	adc	r21, r21
    3df4:	59 f0       	breq	.+22     	; 0x3e0c <__fp_splitA+0x10>
    3df6:	5f 3f       	cpi	r21, 0xFF	; 255
    3df8:	71 f0       	breq	.+28     	; 0x3e16 <__fp_splitA+0x1a>
    3dfa:	47 95       	ror	r20

00003dfc <__fp_splitA>:
    3dfc:	88 0f       	add	r24, r24
    3dfe:	97 fb       	bst	r25, 7
    3e00:	99 1f       	adc	r25, r25
    3e02:	61 f0       	breq	.+24     	; 0x3e1c <__fp_splitA+0x20>
    3e04:	9f 3f       	cpi	r25, 0xFF	; 255
    3e06:	79 f0       	breq	.+30     	; 0x3e26 <__fp_splitA+0x2a>
    3e08:	87 95       	ror	r24
    3e0a:	08 95       	ret
    3e0c:	12 16       	cp	r1, r18
    3e0e:	13 06       	cpc	r1, r19
    3e10:	14 06       	cpc	r1, r20
    3e12:	55 1f       	adc	r21, r21
    3e14:	f2 cf       	rjmp	.-28     	; 0x3dfa <__fp_split3+0xe>
    3e16:	46 95       	lsr	r20
    3e18:	f1 df       	rcall	.-30     	; 0x3dfc <__fp_splitA>
    3e1a:	08 c0       	rjmp	.+16     	; 0x3e2c <__fp_splitA+0x30>
    3e1c:	16 16       	cp	r1, r22
    3e1e:	17 06       	cpc	r1, r23
    3e20:	18 06       	cpc	r1, r24
    3e22:	99 1f       	adc	r25, r25
    3e24:	f1 cf       	rjmp	.-30     	; 0x3e08 <__fp_splitA+0xc>
    3e26:	86 95       	lsr	r24
    3e28:	71 05       	cpc	r23, r1
    3e2a:	61 05       	cpc	r22, r1
    3e2c:	08 94       	sec
    3e2e:	08 95       	ret

00003e30 <__fp_zero>:
    3e30:	e8 94       	clt

00003e32 <__fp_szero>:
    3e32:	bb 27       	eor	r27, r27
    3e34:	66 27       	eor	r22, r22
    3e36:	77 27       	eor	r23, r23
    3e38:	cb 01       	movw	r24, r22
    3e3a:	97 f9       	bld	r25, 7
    3e3c:	08 95       	ret

00003e3e <__gesf2>:
    3e3e:	0e 94 aa 1e 	call	0x3d54	; 0x3d54 <__fp_cmp>
    3e42:	08 f4       	brcc	.+2      	; 0x3e46 <__gesf2+0x8>
    3e44:	8f ef       	ldi	r24, 0xFF	; 255
    3e46:	08 95       	ret

00003e48 <__mulsf3>:
    3e48:	0e 94 37 1f 	call	0x3e6e	; 0x3e6e <__mulsf3x>
    3e4c:	0c 94 e5 1e 	jmp	0x3dca	; 0x3dca <__fp_round>
    3e50:	0e 94 d7 1e 	call	0x3dae	; 0x3dae <__fp_pscA>
    3e54:	38 f0       	brcs	.+14     	; 0x3e64 <__mulsf3+0x1c>
    3e56:	0e 94 de 1e 	call	0x3dbc	; 0x3dbc <__fp_pscB>
    3e5a:	20 f0       	brcs	.+8      	; 0x3e64 <__mulsf3+0x1c>
    3e5c:	95 23       	and	r25, r21
    3e5e:	11 f0       	breq	.+4      	; 0x3e64 <__mulsf3+0x1c>
    3e60:	0c 94 ce 1e 	jmp	0x3d9c	; 0x3d9c <__fp_inf>
    3e64:	0c 94 d4 1e 	jmp	0x3da8	; 0x3da8 <__fp_nan>
    3e68:	11 24       	eor	r1, r1
    3e6a:	0c 94 19 1f 	jmp	0x3e32	; 0x3e32 <__fp_szero>

00003e6e <__mulsf3x>:
    3e6e:	0e 94 f6 1e 	call	0x3dec	; 0x3dec <__fp_split3>
    3e72:	70 f3       	brcs	.-36     	; 0x3e50 <__mulsf3+0x8>

00003e74 <__mulsf3_pse>:
    3e74:	95 9f       	mul	r25, r21
    3e76:	c1 f3       	breq	.-16     	; 0x3e68 <__mulsf3+0x20>
    3e78:	95 0f       	add	r25, r21
    3e7a:	50 e0       	ldi	r21, 0x00	; 0
    3e7c:	55 1f       	adc	r21, r21
    3e7e:	62 9f       	mul	r22, r18
    3e80:	f0 01       	movw	r30, r0
    3e82:	72 9f       	mul	r23, r18
    3e84:	bb 27       	eor	r27, r27
    3e86:	f0 0d       	add	r31, r0
    3e88:	b1 1d       	adc	r27, r1
    3e8a:	63 9f       	mul	r22, r19
    3e8c:	aa 27       	eor	r26, r26
    3e8e:	f0 0d       	add	r31, r0
    3e90:	b1 1d       	adc	r27, r1
    3e92:	aa 1f       	adc	r26, r26
    3e94:	64 9f       	mul	r22, r20
    3e96:	66 27       	eor	r22, r22
    3e98:	b0 0d       	add	r27, r0
    3e9a:	a1 1d       	adc	r26, r1
    3e9c:	66 1f       	adc	r22, r22
    3e9e:	82 9f       	mul	r24, r18
    3ea0:	22 27       	eor	r18, r18
    3ea2:	b0 0d       	add	r27, r0
    3ea4:	a1 1d       	adc	r26, r1
    3ea6:	62 1f       	adc	r22, r18
    3ea8:	73 9f       	mul	r23, r19
    3eaa:	b0 0d       	add	r27, r0
    3eac:	a1 1d       	adc	r26, r1
    3eae:	62 1f       	adc	r22, r18
    3eb0:	83 9f       	mul	r24, r19
    3eb2:	a0 0d       	add	r26, r0
    3eb4:	61 1d       	adc	r22, r1
    3eb6:	22 1f       	adc	r18, r18
    3eb8:	74 9f       	mul	r23, r20
    3eba:	33 27       	eor	r19, r19
    3ebc:	a0 0d       	add	r26, r0
    3ebe:	61 1d       	adc	r22, r1
    3ec0:	23 1f       	adc	r18, r19
    3ec2:	84 9f       	mul	r24, r20
    3ec4:	60 0d       	add	r22, r0
    3ec6:	21 1d       	adc	r18, r1
    3ec8:	82 2f       	mov	r24, r18
    3eca:	76 2f       	mov	r23, r22
    3ecc:	6a 2f       	mov	r22, r26
    3ece:	11 24       	eor	r1, r1
    3ed0:	9f 57       	subi	r25, 0x7F	; 127
    3ed2:	50 40       	sbci	r21, 0x00	; 0
    3ed4:	9a f0       	brmi	.+38     	; 0x3efc <__mulsf3_pse+0x88>
    3ed6:	f1 f0       	breq	.+60     	; 0x3f14 <__mulsf3_pse+0xa0>
    3ed8:	88 23       	and	r24, r24
    3eda:	4a f0       	brmi	.+18     	; 0x3eee <__mulsf3_pse+0x7a>
    3edc:	ee 0f       	add	r30, r30
    3ede:	ff 1f       	adc	r31, r31
    3ee0:	bb 1f       	adc	r27, r27
    3ee2:	66 1f       	adc	r22, r22
    3ee4:	77 1f       	adc	r23, r23
    3ee6:	88 1f       	adc	r24, r24
    3ee8:	91 50       	subi	r25, 0x01	; 1
    3eea:	50 40       	sbci	r21, 0x00	; 0
    3eec:	a9 f7       	brne	.-22     	; 0x3ed8 <__mulsf3_pse+0x64>
    3eee:	9e 3f       	cpi	r25, 0xFE	; 254
    3ef0:	51 05       	cpc	r21, r1
    3ef2:	80 f0       	brcs	.+32     	; 0x3f14 <__mulsf3_pse+0xa0>
    3ef4:	0c 94 ce 1e 	jmp	0x3d9c	; 0x3d9c <__fp_inf>
    3ef8:	0c 94 19 1f 	jmp	0x3e32	; 0x3e32 <__fp_szero>
    3efc:	5f 3f       	cpi	r21, 0xFF	; 255
    3efe:	e4 f3       	brlt	.-8      	; 0x3ef8 <__mulsf3_pse+0x84>
    3f00:	98 3e       	cpi	r25, 0xE8	; 232
    3f02:	d4 f3       	brlt	.-12     	; 0x3ef8 <__mulsf3_pse+0x84>
    3f04:	86 95       	lsr	r24
    3f06:	77 95       	ror	r23
    3f08:	67 95       	ror	r22
    3f0a:	b7 95       	ror	r27
    3f0c:	f7 95       	ror	r31
    3f0e:	e7 95       	ror	r30
    3f10:	9f 5f       	subi	r25, 0xFF	; 255
    3f12:	c1 f7       	brne	.-16     	; 0x3f04 <__mulsf3_pse+0x90>
    3f14:	fe 2b       	or	r31, r30
    3f16:	88 0f       	add	r24, r24
    3f18:	91 1d       	adc	r25, r1
    3f1a:	96 95       	lsr	r25
    3f1c:	87 95       	ror	r24
    3f1e:	97 f9       	bld	r25, 7
    3f20:	08 95       	ret

00003f22 <vfprintf>:
    3f22:	a0 e1       	ldi	r26, 0x10	; 16
    3f24:	b0 e0       	ldi	r27, 0x00	; 0
    3f26:	e7 e9       	ldi	r30, 0x97	; 151
    3f28:	ff e1       	ldi	r31, 0x1F	; 31
    3f2a:	0c 94 52 23 	jmp	0x46a4	; 0x46a4 <__prologue_saves__>
    3f2e:	7c 01       	movw	r14, r24
    3f30:	1b 01       	movw	r2, r22
    3f32:	6a 01       	movw	r12, r20
    3f34:	fc 01       	movw	r30, r24
    3f36:	16 82       	std	Z+6, r1	; 0x06
    3f38:	17 82       	std	Z+7, r1	; 0x07
    3f3a:	83 81       	ldd	r24, Z+3	; 0x03
    3f3c:	81 ff       	sbrs	r24, 1
    3f3e:	44 c3       	rjmp	.+1672   	; 0x45c8 <__RODATA_PM_OFFSET__+0x5c8>
    3f40:	9e 01       	movw	r18, r28
    3f42:	2f 5f       	subi	r18, 0xFF	; 255
    3f44:	3f 4f       	sbci	r19, 0xFF	; 255
    3f46:	39 01       	movw	r6, r18
    3f48:	f7 01       	movw	r30, r14
    3f4a:	93 81       	ldd	r25, Z+3	; 0x03
    3f4c:	f1 01       	movw	r30, r2
    3f4e:	93 fd       	sbrc	r25, 3
    3f50:	85 91       	lpm	r24, Z+
    3f52:	93 ff       	sbrs	r25, 3
    3f54:	81 91       	ld	r24, Z+
    3f56:	1f 01       	movw	r2, r30
    3f58:	88 23       	and	r24, r24
    3f5a:	09 f4       	brne	.+2      	; 0x3f5e <vfprintf+0x3c>
    3f5c:	31 c3       	rjmp	.+1634   	; 0x45c0 <__RODATA_PM_OFFSET__+0x5c0>
    3f5e:	85 32       	cpi	r24, 0x25	; 37
    3f60:	39 f4       	brne	.+14     	; 0x3f70 <vfprintf+0x4e>
    3f62:	93 fd       	sbrc	r25, 3
    3f64:	85 91       	lpm	r24, Z+
    3f66:	93 ff       	sbrs	r25, 3
    3f68:	81 91       	ld	r24, Z+
    3f6a:	1f 01       	movw	r2, r30
    3f6c:	85 32       	cpi	r24, 0x25	; 37
    3f6e:	39 f4       	brne	.+14     	; 0x3f7e <vfprintf+0x5c>
    3f70:	b7 01       	movw	r22, r14
    3f72:	90 e0       	ldi	r25, 0x00	; 0
    3f74:	0e 94 04 25 	call	0x4a08	; 0x4a08 <fputc>
    3f78:	56 01       	movw	r10, r12
    3f7a:	65 01       	movw	r12, r10
    3f7c:	e5 cf       	rjmp	.-54     	; 0x3f48 <vfprintf+0x26>
    3f7e:	10 e0       	ldi	r17, 0x00	; 0
    3f80:	51 2c       	mov	r5, r1
    3f82:	91 2c       	mov	r9, r1
    3f84:	ff e1       	ldi	r31, 0x1F	; 31
    3f86:	f9 15       	cp	r31, r9
    3f88:	d8 f0       	brcs	.+54     	; 0x3fc0 <vfprintf+0x9e>
    3f8a:	8b 32       	cpi	r24, 0x2B	; 43
    3f8c:	79 f0       	breq	.+30     	; 0x3fac <vfprintf+0x8a>
    3f8e:	38 f4       	brcc	.+14     	; 0x3f9e <vfprintf+0x7c>
    3f90:	80 32       	cpi	r24, 0x20	; 32
    3f92:	79 f0       	breq	.+30     	; 0x3fb2 <vfprintf+0x90>
    3f94:	83 32       	cpi	r24, 0x23	; 35
    3f96:	a1 f4       	brne	.+40     	; 0x3fc0 <vfprintf+0x9e>
    3f98:	f9 2d       	mov	r31, r9
    3f9a:	f0 61       	ori	r31, 0x10	; 16
    3f9c:	2e c0       	rjmp	.+92     	; 0x3ffa <vfprintf+0xd8>
    3f9e:	8d 32       	cpi	r24, 0x2D	; 45
    3fa0:	61 f0       	breq	.+24     	; 0x3fba <vfprintf+0x98>
    3fa2:	80 33       	cpi	r24, 0x30	; 48
    3fa4:	69 f4       	brne	.+26     	; 0x3fc0 <vfprintf+0x9e>
    3fa6:	29 2d       	mov	r18, r9
    3fa8:	21 60       	ori	r18, 0x01	; 1
    3faa:	2d c0       	rjmp	.+90     	; 0x4006 <__RODATA_PM_OFFSET__+0x6>
    3fac:	39 2d       	mov	r19, r9
    3fae:	32 60       	ori	r19, 0x02	; 2
    3fb0:	93 2e       	mov	r9, r19
    3fb2:	89 2d       	mov	r24, r9
    3fb4:	84 60       	ori	r24, 0x04	; 4
    3fb6:	98 2e       	mov	r9, r24
    3fb8:	2a c0       	rjmp	.+84     	; 0x400e <__RODATA_PM_OFFSET__+0xe>
    3fba:	e9 2d       	mov	r30, r9
    3fbc:	e8 60       	ori	r30, 0x08	; 8
    3fbe:	15 c0       	rjmp	.+42     	; 0x3fea <vfprintf+0xc8>
    3fc0:	97 fc       	sbrc	r9, 7
    3fc2:	2d c0       	rjmp	.+90     	; 0x401e <__RODATA_PM_OFFSET__+0x1e>
    3fc4:	20 ed       	ldi	r18, 0xD0	; 208
    3fc6:	28 0f       	add	r18, r24
    3fc8:	2a 30       	cpi	r18, 0x0A	; 10
    3fca:	88 f4       	brcc	.+34     	; 0x3fee <vfprintf+0xcc>
    3fcc:	96 fe       	sbrs	r9, 6
    3fce:	06 c0       	rjmp	.+12     	; 0x3fdc <vfprintf+0xba>
    3fd0:	3a e0       	ldi	r19, 0x0A	; 10
    3fd2:	13 9f       	mul	r17, r19
    3fd4:	20 0d       	add	r18, r0
    3fd6:	11 24       	eor	r1, r1
    3fd8:	12 2f       	mov	r17, r18
    3fda:	19 c0       	rjmp	.+50     	; 0x400e <__RODATA_PM_OFFSET__+0xe>
    3fdc:	8a e0       	ldi	r24, 0x0A	; 10
    3fde:	58 9e       	mul	r5, r24
    3fe0:	20 0d       	add	r18, r0
    3fe2:	11 24       	eor	r1, r1
    3fe4:	52 2e       	mov	r5, r18
    3fe6:	e9 2d       	mov	r30, r9
    3fe8:	e0 62       	ori	r30, 0x20	; 32
    3fea:	9e 2e       	mov	r9, r30
    3fec:	10 c0       	rjmp	.+32     	; 0x400e <__RODATA_PM_OFFSET__+0xe>
    3fee:	8e 32       	cpi	r24, 0x2E	; 46
    3ff0:	31 f4       	brne	.+12     	; 0x3ffe <vfprintf+0xdc>
    3ff2:	96 fc       	sbrc	r9, 6
    3ff4:	e5 c2       	rjmp	.+1482   	; 0x45c0 <__RODATA_PM_OFFSET__+0x5c0>
    3ff6:	f9 2d       	mov	r31, r9
    3ff8:	f0 64       	ori	r31, 0x40	; 64
    3ffa:	9f 2e       	mov	r9, r31
    3ffc:	08 c0       	rjmp	.+16     	; 0x400e <__RODATA_PM_OFFSET__+0xe>
    3ffe:	8c 36       	cpi	r24, 0x6C	; 108
    4000:	21 f4       	brne	.+8      	; 0x400a <__RODATA_PM_OFFSET__+0xa>
    4002:	29 2d       	mov	r18, r9
    4004:	20 68       	ori	r18, 0x80	; 128
    4006:	92 2e       	mov	r9, r18
    4008:	02 c0       	rjmp	.+4      	; 0x400e <__RODATA_PM_OFFSET__+0xe>
    400a:	88 36       	cpi	r24, 0x68	; 104
    400c:	41 f4       	brne	.+16     	; 0x401e <__RODATA_PM_OFFSET__+0x1e>
    400e:	f1 01       	movw	r30, r2
    4010:	93 fd       	sbrc	r25, 3
    4012:	85 91       	lpm	r24, Z+
    4014:	93 ff       	sbrs	r25, 3
    4016:	81 91       	ld	r24, Z+
    4018:	1f 01       	movw	r2, r30
    401a:	81 11       	cpse	r24, r1
    401c:	b3 cf       	rjmp	.-154    	; 0x3f84 <vfprintf+0x62>
    401e:	9b eb       	ldi	r25, 0xBB	; 187
    4020:	98 0f       	add	r25, r24
    4022:	93 30       	cpi	r25, 0x03	; 3
    4024:	20 f4       	brcc	.+8      	; 0x402e <__RODATA_PM_OFFSET__+0x2e>
    4026:	99 2d       	mov	r25, r9
    4028:	90 61       	ori	r25, 0x10	; 16
    402a:	80 5e       	subi	r24, 0xE0	; 224
    402c:	07 c0       	rjmp	.+14     	; 0x403c <__RODATA_PM_OFFSET__+0x3c>
    402e:	9b e9       	ldi	r25, 0x9B	; 155
    4030:	98 0f       	add	r25, r24
    4032:	93 30       	cpi	r25, 0x03	; 3
    4034:	08 f0       	brcs	.+2      	; 0x4038 <__RODATA_PM_OFFSET__+0x38>
    4036:	66 c1       	rjmp	.+716    	; 0x4304 <__RODATA_PM_OFFSET__+0x304>
    4038:	99 2d       	mov	r25, r9
    403a:	9f 7e       	andi	r25, 0xEF	; 239
    403c:	96 ff       	sbrs	r25, 6
    403e:	16 e0       	ldi	r17, 0x06	; 6
    4040:	9f 73       	andi	r25, 0x3F	; 63
    4042:	99 2e       	mov	r9, r25
    4044:	85 36       	cpi	r24, 0x65	; 101
    4046:	19 f4       	brne	.+6      	; 0x404e <__RODATA_PM_OFFSET__+0x4e>
    4048:	90 64       	ori	r25, 0x40	; 64
    404a:	99 2e       	mov	r9, r25
    404c:	08 c0       	rjmp	.+16     	; 0x405e <__RODATA_PM_OFFSET__+0x5e>
    404e:	86 36       	cpi	r24, 0x66	; 102
    4050:	21 f4       	brne	.+8      	; 0x405a <__RODATA_PM_OFFSET__+0x5a>
    4052:	39 2f       	mov	r19, r25
    4054:	30 68       	ori	r19, 0x80	; 128
    4056:	93 2e       	mov	r9, r19
    4058:	02 c0       	rjmp	.+4      	; 0x405e <__RODATA_PM_OFFSET__+0x5e>
    405a:	11 11       	cpse	r17, r1
    405c:	11 50       	subi	r17, 0x01	; 1
    405e:	97 fe       	sbrs	r9, 7
    4060:	07 c0       	rjmp	.+14     	; 0x4070 <__RODATA_PM_OFFSET__+0x70>
    4062:	1c 33       	cpi	r17, 0x3C	; 60
    4064:	50 f4       	brcc	.+20     	; 0x407a <__RODATA_PM_OFFSET__+0x7a>
    4066:	44 24       	eor	r4, r4
    4068:	43 94       	inc	r4
    406a:	41 0e       	add	r4, r17
    406c:	27 e0       	ldi	r18, 0x07	; 7
    406e:	0b c0       	rjmp	.+22     	; 0x4086 <__RODATA_PM_OFFSET__+0x86>
    4070:	18 30       	cpi	r17, 0x08	; 8
    4072:	38 f0       	brcs	.+14     	; 0x4082 <__RODATA_PM_OFFSET__+0x82>
    4074:	27 e0       	ldi	r18, 0x07	; 7
    4076:	17 e0       	ldi	r17, 0x07	; 7
    4078:	05 c0       	rjmp	.+10     	; 0x4084 <__RODATA_PM_OFFSET__+0x84>
    407a:	27 e0       	ldi	r18, 0x07	; 7
    407c:	9c e3       	ldi	r25, 0x3C	; 60
    407e:	49 2e       	mov	r4, r25
    4080:	02 c0       	rjmp	.+4      	; 0x4086 <__RODATA_PM_OFFSET__+0x86>
    4082:	21 2f       	mov	r18, r17
    4084:	41 2c       	mov	r4, r1
    4086:	56 01       	movw	r10, r12
    4088:	84 e0       	ldi	r24, 0x04	; 4
    408a:	a8 0e       	add	r10, r24
    408c:	b1 1c       	adc	r11, r1
    408e:	f6 01       	movw	r30, r12
    4090:	60 81       	ld	r22, Z
    4092:	71 81       	ldd	r23, Z+1	; 0x01
    4094:	82 81       	ldd	r24, Z+2	; 0x02
    4096:	93 81       	ldd	r25, Z+3	; 0x03
    4098:	04 2d       	mov	r16, r4
    409a:	a3 01       	movw	r20, r6
    409c:	0e 94 ef 23 	call	0x47de	; 0x47de <__ftoa_engine>
    40a0:	6c 01       	movw	r12, r24
    40a2:	f9 81       	ldd	r31, Y+1	; 0x01
    40a4:	fc 87       	std	Y+12, r31	; 0x0c
    40a6:	f0 ff       	sbrs	r31, 0
    40a8:	02 c0       	rjmp	.+4      	; 0x40ae <__RODATA_PM_OFFSET__+0xae>
    40aa:	f3 ff       	sbrs	r31, 3
    40ac:	06 c0       	rjmp	.+12     	; 0x40ba <__RODATA_PM_OFFSET__+0xba>
    40ae:	91 fc       	sbrc	r9, 1
    40b0:	06 c0       	rjmp	.+12     	; 0x40be <__RODATA_PM_OFFSET__+0xbe>
    40b2:	92 fe       	sbrs	r9, 2
    40b4:	06 c0       	rjmp	.+12     	; 0x40c2 <__RODATA_PM_OFFSET__+0xc2>
    40b6:	00 e2       	ldi	r16, 0x20	; 32
    40b8:	05 c0       	rjmp	.+10     	; 0x40c4 <__RODATA_PM_OFFSET__+0xc4>
    40ba:	0d e2       	ldi	r16, 0x2D	; 45
    40bc:	03 c0       	rjmp	.+6      	; 0x40c4 <__RODATA_PM_OFFSET__+0xc4>
    40be:	0b e2       	ldi	r16, 0x2B	; 43
    40c0:	01 c0       	rjmp	.+2      	; 0x40c4 <__RODATA_PM_OFFSET__+0xc4>
    40c2:	00 e0       	ldi	r16, 0x00	; 0
    40c4:	8c 85       	ldd	r24, Y+12	; 0x0c
    40c6:	8c 70       	andi	r24, 0x0C	; 12
    40c8:	19 f0       	breq	.+6      	; 0x40d0 <__RODATA_PM_OFFSET__+0xd0>
    40ca:	01 11       	cpse	r16, r1
    40cc:	5a c2       	rjmp	.+1204   	; 0x4582 <__RODATA_PM_OFFSET__+0x582>
    40ce:	9b c2       	rjmp	.+1334   	; 0x4606 <__RODATA_PM_OFFSET__+0x606>
    40d0:	97 fe       	sbrs	r9, 7
    40d2:	10 c0       	rjmp	.+32     	; 0x40f4 <__RODATA_PM_OFFSET__+0xf4>
    40d4:	4c 0c       	add	r4, r12
    40d6:	fc 85       	ldd	r31, Y+12	; 0x0c
    40d8:	f4 ff       	sbrs	r31, 4
    40da:	04 c0       	rjmp	.+8      	; 0x40e4 <__RODATA_PM_OFFSET__+0xe4>
    40dc:	8a 81       	ldd	r24, Y+2	; 0x02
    40de:	81 33       	cpi	r24, 0x31	; 49
    40e0:	09 f4       	brne	.+2      	; 0x40e4 <__RODATA_PM_OFFSET__+0xe4>
    40e2:	4a 94       	dec	r4
    40e4:	14 14       	cp	r1, r4
    40e6:	74 f5       	brge	.+92     	; 0x4144 <__RODATA_PM_OFFSET__+0x144>
    40e8:	28 e0       	ldi	r18, 0x08	; 8
    40ea:	24 15       	cp	r18, r4
    40ec:	78 f5       	brcc	.+94     	; 0x414c <__RODATA_PM_OFFSET__+0x14c>
    40ee:	88 e0       	ldi	r24, 0x08	; 8
    40f0:	48 2e       	mov	r4, r24
    40f2:	2c c0       	rjmp	.+88     	; 0x414c <__RODATA_PM_OFFSET__+0x14c>
    40f4:	96 fc       	sbrc	r9, 6
    40f6:	2a c0       	rjmp	.+84     	; 0x414c <__RODATA_PM_OFFSET__+0x14c>
    40f8:	81 2f       	mov	r24, r17
    40fa:	90 e0       	ldi	r25, 0x00	; 0
    40fc:	8c 15       	cp	r24, r12
    40fe:	9d 05       	cpc	r25, r13
    4100:	9c f0       	brlt	.+38     	; 0x4128 <__RODATA_PM_OFFSET__+0x128>
    4102:	3c ef       	ldi	r19, 0xFC	; 252
    4104:	c3 16       	cp	r12, r19
    4106:	3f ef       	ldi	r19, 0xFF	; 255
    4108:	d3 06       	cpc	r13, r19
    410a:	74 f0       	brlt	.+28     	; 0x4128 <__RODATA_PM_OFFSET__+0x128>
    410c:	89 2d       	mov	r24, r9
    410e:	80 68       	ori	r24, 0x80	; 128
    4110:	98 2e       	mov	r9, r24
    4112:	0a c0       	rjmp	.+20     	; 0x4128 <__RODATA_PM_OFFSET__+0x128>
    4114:	e2 e0       	ldi	r30, 0x02	; 2
    4116:	f0 e0       	ldi	r31, 0x00	; 0
    4118:	ec 0f       	add	r30, r28
    411a:	fd 1f       	adc	r31, r29
    411c:	e1 0f       	add	r30, r17
    411e:	f1 1d       	adc	r31, r1
    4120:	80 81       	ld	r24, Z
    4122:	80 33       	cpi	r24, 0x30	; 48
    4124:	19 f4       	brne	.+6      	; 0x412c <__RODATA_PM_OFFSET__+0x12c>
    4126:	11 50       	subi	r17, 0x01	; 1
    4128:	11 11       	cpse	r17, r1
    412a:	f4 cf       	rjmp	.-24     	; 0x4114 <__RODATA_PM_OFFSET__+0x114>
    412c:	97 fe       	sbrs	r9, 7
    412e:	0e c0       	rjmp	.+28     	; 0x414c <__RODATA_PM_OFFSET__+0x14c>
    4130:	44 24       	eor	r4, r4
    4132:	43 94       	inc	r4
    4134:	41 0e       	add	r4, r17
    4136:	81 2f       	mov	r24, r17
    4138:	90 e0       	ldi	r25, 0x00	; 0
    413a:	c8 16       	cp	r12, r24
    413c:	d9 06       	cpc	r13, r25
    413e:	2c f4       	brge	.+10     	; 0x414a <__RODATA_PM_OFFSET__+0x14a>
    4140:	1c 19       	sub	r17, r12
    4142:	04 c0       	rjmp	.+8      	; 0x414c <__RODATA_PM_OFFSET__+0x14c>
    4144:	44 24       	eor	r4, r4
    4146:	43 94       	inc	r4
    4148:	01 c0       	rjmp	.+2      	; 0x414c <__RODATA_PM_OFFSET__+0x14c>
    414a:	10 e0       	ldi	r17, 0x00	; 0
    414c:	97 fe       	sbrs	r9, 7
    414e:	06 c0       	rjmp	.+12     	; 0x415c <__RODATA_PM_OFFSET__+0x15c>
    4150:	1c 14       	cp	r1, r12
    4152:	1d 04       	cpc	r1, r13
    4154:	34 f4       	brge	.+12     	; 0x4162 <__RODATA_PM_OFFSET__+0x162>
    4156:	c6 01       	movw	r24, r12
    4158:	01 96       	adiw	r24, 0x01	; 1
    415a:	05 c0       	rjmp	.+10     	; 0x4166 <__RODATA_PM_OFFSET__+0x166>
    415c:	85 e0       	ldi	r24, 0x05	; 5
    415e:	90 e0       	ldi	r25, 0x00	; 0
    4160:	02 c0       	rjmp	.+4      	; 0x4166 <__RODATA_PM_OFFSET__+0x166>
    4162:	81 e0       	ldi	r24, 0x01	; 1
    4164:	90 e0       	ldi	r25, 0x00	; 0
    4166:	01 11       	cpse	r16, r1
    4168:	01 96       	adiw	r24, 0x01	; 1
    416a:	11 23       	and	r17, r17
    416c:	31 f0       	breq	.+12     	; 0x417a <__RODATA_PM_OFFSET__+0x17a>
    416e:	21 2f       	mov	r18, r17
    4170:	30 e0       	ldi	r19, 0x00	; 0
    4172:	2f 5f       	subi	r18, 0xFF	; 255
    4174:	3f 4f       	sbci	r19, 0xFF	; 255
    4176:	82 0f       	add	r24, r18
    4178:	93 1f       	adc	r25, r19
    417a:	25 2d       	mov	r18, r5
    417c:	30 e0       	ldi	r19, 0x00	; 0
    417e:	82 17       	cp	r24, r18
    4180:	93 07       	cpc	r25, r19
    4182:	14 f4       	brge	.+4      	; 0x4188 <__RODATA_PM_OFFSET__+0x188>
    4184:	58 1a       	sub	r5, r24
    4186:	01 c0       	rjmp	.+2      	; 0x418a <__RODATA_PM_OFFSET__+0x18a>
    4188:	51 2c       	mov	r5, r1
    418a:	89 2d       	mov	r24, r9
    418c:	89 70       	andi	r24, 0x09	; 9
    418e:	49 f4       	brne	.+18     	; 0x41a2 <__RODATA_PM_OFFSET__+0x1a2>
    4190:	55 20       	and	r5, r5
    4192:	39 f0       	breq	.+14     	; 0x41a2 <__RODATA_PM_OFFSET__+0x1a2>
    4194:	b7 01       	movw	r22, r14
    4196:	80 e2       	ldi	r24, 0x20	; 32
    4198:	90 e0       	ldi	r25, 0x00	; 0
    419a:	0e 94 04 25 	call	0x4a08	; 0x4a08 <fputc>
    419e:	5a 94       	dec	r5
    41a0:	f7 cf       	rjmp	.-18     	; 0x4190 <__RODATA_PM_OFFSET__+0x190>
    41a2:	00 23       	and	r16, r16
    41a4:	29 f0       	breq	.+10     	; 0x41b0 <__RODATA_PM_OFFSET__+0x1b0>
    41a6:	b7 01       	movw	r22, r14
    41a8:	80 2f       	mov	r24, r16
    41aa:	90 e0       	ldi	r25, 0x00	; 0
    41ac:	0e 94 04 25 	call	0x4a08	; 0x4a08 <fputc>
    41b0:	93 fc       	sbrc	r9, 3
    41b2:	09 c0       	rjmp	.+18     	; 0x41c6 <__RODATA_PM_OFFSET__+0x1c6>
    41b4:	55 20       	and	r5, r5
    41b6:	39 f0       	breq	.+14     	; 0x41c6 <__RODATA_PM_OFFSET__+0x1c6>
    41b8:	b7 01       	movw	r22, r14
    41ba:	80 e3       	ldi	r24, 0x30	; 48
    41bc:	90 e0       	ldi	r25, 0x00	; 0
    41be:	0e 94 04 25 	call	0x4a08	; 0x4a08 <fputc>
    41c2:	5a 94       	dec	r5
    41c4:	f7 cf       	rjmp	.-18     	; 0x41b4 <__RODATA_PM_OFFSET__+0x1b4>
    41c6:	97 fe       	sbrs	r9, 7
    41c8:	4c c0       	rjmp	.+152    	; 0x4262 <__RODATA_PM_OFFSET__+0x262>
    41ca:	46 01       	movw	r8, r12
    41cc:	d7 fe       	sbrs	r13, 7
    41ce:	02 c0       	rjmp	.+4      	; 0x41d4 <__RODATA_PM_OFFSET__+0x1d4>
    41d0:	81 2c       	mov	r8, r1
    41d2:	91 2c       	mov	r9, r1
    41d4:	c6 01       	movw	r24, r12
    41d6:	88 19       	sub	r24, r8
    41d8:	99 09       	sbc	r25, r9
    41da:	f3 01       	movw	r30, r6
    41dc:	e8 0f       	add	r30, r24
    41de:	f9 1f       	adc	r31, r25
    41e0:	ed 87       	std	Y+13, r30	; 0x0d
    41e2:	fe 87       	std	Y+14, r31	; 0x0e
    41e4:	96 01       	movw	r18, r12
    41e6:	24 19       	sub	r18, r4
    41e8:	31 09       	sbc	r19, r1
    41ea:	2f 87       	std	Y+15, r18	; 0x0f
    41ec:	38 8b       	std	Y+16, r19	; 0x10
    41ee:	01 2f       	mov	r16, r17
    41f0:	10 e0       	ldi	r17, 0x00	; 0
    41f2:	11 95       	neg	r17
    41f4:	01 95       	neg	r16
    41f6:	11 09       	sbc	r17, r1
    41f8:	3f ef       	ldi	r19, 0xFF	; 255
    41fa:	83 16       	cp	r8, r19
    41fc:	93 06       	cpc	r9, r19
    41fe:	29 f4       	brne	.+10     	; 0x420a <__RODATA_PM_OFFSET__+0x20a>
    4200:	b7 01       	movw	r22, r14
    4202:	8e e2       	ldi	r24, 0x2E	; 46
    4204:	90 e0       	ldi	r25, 0x00	; 0
    4206:	0e 94 04 25 	call	0x4a08	; 0x4a08 <fputc>
    420a:	c8 14       	cp	r12, r8
    420c:	d9 04       	cpc	r13, r9
    420e:	4c f0       	brlt	.+18     	; 0x4222 <__RODATA_PM_OFFSET__+0x222>
    4210:	8f 85       	ldd	r24, Y+15	; 0x0f
    4212:	98 89       	ldd	r25, Y+16	; 0x10
    4214:	88 15       	cp	r24, r8
    4216:	99 05       	cpc	r25, r9
    4218:	24 f4       	brge	.+8      	; 0x4222 <__RODATA_PM_OFFSET__+0x222>
    421a:	ed 85       	ldd	r30, Y+13	; 0x0d
    421c:	fe 85       	ldd	r31, Y+14	; 0x0e
    421e:	81 81       	ldd	r24, Z+1	; 0x01
    4220:	01 c0       	rjmp	.+2      	; 0x4224 <__RODATA_PM_OFFSET__+0x224>
    4222:	80 e3       	ldi	r24, 0x30	; 48
    4224:	f1 e0       	ldi	r31, 0x01	; 1
    4226:	8f 1a       	sub	r8, r31
    4228:	91 08       	sbc	r9, r1
    422a:	2d 85       	ldd	r18, Y+13	; 0x0d
    422c:	3e 85       	ldd	r19, Y+14	; 0x0e
    422e:	2f 5f       	subi	r18, 0xFF	; 255
    4230:	3f 4f       	sbci	r19, 0xFF	; 255
    4232:	2d 87       	std	Y+13, r18	; 0x0d
    4234:	3e 87       	std	Y+14, r19	; 0x0e
    4236:	80 16       	cp	r8, r16
    4238:	91 06       	cpc	r9, r17
    423a:	2c f0       	brlt	.+10     	; 0x4246 <__RODATA_PM_OFFSET__+0x246>
    423c:	b7 01       	movw	r22, r14
    423e:	90 e0       	ldi	r25, 0x00	; 0
    4240:	0e 94 04 25 	call	0x4a08	; 0x4a08 <fputc>
    4244:	d9 cf       	rjmp	.-78     	; 0x41f8 <__RODATA_PM_OFFSET__+0x1f8>
    4246:	c8 14       	cp	r12, r8
    4248:	d9 04       	cpc	r13, r9
    424a:	41 f4       	brne	.+16     	; 0x425c <__RODATA_PM_OFFSET__+0x25c>
    424c:	9a 81       	ldd	r25, Y+2	; 0x02
    424e:	96 33       	cpi	r25, 0x36	; 54
    4250:	20 f4       	brcc	.+8      	; 0x425a <__RODATA_PM_OFFSET__+0x25a>
    4252:	95 33       	cpi	r25, 0x35	; 53
    4254:	19 f4       	brne	.+6      	; 0x425c <__RODATA_PM_OFFSET__+0x25c>
    4256:	3c 85       	ldd	r19, Y+12	; 0x0c
    4258:	34 ff       	sbrs	r19, 4
    425a:	81 e3       	ldi	r24, 0x31	; 49
    425c:	b7 01       	movw	r22, r14
    425e:	90 e0       	ldi	r25, 0x00	; 0
    4260:	4e c0       	rjmp	.+156    	; 0x42fe <__RODATA_PM_OFFSET__+0x2fe>
    4262:	8a 81       	ldd	r24, Y+2	; 0x02
    4264:	81 33       	cpi	r24, 0x31	; 49
    4266:	19 f0       	breq	.+6      	; 0x426e <__RODATA_PM_OFFSET__+0x26e>
    4268:	9c 85       	ldd	r25, Y+12	; 0x0c
    426a:	9f 7e       	andi	r25, 0xEF	; 239
    426c:	9c 87       	std	Y+12, r25	; 0x0c
    426e:	b7 01       	movw	r22, r14
    4270:	90 e0       	ldi	r25, 0x00	; 0
    4272:	0e 94 04 25 	call	0x4a08	; 0x4a08 <fputc>
    4276:	11 11       	cpse	r17, r1
    4278:	05 c0       	rjmp	.+10     	; 0x4284 <__RODATA_PM_OFFSET__+0x284>
    427a:	94 fc       	sbrc	r9, 4
    427c:	18 c0       	rjmp	.+48     	; 0x42ae <__RODATA_PM_OFFSET__+0x2ae>
    427e:	85 e6       	ldi	r24, 0x65	; 101
    4280:	90 e0       	ldi	r25, 0x00	; 0
    4282:	17 c0       	rjmp	.+46     	; 0x42b2 <__RODATA_PM_OFFSET__+0x2b2>
    4284:	b7 01       	movw	r22, r14
    4286:	8e e2       	ldi	r24, 0x2E	; 46
    4288:	90 e0       	ldi	r25, 0x00	; 0
    428a:	0e 94 04 25 	call	0x4a08	; 0x4a08 <fputc>
    428e:	1e 5f       	subi	r17, 0xFE	; 254
    4290:	82 e0       	ldi	r24, 0x02	; 2
    4292:	01 e0       	ldi	r16, 0x01	; 1
    4294:	08 0f       	add	r16, r24
    4296:	f3 01       	movw	r30, r6
    4298:	e8 0f       	add	r30, r24
    429a:	f1 1d       	adc	r31, r1
    429c:	80 81       	ld	r24, Z
    429e:	b7 01       	movw	r22, r14
    42a0:	90 e0       	ldi	r25, 0x00	; 0
    42a2:	0e 94 04 25 	call	0x4a08	; 0x4a08 <fputc>
    42a6:	80 2f       	mov	r24, r16
    42a8:	01 13       	cpse	r16, r17
    42aa:	f3 cf       	rjmp	.-26     	; 0x4292 <__RODATA_PM_OFFSET__+0x292>
    42ac:	e6 cf       	rjmp	.-52     	; 0x427a <__RODATA_PM_OFFSET__+0x27a>
    42ae:	85 e4       	ldi	r24, 0x45	; 69
    42b0:	90 e0       	ldi	r25, 0x00	; 0
    42b2:	b7 01       	movw	r22, r14
    42b4:	0e 94 04 25 	call	0x4a08	; 0x4a08 <fputc>
    42b8:	d7 fc       	sbrc	r13, 7
    42ba:	06 c0       	rjmp	.+12     	; 0x42c8 <__RODATA_PM_OFFSET__+0x2c8>
    42bc:	c1 14       	cp	r12, r1
    42be:	d1 04       	cpc	r13, r1
    42c0:	41 f4       	brne	.+16     	; 0x42d2 <__RODATA_PM_OFFSET__+0x2d2>
    42c2:	ec 85       	ldd	r30, Y+12	; 0x0c
    42c4:	e4 ff       	sbrs	r30, 4
    42c6:	05 c0       	rjmp	.+10     	; 0x42d2 <__RODATA_PM_OFFSET__+0x2d2>
    42c8:	d1 94       	neg	r13
    42ca:	c1 94       	neg	r12
    42cc:	d1 08       	sbc	r13, r1
    42ce:	8d e2       	ldi	r24, 0x2D	; 45
    42d0:	01 c0       	rjmp	.+2      	; 0x42d4 <__RODATA_PM_OFFSET__+0x2d4>
    42d2:	8b e2       	ldi	r24, 0x2B	; 43
    42d4:	b7 01       	movw	r22, r14
    42d6:	90 e0       	ldi	r25, 0x00	; 0
    42d8:	0e 94 04 25 	call	0x4a08	; 0x4a08 <fputc>
    42dc:	80 e3       	ldi	r24, 0x30	; 48
    42de:	2a e0       	ldi	r18, 0x0A	; 10
    42e0:	c2 16       	cp	r12, r18
    42e2:	d1 04       	cpc	r13, r1
    42e4:	2c f0       	brlt	.+10     	; 0x42f0 <__RODATA_PM_OFFSET__+0x2f0>
    42e6:	8f 5f       	subi	r24, 0xFF	; 255
    42e8:	fa e0       	ldi	r31, 0x0A	; 10
    42ea:	cf 1a       	sub	r12, r31
    42ec:	d1 08       	sbc	r13, r1
    42ee:	f7 cf       	rjmp	.-18     	; 0x42de <__RODATA_PM_OFFSET__+0x2de>
    42f0:	b7 01       	movw	r22, r14
    42f2:	90 e0       	ldi	r25, 0x00	; 0
    42f4:	0e 94 04 25 	call	0x4a08	; 0x4a08 <fputc>
    42f8:	b7 01       	movw	r22, r14
    42fa:	c6 01       	movw	r24, r12
    42fc:	c0 96       	adiw	r24, 0x30	; 48
    42fe:	0e 94 04 25 	call	0x4a08	; 0x4a08 <fputc>
    4302:	54 c1       	rjmp	.+680    	; 0x45ac <__RODATA_PM_OFFSET__+0x5ac>
    4304:	83 36       	cpi	r24, 0x63	; 99
    4306:	31 f0       	breq	.+12     	; 0x4314 <__RODATA_PM_OFFSET__+0x314>
    4308:	83 37       	cpi	r24, 0x73	; 115
    430a:	79 f0       	breq	.+30     	; 0x432a <__RODATA_PM_OFFSET__+0x32a>
    430c:	83 35       	cpi	r24, 0x53	; 83
    430e:	09 f0       	breq	.+2      	; 0x4312 <__RODATA_PM_OFFSET__+0x312>
    4310:	56 c0       	rjmp	.+172    	; 0x43be <__RODATA_PM_OFFSET__+0x3be>
    4312:	20 c0       	rjmp	.+64     	; 0x4354 <__RODATA_PM_OFFSET__+0x354>
    4314:	56 01       	movw	r10, r12
    4316:	32 e0       	ldi	r19, 0x02	; 2
    4318:	a3 0e       	add	r10, r19
    431a:	b1 1c       	adc	r11, r1
    431c:	f6 01       	movw	r30, r12
    431e:	80 81       	ld	r24, Z
    4320:	89 83       	std	Y+1, r24	; 0x01
    4322:	01 e0       	ldi	r16, 0x01	; 1
    4324:	10 e0       	ldi	r17, 0x00	; 0
    4326:	63 01       	movw	r12, r6
    4328:	12 c0       	rjmp	.+36     	; 0x434e <__RODATA_PM_OFFSET__+0x34e>
    432a:	56 01       	movw	r10, r12
    432c:	f2 e0       	ldi	r31, 0x02	; 2
    432e:	af 0e       	add	r10, r31
    4330:	b1 1c       	adc	r11, r1
    4332:	f6 01       	movw	r30, r12
    4334:	c0 80       	ld	r12, Z
    4336:	d1 80       	ldd	r13, Z+1	; 0x01
    4338:	96 fe       	sbrs	r9, 6
    433a:	03 c0       	rjmp	.+6      	; 0x4342 <__RODATA_PM_OFFSET__+0x342>
    433c:	61 2f       	mov	r22, r17
    433e:	70 e0       	ldi	r23, 0x00	; 0
    4340:	02 c0       	rjmp	.+4      	; 0x4346 <__RODATA_PM_OFFSET__+0x346>
    4342:	6f ef       	ldi	r22, 0xFF	; 255
    4344:	7f ef       	ldi	r23, 0xFF	; 255
    4346:	c6 01       	movw	r24, r12
    4348:	0e 94 e4 24 	call	0x49c8	; 0x49c8 <strnlen>
    434c:	8c 01       	movw	r16, r24
    434e:	f9 2d       	mov	r31, r9
    4350:	ff 77       	andi	r31, 0x7F	; 127
    4352:	14 c0       	rjmp	.+40     	; 0x437c <__RODATA_PM_OFFSET__+0x37c>
    4354:	56 01       	movw	r10, r12
    4356:	22 e0       	ldi	r18, 0x02	; 2
    4358:	a2 0e       	add	r10, r18
    435a:	b1 1c       	adc	r11, r1
    435c:	f6 01       	movw	r30, r12
    435e:	c0 80       	ld	r12, Z
    4360:	d1 80       	ldd	r13, Z+1	; 0x01
    4362:	96 fe       	sbrs	r9, 6
    4364:	03 c0       	rjmp	.+6      	; 0x436c <__RODATA_PM_OFFSET__+0x36c>
    4366:	61 2f       	mov	r22, r17
    4368:	70 e0       	ldi	r23, 0x00	; 0
    436a:	02 c0       	rjmp	.+4      	; 0x4370 <__RODATA_PM_OFFSET__+0x370>
    436c:	6f ef       	ldi	r22, 0xFF	; 255
    436e:	7f ef       	ldi	r23, 0xFF	; 255
    4370:	c6 01       	movw	r24, r12
    4372:	0e 94 c7 24 	call	0x498e	; 0x498e <strnlen_P>
    4376:	8c 01       	movw	r16, r24
    4378:	f9 2d       	mov	r31, r9
    437a:	f0 68       	ori	r31, 0x80	; 128
    437c:	9f 2e       	mov	r9, r31
    437e:	f3 fd       	sbrc	r31, 3
    4380:	1a c0       	rjmp	.+52     	; 0x43b6 <__RODATA_PM_OFFSET__+0x3b6>
    4382:	85 2d       	mov	r24, r5
    4384:	90 e0       	ldi	r25, 0x00	; 0
    4386:	08 17       	cp	r16, r24
    4388:	19 07       	cpc	r17, r25
    438a:	a8 f4       	brcc	.+42     	; 0x43b6 <__RODATA_PM_OFFSET__+0x3b6>
    438c:	b7 01       	movw	r22, r14
    438e:	80 e2       	ldi	r24, 0x20	; 32
    4390:	90 e0       	ldi	r25, 0x00	; 0
    4392:	0e 94 04 25 	call	0x4a08	; 0x4a08 <fputc>
    4396:	5a 94       	dec	r5
    4398:	f4 cf       	rjmp	.-24     	; 0x4382 <__RODATA_PM_OFFSET__+0x382>
    439a:	f6 01       	movw	r30, r12
    439c:	97 fc       	sbrc	r9, 7
    439e:	85 91       	lpm	r24, Z+
    43a0:	97 fe       	sbrs	r9, 7
    43a2:	81 91       	ld	r24, Z+
    43a4:	6f 01       	movw	r12, r30
    43a6:	b7 01       	movw	r22, r14
    43a8:	90 e0       	ldi	r25, 0x00	; 0
    43aa:	0e 94 04 25 	call	0x4a08	; 0x4a08 <fputc>
    43ae:	51 10       	cpse	r5, r1
    43b0:	5a 94       	dec	r5
    43b2:	01 50       	subi	r16, 0x01	; 1
    43b4:	11 09       	sbc	r17, r1
    43b6:	01 15       	cp	r16, r1
    43b8:	11 05       	cpc	r17, r1
    43ba:	79 f7       	brne	.-34     	; 0x439a <__RODATA_PM_OFFSET__+0x39a>
    43bc:	f7 c0       	rjmp	.+494    	; 0x45ac <__RODATA_PM_OFFSET__+0x5ac>
    43be:	84 36       	cpi	r24, 0x64	; 100
    43c0:	11 f0       	breq	.+4      	; 0x43c6 <__RODATA_PM_OFFSET__+0x3c6>
    43c2:	89 36       	cpi	r24, 0x69	; 105
    43c4:	61 f5       	brne	.+88     	; 0x441e <__RODATA_PM_OFFSET__+0x41e>
    43c6:	56 01       	movw	r10, r12
    43c8:	97 fe       	sbrs	r9, 7
    43ca:	09 c0       	rjmp	.+18     	; 0x43de <__RODATA_PM_OFFSET__+0x3de>
    43cc:	24 e0       	ldi	r18, 0x04	; 4
    43ce:	a2 0e       	add	r10, r18
    43d0:	b1 1c       	adc	r11, r1
    43d2:	f6 01       	movw	r30, r12
    43d4:	60 81       	ld	r22, Z
    43d6:	71 81       	ldd	r23, Z+1	; 0x01
    43d8:	82 81       	ldd	r24, Z+2	; 0x02
    43da:	93 81       	ldd	r25, Z+3	; 0x03
    43dc:	0a c0       	rjmp	.+20     	; 0x43f2 <__RODATA_PM_OFFSET__+0x3f2>
    43de:	f2 e0       	ldi	r31, 0x02	; 2
    43e0:	af 0e       	add	r10, r31
    43e2:	b1 1c       	adc	r11, r1
    43e4:	f6 01       	movw	r30, r12
    43e6:	60 81       	ld	r22, Z
    43e8:	71 81       	ldd	r23, Z+1	; 0x01
    43ea:	07 2e       	mov	r0, r23
    43ec:	00 0c       	add	r0, r0
    43ee:	88 0b       	sbc	r24, r24
    43f0:	99 0b       	sbc	r25, r25
    43f2:	f9 2d       	mov	r31, r9
    43f4:	ff 76       	andi	r31, 0x6F	; 111
    43f6:	9f 2e       	mov	r9, r31
    43f8:	97 ff       	sbrs	r25, 7
    43fa:	09 c0       	rjmp	.+18     	; 0x440e <__RODATA_PM_OFFSET__+0x40e>
    43fc:	90 95       	com	r25
    43fe:	80 95       	com	r24
    4400:	70 95       	com	r23
    4402:	61 95       	neg	r22
    4404:	7f 4f       	sbci	r23, 0xFF	; 255
    4406:	8f 4f       	sbci	r24, 0xFF	; 255
    4408:	9f 4f       	sbci	r25, 0xFF	; 255
    440a:	f0 68       	ori	r31, 0x80	; 128
    440c:	9f 2e       	mov	r9, r31
    440e:	2a e0       	ldi	r18, 0x0A	; 10
    4410:	30 e0       	ldi	r19, 0x00	; 0
    4412:	a3 01       	movw	r20, r6
    4414:	0e 94 62 25 	call	0x4ac4	; 0x4ac4 <__ultoa_invert>
    4418:	c8 2e       	mov	r12, r24
    441a:	c6 18       	sub	r12, r6
    441c:	3f c0       	rjmp	.+126    	; 0x449c <__RODATA_PM_OFFSET__+0x49c>
    441e:	09 2d       	mov	r16, r9
    4420:	85 37       	cpi	r24, 0x75	; 117
    4422:	21 f4       	brne	.+8      	; 0x442c <__RODATA_PM_OFFSET__+0x42c>
    4424:	0f 7e       	andi	r16, 0xEF	; 239
    4426:	2a e0       	ldi	r18, 0x0A	; 10
    4428:	30 e0       	ldi	r19, 0x00	; 0
    442a:	1d c0       	rjmp	.+58     	; 0x4466 <__RODATA_PM_OFFSET__+0x466>
    442c:	09 7f       	andi	r16, 0xF9	; 249
    442e:	8f 36       	cpi	r24, 0x6F	; 111
    4430:	91 f0       	breq	.+36     	; 0x4456 <__RODATA_PM_OFFSET__+0x456>
    4432:	18 f4       	brcc	.+6      	; 0x443a <__RODATA_PM_OFFSET__+0x43a>
    4434:	88 35       	cpi	r24, 0x58	; 88
    4436:	59 f0       	breq	.+22     	; 0x444e <__RODATA_PM_OFFSET__+0x44e>
    4438:	c3 c0       	rjmp	.+390    	; 0x45c0 <__RODATA_PM_OFFSET__+0x5c0>
    443a:	80 37       	cpi	r24, 0x70	; 112
    443c:	19 f0       	breq	.+6      	; 0x4444 <__RODATA_PM_OFFSET__+0x444>
    443e:	88 37       	cpi	r24, 0x78	; 120
    4440:	11 f0       	breq	.+4      	; 0x4446 <__RODATA_PM_OFFSET__+0x446>
    4442:	be c0       	rjmp	.+380    	; 0x45c0 <__RODATA_PM_OFFSET__+0x5c0>
    4444:	00 61       	ori	r16, 0x10	; 16
    4446:	04 ff       	sbrs	r16, 4
    4448:	09 c0       	rjmp	.+18     	; 0x445c <__RODATA_PM_OFFSET__+0x45c>
    444a:	04 60       	ori	r16, 0x04	; 4
    444c:	07 c0       	rjmp	.+14     	; 0x445c <__RODATA_PM_OFFSET__+0x45c>
    444e:	94 fe       	sbrs	r9, 4
    4450:	08 c0       	rjmp	.+16     	; 0x4462 <__RODATA_PM_OFFSET__+0x462>
    4452:	06 60       	ori	r16, 0x06	; 6
    4454:	06 c0       	rjmp	.+12     	; 0x4462 <__RODATA_PM_OFFSET__+0x462>
    4456:	28 e0       	ldi	r18, 0x08	; 8
    4458:	30 e0       	ldi	r19, 0x00	; 0
    445a:	05 c0       	rjmp	.+10     	; 0x4466 <__RODATA_PM_OFFSET__+0x466>
    445c:	20 e1       	ldi	r18, 0x10	; 16
    445e:	30 e0       	ldi	r19, 0x00	; 0
    4460:	02 c0       	rjmp	.+4      	; 0x4466 <__RODATA_PM_OFFSET__+0x466>
    4462:	20 e1       	ldi	r18, 0x10	; 16
    4464:	32 e0       	ldi	r19, 0x02	; 2
    4466:	56 01       	movw	r10, r12
    4468:	07 ff       	sbrs	r16, 7
    446a:	09 c0       	rjmp	.+18     	; 0x447e <__RODATA_PM_OFFSET__+0x47e>
    446c:	84 e0       	ldi	r24, 0x04	; 4
    446e:	a8 0e       	add	r10, r24
    4470:	b1 1c       	adc	r11, r1
    4472:	f6 01       	movw	r30, r12
    4474:	60 81       	ld	r22, Z
    4476:	71 81       	ldd	r23, Z+1	; 0x01
    4478:	82 81       	ldd	r24, Z+2	; 0x02
    447a:	93 81       	ldd	r25, Z+3	; 0x03
    447c:	08 c0       	rjmp	.+16     	; 0x448e <__RODATA_PM_OFFSET__+0x48e>
    447e:	f2 e0       	ldi	r31, 0x02	; 2
    4480:	af 0e       	add	r10, r31
    4482:	b1 1c       	adc	r11, r1
    4484:	f6 01       	movw	r30, r12
    4486:	60 81       	ld	r22, Z
    4488:	71 81       	ldd	r23, Z+1	; 0x01
    448a:	80 e0       	ldi	r24, 0x00	; 0
    448c:	90 e0       	ldi	r25, 0x00	; 0
    448e:	a3 01       	movw	r20, r6
    4490:	0e 94 62 25 	call	0x4ac4	; 0x4ac4 <__ultoa_invert>
    4494:	c8 2e       	mov	r12, r24
    4496:	c6 18       	sub	r12, r6
    4498:	0f 77       	andi	r16, 0x7F	; 127
    449a:	90 2e       	mov	r9, r16
    449c:	96 fe       	sbrs	r9, 6
    449e:	0b c0       	rjmp	.+22     	; 0x44b6 <__RODATA_PM_OFFSET__+0x4b6>
    44a0:	09 2d       	mov	r16, r9
    44a2:	0e 7f       	andi	r16, 0xFE	; 254
    44a4:	c1 16       	cp	r12, r17
    44a6:	50 f4       	brcc	.+20     	; 0x44bc <__RODATA_PM_OFFSET__+0x4bc>
    44a8:	94 fe       	sbrs	r9, 4
    44aa:	0a c0       	rjmp	.+20     	; 0x44c0 <__RODATA_PM_OFFSET__+0x4c0>
    44ac:	92 fc       	sbrc	r9, 2
    44ae:	08 c0       	rjmp	.+16     	; 0x44c0 <__RODATA_PM_OFFSET__+0x4c0>
    44b0:	09 2d       	mov	r16, r9
    44b2:	0e 7e       	andi	r16, 0xEE	; 238
    44b4:	05 c0       	rjmp	.+10     	; 0x44c0 <__RODATA_PM_OFFSET__+0x4c0>
    44b6:	dc 2c       	mov	r13, r12
    44b8:	09 2d       	mov	r16, r9
    44ba:	03 c0       	rjmp	.+6      	; 0x44c2 <__RODATA_PM_OFFSET__+0x4c2>
    44bc:	dc 2c       	mov	r13, r12
    44be:	01 c0       	rjmp	.+2      	; 0x44c2 <__RODATA_PM_OFFSET__+0x4c2>
    44c0:	d1 2e       	mov	r13, r17
    44c2:	04 ff       	sbrs	r16, 4
    44c4:	0d c0       	rjmp	.+26     	; 0x44e0 <__RODATA_PM_OFFSET__+0x4e0>
    44c6:	fe 01       	movw	r30, r28
    44c8:	ec 0d       	add	r30, r12
    44ca:	f1 1d       	adc	r31, r1
    44cc:	80 81       	ld	r24, Z
    44ce:	80 33       	cpi	r24, 0x30	; 48
    44d0:	11 f4       	brne	.+4      	; 0x44d6 <__RODATA_PM_OFFSET__+0x4d6>
    44d2:	09 7e       	andi	r16, 0xE9	; 233
    44d4:	09 c0       	rjmp	.+18     	; 0x44e8 <__RODATA_PM_OFFSET__+0x4e8>
    44d6:	02 ff       	sbrs	r16, 2
    44d8:	06 c0       	rjmp	.+12     	; 0x44e6 <__RODATA_PM_OFFSET__+0x4e6>
    44da:	d3 94       	inc	r13
    44dc:	d3 94       	inc	r13
    44de:	04 c0       	rjmp	.+8      	; 0x44e8 <__RODATA_PM_OFFSET__+0x4e8>
    44e0:	80 2f       	mov	r24, r16
    44e2:	86 78       	andi	r24, 0x86	; 134
    44e4:	09 f0       	breq	.+2      	; 0x44e8 <__RODATA_PM_OFFSET__+0x4e8>
    44e6:	d3 94       	inc	r13
    44e8:	03 fd       	sbrc	r16, 3
    44ea:	11 c0       	rjmp	.+34     	; 0x450e <__RODATA_PM_OFFSET__+0x50e>
    44ec:	00 ff       	sbrs	r16, 0
    44ee:	06 c0       	rjmp	.+12     	; 0x44fc <__RODATA_PM_OFFSET__+0x4fc>
    44f0:	1c 2d       	mov	r17, r12
    44f2:	d5 14       	cp	r13, r5
    44f4:	80 f4       	brcc	.+32     	; 0x4516 <__RODATA_PM_OFFSET__+0x516>
    44f6:	15 0d       	add	r17, r5
    44f8:	1d 19       	sub	r17, r13
    44fa:	0d c0       	rjmp	.+26     	; 0x4516 <__RODATA_PM_OFFSET__+0x516>
    44fc:	d5 14       	cp	r13, r5
    44fe:	58 f4       	brcc	.+22     	; 0x4516 <__RODATA_PM_OFFSET__+0x516>
    4500:	b7 01       	movw	r22, r14
    4502:	80 e2       	ldi	r24, 0x20	; 32
    4504:	90 e0       	ldi	r25, 0x00	; 0
    4506:	0e 94 04 25 	call	0x4a08	; 0x4a08 <fputc>
    450a:	d3 94       	inc	r13
    450c:	f7 cf       	rjmp	.-18     	; 0x44fc <__RODATA_PM_OFFSET__+0x4fc>
    450e:	d5 14       	cp	r13, r5
    4510:	10 f4       	brcc	.+4      	; 0x4516 <__RODATA_PM_OFFSET__+0x516>
    4512:	5d 18       	sub	r5, r13
    4514:	01 c0       	rjmp	.+2      	; 0x4518 <__RODATA_PM_OFFSET__+0x518>
    4516:	51 2c       	mov	r5, r1
    4518:	04 ff       	sbrs	r16, 4
    451a:	10 c0       	rjmp	.+32     	; 0x453c <__RODATA_PM_OFFSET__+0x53c>
    451c:	b7 01       	movw	r22, r14
    451e:	80 e3       	ldi	r24, 0x30	; 48
    4520:	90 e0       	ldi	r25, 0x00	; 0
    4522:	0e 94 04 25 	call	0x4a08	; 0x4a08 <fputc>
    4526:	02 ff       	sbrs	r16, 2
    4528:	17 c0       	rjmp	.+46     	; 0x4558 <__RODATA_PM_OFFSET__+0x558>
    452a:	01 fd       	sbrc	r16, 1
    452c:	03 c0       	rjmp	.+6      	; 0x4534 <__RODATA_PM_OFFSET__+0x534>
    452e:	88 e7       	ldi	r24, 0x78	; 120
    4530:	90 e0       	ldi	r25, 0x00	; 0
    4532:	02 c0       	rjmp	.+4      	; 0x4538 <__RODATA_PM_OFFSET__+0x538>
    4534:	88 e5       	ldi	r24, 0x58	; 88
    4536:	90 e0       	ldi	r25, 0x00	; 0
    4538:	b7 01       	movw	r22, r14
    453a:	0c c0       	rjmp	.+24     	; 0x4554 <__RODATA_PM_OFFSET__+0x554>
    453c:	80 2f       	mov	r24, r16
    453e:	86 78       	andi	r24, 0x86	; 134
    4540:	59 f0       	breq	.+22     	; 0x4558 <__RODATA_PM_OFFSET__+0x558>
    4542:	01 ff       	sbrs	r16, 1
    4544:	02 c0       	rjmp	.+4      	; 0x454a <__RODATA_PM_OFFSET__+0x54a>
    4546:	8b e2       	ldi	r24, 0x2B	; 43
    4548:	01 c0       	rjmp	.+2      	; 0x454c <__RODATA_PM_OFFSET__+0x54c>
    454a:	80 e2       	ldi	r24, 0x20	; 32
    454c:	07 fd       	sbrc	r16, 7
    454e:	8d e2       	ldi	r24, 0x2D	; 45
    4550:	b7 01       	movw	r22, r14
    4552:	90 e0       	ldi	r25, 0x00	; 0
    4554:	0e 94 04 25 	call	0x4a08	; 0x4a08 <fputc>
    4558:	c1 16       	cp	r12, r17
    455a:	38 f4       	brcc	.+14     	; 0x456a <__RODATA_PM_OFFSET__+0x56a>
    455c:	b7 01       	movw	r22, r14
    455e:	80 e3       	ldi	r24, 0x30	; 48
    4560:	90 e0       	ldi	r25, 0x00	; 0
    4562:	0e 94 04 25 	call	0x4a08	; 0x4a08 <fputc>
    4566:	11 50       	subi	r17, 0x01	; 1
    4568:	f7 cf       	rjmp	.-18     	; 0x4558 <__RODATA_PM_OFFSET__+0x558>
    456a:	ca 94       	dec	r12
    456c:	f3 01       	movw	r30, r6
    456e:	ec 0d       	add	r30, r12
    4570:	f1 1d       	adc	r31, r1
    4572:	80 81       	ld	r24, Z
    4574:	b7 01       	movw	r22, r14
    4576:	90 e0       	ldi	r25, 0x00	; 0
    4578:	0e 94 04 25 	call	0x4a08	; 0x4a08 <fputc>
    457c:	c1 10       	cpse	r12, r1
    457e:	f5 cf       	rjmp	.-22     	; 0x456a <__RODATA_PM_OFFSET__+0x56a>
    4580:	15 c0       	rjmp	.+42     	; 0x45ac <__RODATA_PM_OFFSET__+0x5ac>
    4582:	f4 e0       	ldi	r31, 0x04	; 4
    4584:	f5 15       	cp	r31, r5
    4586:	60 f5       	brcc	.+88     	; 0x45e0 <__RODATA_PM_OFFSET__+0x5e0>
    4588:	84 e0       	ldi	r24, 0x04	; 4
    458a:	58 1a       	sub	r5, r24
    458c:	93 fe       	sbrs	r9, 3
    458e:	1f c0       	rjmp	.+62     	; 0x45ce <__RODATA_PM_OFFSET__+0x5ce>
    4590:	01 11       	cpse	r16, r1
    4592:	27 c0       	rjmp	.+78     	; 0x45e2 <__RODATA_PM_OFFSET__+0x5e2>
    4594:	2c 85       	ldd	r18, Y+12	; 0x0c
    4596:	23 ff       	sbrs	r18, 3
    4598:	2a c0       	rjmp	.+84     	; 0x45ee <__RODATA_PM_OFFSET__+0x5ee>
    459a:	04 e6       	ldi	r16, 0x64	; 100
    459c:	11 e0       	ldi	r17, 0x01	; 1
    459e:	39 2d       	mov	r19, r9
    45a0:	30 71       	andi	r19, 0x10	; 16
    45a2:	93 2e       	mov	r9, r19
    45a4:	f8 01       	movw	r30, r16
    45a6:	84 91       	lpm	r24, Z
    45a8:	81 11       	cpse	r24, r1
    45aa:	24 c0       	rjmp	.+72     	; 0x45f4 <__RODATA_PM_OFFSET__+0x5f4>
    45ac:	55 20       	and	r5, r5
    45ae:	09 f4       	brne	.+2      	; 0x45b2 <__RODATA_PM_OFFSET__+0x5b2>
    45b0:	e4 cc       	rjmp	.-1592   	; 0x3f7a <vfprintf+0x58>
    45b2:	b7 01       	movw	r22, r14
    45b4:	80 e2       	ldi	r24, 0x20	; 32
    45b6:	90 e0       	ldi	r25, 0x00	; 0
    45b8:	0e 94 04 25 	call	0x4a08	; 0x4a08 <fputc>
    45bc:	5a 94       	dec	r5
    45be:	f6 cf       	rjmp	.-20     	; 0x45ac <__RODATA_PM_OFFSET__+0x5ac>
    45c0:	f7 01       	movw	r30, r14
    45c2:	86 81       	ldd	r24, Z+6	; 0x06
    45c4:	97 81       	ldd	r25, Z+7	; 0x07
    45c6:	26 c0       	rjmp	.+76     	; 0x4614 <__RODATA_PM_OFFSET__+0x614>
    45c8:	8f ef       	ldi	r24, 0xFF	; 255
    45ca:	9f ef       	ldi	r25, 0xFF	; 255
    45cc:	23 c0       	rjmp	.+70     	; 0x4614 <__RODATA_PM_OFFSET__+0x614>
    45ce:	b7 01       	movw	r22, r14
    45d0:	80 e2       	ldi	r24, 0x20	; 32
    45d2:	90 e0       	ldi	r25, 0x00	; 0
    45d4:	0e 94 04 25 	call	0x4a08	; 0x4a08 <fputc>
    45d8:	5a 94       	dec	r5
    45da:	51 10       	cpse	r5, r1
    45dc:	f8 cf       	rjmp	.-16     	; 0x45ce <__RODATA_PM_OFFSET__+0x5ce>
    45de:	d8 cf       	rjmp	.-80     	; 0x4590 <__RODATA_PM_OFFSET__+0x590>
    45e0:	51 2c       	mov	r5, r1
    45e2:	b7 01       	movw	r22, r14
    45e4:	80 2f       	mov	r24, r16
    45e6:	90 e0       	ldi	r25, 0x00	; 0
    45e8:	0e 94 04 25 	call	0x4a08	; 0x4a08 <fputc>
    45ec:	d3 cf       	rjmp	.-90     	; 0x4594 <__RODATA_PM_OFFSET__+0x594>
    45ee:	08 e6       	ldi	r16, 0x68	; 104
    45f0:	11 e0       	ldi	r17, 0x01	; 1
    45f2:	d5 cf       	rjmp	.-86     	; 0x459e <__RODATA_PM_OFFSET__+0x59e>
    45f4:	91 10       	cpse	r9, r1
    45f6:	80 52       	subi	r24, 0x20	; 32
    45f8:	b7 01       	movw	r22, r14
    45fa:	90 e0       	ldi	r25, 0x00	; 0
    45fc:	0e 94 04 25 	call	0x4a08	; 0x4a08 <fputc>
    4600:	0f 5f       	subi	r16, 0xFF	; 255
    4602:	1f 4f       	sbci	r17, 0xFF	; 255
    4604:	cf cf       	rjmp	.-98     	; 0x45a4 <__RODATA_PM_OFFSET__+0x5a4>
    4606:	23 e0       	ldi	r18, 0x03	; 3
    4608:	25 15       	cp	r18, r5
    460a:	10 f4       	brcc	.+4      	; 0x4610 <__RODATA_PM_OFFSET__+0x610>
    460c:	83 e0       	ldi	r24, 0x03	; 3
    460e:	bd cf       	rjmp	.-134    	; 0x458a <__RODATA_PM_OFFSET__+0x58a>
    4610:	51 2c       	mov	r5, r1
    4612:	c0 cf       	rjmp	.-128    	; 0x4594 <__RODATA_PM_OFFSET__+0x594>
    4614:	60 96       	adiw	r28, 0x10	; 16
    4616:	e2 e1       	ldi	r30, 0x12	; 18
    4618:	0c 94 6b 23 	jmp	0x46d6	; 0x46d6 <__epilogue_restores__>

0000461c <__divmodhi4>:
    461c:	97 fb       	bst	r25, 7
    461e:	07 2e       	mov	r0, r23
    4620:	16 f4       	brtc	.+4      	; 0x4626 <__divmodhi4+0xa>
    4622:	00 94       	com	r0
    4624:	07 d0       	rcall	.+14     	; 0x4634 <__divmodhi4_neg1>
    4626:	77 fd       	sbrc	r23, 7
    4628:	09 d0       	rcall	.+18     	; 0x463c <__divmodhi4_neg2>
    462a:	0e 94 83 23 	call	0x4706	; 0x4706 <__udivmodhi4>
    462e:	07 fc       	sbrc	r0, 7
    4630:	05 d0       	rcall	.+10     	; 0x463c <__divmodhi4_neg2>
    4632:	3e f4       	brtc	.+14     	; 0x4642 <__divmodhi4_exit>

00004634 <__divmodhi4_neg1>:
    4634:	90 95       	com	r25
    4636:	81 95       	neg	r24
    4638:	9f 4f       	sbci	r25, 0xFF	; 255
    463a:	08 95       	ret

0000463c <__divmodhi4_neg2>:
    463c:	70 95       	com	r23
    463e:	61 95       	neg	r22
    4640:	7f 4f       	sbci	r23, 0xFF	; 255

00004642 <__divmodhi4_exit>:
    4642:	08 95       	ret

00004644 <__divmodsi4>:
    4644:	05 2e       	mov	r0, r21
    4646:	97 fb       	bst	r25, 7
    4648:	1e f4       	brtc	.+6      	; 0x4650 <__divmodsi4+0xc>
    464a:	00 94       	com	r0
    464c:	0e 94 39 23 	call	0x4672	; 0x4672 <__negsi2>
    4650:	57 fd       	sbrc	r21, 7
    4652:	07 d0       	rcall	.+14     	; 0x4662 <__divmodsi4_neg2>
    4654:	0e 94 97 23 	call	0x472e	; 0x472e <__udivmodsi4>
    4658:	07 fc       	sbrc	r0, 7
    465a:	03 d0       	rcall	.+6      	; 0x4662 <__divmodsi4_neg2>
    465c:	4e f4       	brtc	.+18     	; 0x4670 <__divmodsi4_exit>
    465e:	0c 94 39 23 	jmp	0x4672	; 0x4672 <__negsi2>

00004662 <__divmodsi4_neg2>:
    4662:	50 95       	com	r21
    4664:	40 95       	com	r20
    4666:	30 95       	com	r19
    4668:	21 95       	neg	r18
    466a:	3f 4f       	sbci	r19, 0xFF	; 255
    466c:	4f 4f       	sbci	r20, 0xFF	; 255
    466e:	5f 4f       	sbci	r21, 0xFF	; 255

00004670 <__divmodsi4_exit>:
    4670:	08 95       	ret

00004672 <__negsi2>:
    4672:	90 95       	com	r25
    4674:	80 95       	com	r24
    4676:	70 95       	com	r23
    4678:	61 95       	neg	r22
    467a:	7f 4f       	sbci	r23, 0xFF	; 255
    467c:	8f 4f       	sbci	r24, 0xFF	; 255
    467e:	9f 4f       	sbci	r25, 0xFF	; 255
    4680:	08 95       	ret

00004682 <__tablejump2__>:
    4682:	ee 0f       	add	r30, r30
    4684:	ff 1f       	adc	r31, r31
    4686:	05 90       	lpm	r0, Z+
    4688:	f4 91       	lpm	r31, Z
    468a:	e0 2d       	mov	r30, r0
    468c:	09 94       	ijmp

0000468e <__muluhisi3>:
    468e:	0e 94 b9 23 	call	0x4772	; 0x4772 <__umulhisi3>
    4692:	a5 9f       	mul	r26, r21
    4694:	90 0d       	add	r25, r0
    4696:	b4 9f       	mul	r27, r20
    4698:	90 0d       	add	r25, r0
    469a:	a4 9f       	mul	r26, r20
    469c:	80 0d       	add	r24, r0
    469e:	91 1d       	adc	r25, r1
    46a0:	11 24       	eor	r1, r1
    46a2:	08 95       	ret

000046a4 <__prologue_saves__>:
    46a4:	2f 92       	push	r2
    46a6:	3f 92       	push	r3
    46a8:	4f 92       	push	r4
    46aa:	5f 92       	push	r5
    46ac:	6f 92       	push	r6
    46ae:	7f 92       	push	r7
    46b0:	8f 92       	push	r8
    46b2:	9f 92       	push	r9
    46b4:	af 92       	push	r10
    46b6:	bf 92       	push	r11
    46b8:	cf 92       	push	r12
    46ba:	df 92       	push	r13
    46bc:	ef 92       	push	r14
    46be:	ff 92       	push	r15
    46c0:	0f 93       	push	r16
    46c2:	1f 93       	push	r17
    46c4:	cf 93       	push	r28
    46c6:	df 93       	push	r29
    46c8:	cd b7       	in	r28, 0x3d	; 61
    46ca:	de b7       	in	r29, 0x3e	; 62
    46cc:	ca 1b       	sub	r28, r26
    46ce:	db 0b       	sbc	r29, r27
    46d0:	cd bf       	out	0x3d, r28	; 61
    46d2:	de bf       	out	0x3e, r29	; 62
    46d4:	09 94       	ijmp

000046d6 <__epilogue_restores__>:
    46d6:	2a 88       	ldd	r2, Y+18	; 0x12
    46d8:	39 88       	ldd	r3, Y+17	; 0x11
    46da:	48 88       	ldd	r4, Y+16	; 0x10
    46dc:	5f 84       	ldd	r5, Y+15	; 0x0f
    46de:	6e 84       	ldd	r6, Y+14	; 0x0e
    46e0:	7d 84       	ldd	r7, Y+13	; 0x0d
    46e2:	8c 84       	ldd	r8, Y+12	; 0x0c
    46e4:	9b 84       	ldd	r9, Y+11	; 0x0b
    46e6:	aa 84       	ldd	r10, Y+10	; 0x0a
    46e8:	b9 84       	ldd	r11, Y+9	; 0x09
    46ea:	c8 84       	ldd	r12, Y+8	; 0x08
    46ec:	df 80       	ldd	r13, Y+7	; 0x07
    46ee:	ee 80       	ldd	r14, Y+6	; 0x06
    46f0:	fd 80       	ldd	r15, Y+5	; 0x05
    46f2:	0c 81       	ldd	r16, Y+4	; 0x04
    46f4:	1b 81       	ldd	r17, Y+3	; 0x03
    46f6:	aa 81       	ldd	r26, Y+2	; 0x02
    46f8:	b9 81       	ldd	r27, Y+1	; 0x01
    46fa:	ce 0f       	add	r28, r30
    46fc:	d1 1d       	adc	r29, r1
    46fe:	cd bf       	out	0x3d, r28	; 61
    4700:	de bf       	out	0x3e, r29	; 62
    4702:	ed 01       	movw	r28, r26
    4704:	08 95       	ret

00004706 <__udivmodhi4>:
    4706:	aa 1b       	sub	r26, r26
    4708:	bb 1b       	sub	r27, r27
    470a:	51 e1       	ldi	r21, 0x11	; 17
    470c:	07 c0       	rjmp	.+14     	; 0x471c <__udivmodhi4_ep>

0000470e <__udivmodhi4_loop>:
    470e:	aa 1f       	adc	r26, r26
    4710:	bb 1f       	adc	r27, r27
    4712:	a6 17       	cp	r26, r22
    4714:	b7 07       	cpc	r27, r23
    4716:	10 f0       	brcs	.+4      	; 0x471c <__udivmodhi4_ep>
    4718:	a6 1b       	sub	r26, r22
    471a:	b7 0b       	sbc	r27, r23

0000471c <__udivmodhi4_ep>:
    471c:	88 1f       	adc	r24, r24
    471e:	99 1f       	adc	r25, r25
    4720:	5a 95       	dec	r21
    4722:	a9 f7       	brne	.-22     	; 0x470e <__udivmodhi4_loop>
    4724:	80 95       	com	r24
    4726:	90 95       	com	r25
    4728:	bc 01       	movw	r22, r24
    472a:	cd 01       	movw	r24, r26
    472c:	08 95       	ret

0000472e <__udivmodsi4>:
    472e:	a1 e2       	ldi	r26, 0x21	; 33
    4730:	1a 2e       	mov	r1, r26
    4732:	aa 1b       	sub	r26, r26
    4734:	bb 1b       	sub	r27, r27
    4736:	fd 01       	movw	r30, r26
    4738:	0d c0       	rjmp	.+26     	; 0x4754 <__udivmodsi4_ep>

0000473a <__udivmodsi4_loop>:
    473a:	aa 1f       	adc	r26, r26
    473c:	bb 1f       	adc	r27, r27
    473e:	ee 1f       	adc	r30, r30
    4740:	ff 1f       	adc	r31, r31
    4742:	a2 17       	cp	r26, r18
    4744:	b3 07       	cpc	r27, r19
    4746:	e4 07       	cpc	r30, r20
    4748:	f5 07       	cpc	r31, r21
    474a:	20 f0       	brcs	.+8      	; 0x4754 <__udivmodsi4_ep>
    474c:	a2 1b       	sub	r26, r18
    474e:	b3 0b       	sbc	r27, r19
    4750:	e4 0b       	sbc	r30, r20
    4752:	f5 0b       	sbc	r31, r21

00004754 <__udivmodsi4_ep>:
    4754:	66 1f       	adc	r22, r22
    4756:	77 1f       	adc	r23, r23
    4758:	88 1f       	adc	r24, r24
    475a:	99 1f       	adc	r25, r25
    475c:	1a 94       	dec	r1
    475e:	69 f7       	brne	.-38     	; 0x473a <__udivmodsi4_loop>
    4760:	60 95       	com	r22
    4762:	70 95       	com	r23
    4764:	80 95       	com	r24
    4766:	90 95       	com	r25
    4768:	9b 01       	movw	r18, r22
    476a:	ac 01       	movw	r20, r24
    476c:	bd 01       	movw	r22, r26
    476e:	cf 01       	movw	r24, r30
    4770:	08 95       	ret

00004772 <__umulhisi3>:
    4772:	a2 9f       	mul	r26, r18
    4774:	b0 01       	movw	r22, r0
    4776:	b3 9f       	mul	r27, r19
    4778:	c0 01       	movw	r24, r0
    477a:	a3 9f       	mul	r26, r19
    477c:	70 0d       	add	r23, r0
    477e:	81 1d       	adc	r24, r1
    4780:	11 24       	eor	r1, r1
    4782:	91 1d       	adc	r25, r1
    4784:	b2 9f       	mul	r27, r18
    4786:	70 0d       	add	r23, r0
    4788:	81 1d       	adc	r24, r1
    478a:	11 24       	eor	r1, r1
    478c:	91 1d       	adc	r25, r1
    478e:	08 95       	ret

00004790 <atol>:
    4790:	1f 93       	push	r17
    4792:	fc 01       	movw	r30, r24
    4794:	99 27       	eor	r25, r25
    4796:	88 27       	eor	r24, r24
    4798:	bc 01       	movw	r22, r24
    479a:	e8 94       	clt
    479c:	11 91       	ld	r17, Z+
    479e:	10 32       	cpi	r17, 0x20	; 32
    47a0:	e9 f3       	breq	.-6      	; 0x479c <atol+0xc>
    47a2:	19 30       	cpi	r17, 0x09	; 9
    47a4:	10 f0       	brcs	.+4      	; 0x47aa <atol+0x1a>
    47a6:	1e 30       	cpi	r17, 0x0E	; 14
    47a8:	c8 f3       	brcs	.-14     	; 0x479c <atol+0xc>
    47aa:	1b 32       	cpi	r17, 0x2B	; 43
    47ac:	51 f0       	breq	.+20     	; 0x47c2 <atol+0x32>
    47ae:	1d 32       	cpi	r17, 0x2D	; 45
    47b0:	49 f4       	brne	.+18     	; 0x47c4 <atol+0x34>
    47b2:	68 94       	set
    47b4:	06 c0       	rjmp	.+12     	; 0x47c2 <atol+0x32>
    47b6:	0e 94 ef 24 	call	0x49de	; 0x49de <__mulsi_const_10>
    47ba:	61 0f       	add	r22, r17
    47bc:	71 1d       	adc	r23, r1
    47be:	81 1d       	adc	r24, r1
    47c0:	91 1d       	adc	r25, r1
    47c2:	11 91       	ld	r17, Z+
    47c4:	10 53       	subi	r17, 0x30	; 48
    47c6:	1a 30       	cpi	r17, 0x0A	; 10
    47c8:	b0 f3       	brcs	.-20     	; 0x47b6 <atol+0x26>
    47ca:	3e f4       	brtc	.+14     	; 0x47da <atol+0x4a>
    47cc:	90 95       	com	r25
    47ce:	80 95       	com	r24
    47d0:	70 95       	com	r23
    47d2:	61 95       	neg	r22
    47d4:	7f 4f       	sbci	r23, 0xFF	; 255
    47d6:	8f 4f       	sbci	r24, 0xFF	; 255
    47d8:	9f 4f       	sbci	r25, 0xFF	; 255
    47da:	1f 91       	pop	r17
    47dc:	08 95       	ret

000047de <__ftoa_engine>:
    47de:	28 30       	cpi	r18, 0x08	; 8
    47e0:	08 f0       	brcs	.+2      	; 0x47e4 <__ftoa_engine+0x6>
    47e2:	27 e0       	ldi	r18, 0x07	; 7
    47e4:	33 27       	eor	r19, r19
    47e6:	da 01       	movw	r26, r20
    47e8:	99 0f       	add	r25, r25
    47ea:	31 1d       	adc	r19, r1
    47ec:	87 fd       	sbrc	r24, 7
    47ee:	91 60       	ori	r25, 0x01	; 1
    47f0:	00 96       	adiw	r24, 0x00	; 0
    47f2:	61 05       	cpc	r22, r1
    47f4:	71 05       	cpc	r23, r1
    47f6:	39 f4       	brne	.+14     	; 0x4806 <__ftoa_engine+0x28>
    47f8:	32 60       	ori	r19, 0x02	; 2
    47fa:	2e 5f       	subi	r18, 0xFE	; 254
    47fc:	3d 93       	st	X+, r19
    47fe:	30 e3       	ldi	r19, 0x30	; 48
    4800:	2a 95       	dec	r18
    4802:	e1 f7       	brne	.-8      	; 0x47fc <__ftoa_engine+0x1e>
    4804:	08 95       	ret
    4806:	9f 3f       	cpi	r25, 0xFF	; 255
    4808:	30 f0       	brcs	.+12     	; 0x4816 <__ftoa_engine+0x38>
    480a:	80 38       	cpi	r24, 0x80	; 128
    480c:	71 05       	cpc	r23, r1
    480e:	61 05       	cpc	r22, r1
    4810:	09 f0       	breq	.+2      	; 0x4814 <__ftoa_engine+0x36>
    4812:	3c 5f       	subi	r19, 0xFC	; 252
    4814:	3c 5f       	subi	r19, 0xFC	; 252
    4816:	3d 93       	st	X+, r19
    4818:	91 30       	cpi	r25, 0x01	; 1
    481a:	08 f0       	brcs	.+2      	; 0x481e <__ftoa_engine+0x40>
    481c:	80 68       	ori	r24, 0x80	; 128
    481e:	91 1d       	adc	r25, r1
    4820:	df 93       	push	r29
    4822:	cf 93       	push	r28
    4824:	1f 93       	push	r17
    4826:	0f 93       	push	r16
    4828:	ff 92       	push	r15
    482a:	ef 92       	push	r14
    482c:	19 2f       	mov	r17, r25
    482e:	98 7f       	andi	r25, 0xF8	; 248
    4830:	96 95       	lsr	r25
    4832:	e9 2f       	mov	r30, r25
    4834:	96 95       	lsr	r25
    4836:	96 95       	lsr	r25
    4838:	e9 0f       	add	r30, r25
    483a:	ff 27       	eor	r31, r31
    483c:	ea 53       	subi	r30, 0x3A	; 58
    483e:	fe 4f       	sbci	r31, 0xFE	; 254
    4840:	99 27       	eor	r25, r25
    4842:	33 27       	eor	r19, r19
    4844:	ee 24       	eor	r14, r14
    4846:	ff 24       	eor	r15, r15
    4848:	a7 01       	movw	r20, r14
    484a:	e7 01       	movw	r28, r14
    484c:	05 90       	lpm	r0, Z+
    484e:	08 94       	sec
    4850:	07 94       	ror	r0
    4852:	28 f4       	brcc	.+10     	; 0x485e <__ftoa_engine+0x80>
    4854:	36 0f       	add	r19, r22
    4856:	e7 1e       	adc	r14, r23
    4858:	f8 1e       	adc	r15, r24
    485a:	49 1f       	adc	r20, r25
    485c:	51 1d       	adc	r21, r1
    485e:	66 0f       	add	r22, r22
    4860:	77 1f       	adc	r23, r23
    4862:	88 1f       	adc	r24, r24
    4864:	99 1f       	adc	r25, r25
    4866:	06 94       	lsr	r0
    4868:	a1 f7       	brne	.-24     	; 0x4852 <__ftoa_engine+0x74>
    486a:	05 90       	lpm	r0, Z+
    486c:	07 94       	ror	r0
    486e:	28 f4       	brcc	.+10     	; 0x487a <__ftoa_engine+0x9c>
    4870:	e7 0e       	add	r14, r23
    4872:	f8 1e       	adc	r15, r24
    4874:	49 1f       	adc	r20, r25
    4876:	56 1f       	adc	r21, r22
    4878:	c1 1d       	adc	r28, r1
    487a:	77 0f       	add	r23, r23
    487c:	88 1f       	adc	r24, r24
    487e:	99 1f       	adc	r25, r25
    4880:	66 1f       	adc	r22, r22
    4882:	06 94       	lsr	r0
    4884:	a1 f7       	brne	.-24     	; 0x486e <__ftoa_engine+0x90>
    4886:	05 90       	lpm	r0, Z+
    4888:	07 94       	ror	r0
    488a:	28 f4       	brcc	.+10     	; 0x4896 <__ftoa_engine+0xb8>
    488c:	f8 0e       	add	r15, r24
    488e:	49 1f       	adc	r20, r25
    4890:	56 1f       	adc	r21, r22
    4892:	c7 1f       	adc	r28, r23
    4894:	d1 1d       	adc	r29, r1
    4896:	88 0f       	add	r24, r24
    4898:	99 1f       	adc	r25, r25
    489a:	66 1f       	adc	r22, r22
    489c:	77 1f       	adc	r23, r23
    489e:	06 94       	lsr	r0
    48a0:	a1 f7       	brne	.-24     	; 0x488a <__ftoa_engine+0xac>
    48a2:	05 90       	lpm	r0, Z+
    48a4:	07 94       	ror	r0
    48a6:	20 f4       	brcc	.+8      	; 0x48b0 <__ftoa_engine+0xd2>
    48a8:	49 0f       	add	r20, r25
    48aa:	56 1f       	adc	r21, r22
    48ac:	c7 1f       	adc	r28, r23
    48ae:	d8 1f       	adc	r29, r24
    48b0:	99 0f       	add	r25, r25
    48b2:	66 1f       	adc	r22, r22
    48b4:	77 1f       	adc	r23, r23
    48b6:	88 1f       	adc	r24, r24
    48b8:	06 94       	lsr	r0
    48ba:	a9 f7       	brne	.-22     	; 0x48a6 <__ftoa_engine+0xc8>
    48bc:	84 91       	lpm	r24, Z
    48be:	10 95       	com	r17
    48c0:	17 70       	andi	r17, 0x07	; 7
    48c2:	41 f0       	breq	.+16     	; 0x48d4 <__ftoa_engine+0xf6>
    48c4:	d6 95       	lsr	r29
    48c6:	c7 95       	ror	r28
    48c8:	57 95       	ror	r21
    48ca:	47 95       	ror	r20
    48cc:	f7 94       	ror	r15
    48ce:	e7 94       	ror	r14
    48d0:	1a 95       	dec	r17
    48d2:	c1 f7       	brne	.-16     	; 0x48c4 <__ftoa_engine+0xe6>
    48d4:	ec e6       	ldi	r30, 0x6C	; 108
    48d6:	f1 e0       	ldi	r31, 0x01	; 1
    48d8:	68 94       	set
    48da:	15 90       	lpm	r1, Z+
    48dc:	15 91       	lpm	r17, Z+
    48de:	35 91       	lpm	r19, Z+
    48e0:	65 91       	lpm	r22, Z+
    48e2:	95 91       	lpm	r25, Z+
    48e4:	05 90       	lpm	r0, Z+
    48e6:	7f e2       	ldi	r23, 0x2F	; 47
    48e8:	73 95       	inc	r23
    48ea:	e1 18       	sub	r14, r1
    48ec:	f1 0a       	sbc	r15, r17
    48ee:	43 0b       	sbc	r20, r19
    48f0:	56 0b       	sbc	r21, r22
    48f2:	c9 0b       	sbc	r28, r25
    48f4:	d0 09       	sbc	r29, r0
    48f6:	c0 f7       	brcc	.-16     	; 0x48e8 <__ftoa_engine+0x10a>
    48f8:	e1 0c       	add	r14, r1
    48fa:	f1 1e       	adc	r15, r17
    48fc:	43 1f       	adc	r20, r19
    48fe:	56 1f       	adc	r21, r22
    4900:	c9 1f       	adc	r28, r25
    4902:	d0 1d       	adc	r29, r0
    4904:	7e f4       	brtc	.+30     	; 0x4924 <__ftoa_engine+0x146>
    4906:	70 33       	cpi	r23, 0x30	; 48
    4908:	11 f4       	brne	.+4      	; 0x490e <__ftoa_engine+0x130>
    490a:	8a 95       	dec	r24
    490c:	e6 cf       	rjmp	.-52     	; 0x48da <__ftoa_engine+0xfc>
    490e:	e8 94       	clt
    4910:	01 50       	subi	r16, 0x01	; 1
    4912:	30 f0       	brcs	.+12     	; 0x4920 <__ftoa_engine+0x142>
    4914:	08 0f       	add	r16, r24
    4916:	0a f4       	brpl	.+2      	; 0x491a <__ftoa_engine+0x13c>
    4918:	00 27       	eor	r16, r16
    491a:	02 17       	cp	r16, r18
    491c:	08 f4       	brcc	.+2      	; 0x4920 <__ftoa_engine+0x142>
    491e:	20 2f       	mov	r18, r16
    4920:	23 95       	inc	r18
    4922:	02 2f       	mov	r16, r18
    4924:	7a 33       	cpi	r23, 0x3A	; 58
    4926:	28 f0       	brcs	.+10     	; 0x4932 <__ftoa_engine+0x154>
    4928:	79 e3       	ldi	r23, 0x39	; 57
    492a:	7d 93       	st	X+, r23
    492c:	2a 95       	dec	r18
    492e:	e9 f7       	brne	.-6      	; 0x492a <__ftoa_engine+0x14c>
    4930:	10 c0       	rjmp	.+32     	; 0x4952 <__ftoa_engine+0x174>
    4932:	7d 93       	st	X+, r23
    4934:	2a 95       	dec	r18
    4936:	89 f6       	brne	.-94     	; 0x48da <__ftoa_engine+0xfc>
    4938:	06 94       	lsr	r0
    493a:	97 95       	ror	r25
    493c:	67 95       	ror	r22
    493e:	37 95       	ror	r19
    4940:	17 95       	ror	r17
    4942:	17 94       	ror	r1
    4944:	e1 18       	sub	r14, r1
    4946:	f1 0a       	sbc	r15, r17
    4948:	43 0b       	sbc	r20, r19
    494a:	56 0b       	sbc	r21, r22
    494c:	c9 0b       	sbc	r28, r25
    494e:	d0 09       	sbc	r29, r0
    4950:	98 f0       	brcs	.+38     	; 0x4978 <__ftoa_engine+0x19a>
    4952:	23 95       	inc	r18
    4954:	7e 91       	ld	r23, -X
    4956:	73 95       	inc	r23
    4958:	7a 33       	cpi	r23, 0x3A	; 58
    495a:	08 f0       	brcs	.+2      	; 0x495e <__ftoa_engine+0x180>
    495c:	70 e3       	ldi	r23, 0x30	; 48
    495e:	7c 93       	st	X, r23
    4960:	20 13       	cpse	r18, r16
    4962:	b8 f7       	brcc	.-18     	; 0x4952 <__ftoa_engine+0x174>
    4964:	7e 91       	ld	r23, -X
    4966:	70 61       	ori	r23, 0x10	; 16
    4968:	7d 93       	st	X+, r23
    496a:	30 f0       	brcs	.+12     	; 0x4978 <__ftoa_engine+0x19a>
    496c:	83 95       	inc	r24
    496e:	71 e3       	ldi	r23, 0x31	; 49
    4970:	7d 93       	st	X+, r23
    4972:	70 e3       	ldi	r23, 0x30	; 48
    4974:	2a 95       	dec	r18
    4976:	e1 f7       	brne	.-8      	; 0x4970 <__ftoa_engine+0x192>
    4978:	11 24       	eor	r1, r1
    497a:	ef 90       	pop	r14
    497c:	ff 90       	pop	r15
    497e:	0f 91       	pop	r16
    4980:	1f 91       	pop	r17
    4982:	cf 91       	pop	r28
    4984:	df 91       	pop	r29
    4986:	99 27       	eor	r25, r25
    4988:	87 fd       	sbrc	r24, 7
    498a:	90 95       	com	r25
    498c:	08 95       	ret

0000498e <strnlen_P>:
    498e:	fc 01       	movw	r30, r24
    4990:	05 90       	lpm	r0, Z+
    4992:	61 50       	subi	r22, 0x01	; 1
    4994:	70 40       	sbci	r23, 0x00	; 0
    4996:	01 10       	cpse	r0, r1
    4998:	d8 f7       	brcc	.-10     	; 0x4990 <strnlen_P+0x2>
    499a:	80 95       	com	r24
    499c:	90 95       	com	r25
    499e:	8e 0f       	add	r24, r30
    49a0:	9f 1f       	adc	r25, r31
    49a2:	08 95       	ret

000049a4 <strcat>:
    49a4:	fb 01       	movw	r30, r22
    49a6:	dc 01       	movw	r26, r24
    49a8:	0d 90       	ld	r0, X+
    49aa:	00 20       	and	r0, r0
    49ac:	e9 f7       	brne	.-6      	; 0x49a8 <strcat+0x4>
    49ae:	11 97       	sbiw	r26, 0x01	; 1
    49b0:	01 90       	ld	r0, Z+
    49b2:	0d 92       	st	X+, r0
    49b4:	00 20       	and	r0, r0
    49b6:	e1 f7       	brne	.-8      	; 0x49b0 <strcat+0xc>
    49b8:	08 95       	ret

000049ba <strcpy>:
    49ba:	fb 01       	movw	r30, r22
    49bc:	dc 01       	movw	r26, r24
    49be:	01 90       	ld	r0, Z+
    49c0:	0d 92       	st	X+, r0
    49c2:	00 20       	and	r0, r0
    49c4:	e1 f7       	brne	.-8      	; 0x49be <strcpy+0x4>
    49c6:	08 95       	ret

000049c8 <strnlen>:
    49c8:	fc 01       	movw	r30, r24
    49ca:	61 50       	subi	r22, 0x01	; 1
    49cc:	70 40       	sbci	r23, 0x00	; 0
    49ce:	01 90       	ld	r0, Z+
    49d0:	01 10       	cpse	r0, r1
    49d2:	d8 f7       	brcc	.-10     	; 0x49ca <strnlen+0x2>
    49d4:	80 95       	com	r24
    49d6:	90 95       	com	r25
    49d8:	8e 0f       	add	r24, r30
    49da:	9f 1f       	adc	r25, r31
    49dc:	08 95       	ret

000049de <__mulsi_const_10>:
    49de:	59 2f       	mov	r21, r25
    49e0:	48 2f       	mov	r20, r24
    49e2:	37 2f       	mov	r19, r23
    49e4:	26 2f       	mov	r18, r22
    49e6:	66 0f       	add	r22, r22
    49e8:	77 1f       	adc	r23, r23
    49ea:	88 1f       	adc	r24, r24
    49ec:	99 1f       	adc	r25, r25
    49ee:	66 0f       	add	r22, r22
    49f0:	77 1f       	adc	r23, r23
    49f2:	88 1f       	adc	r24, r24
    49f4:	99 1f       	adc	r25, r25
    49f6:	62 0f       	add	r22, r18
    49f8:	73 1f       	adc	r23, r19
    49fa:	84 1f       	adc	r24, r20
    49fc:	95 1f       	adc	r25, r21
    49fe:	66 0f       	add	r22, r22
    4a00:	77 1f       	adc	r23, r23
    4a02:	88 1f       	adc	r24, r24
    4a04:	99 1f       	adc	r25, r25
    4a06:	08 95       	ret

00004a08 <fputc>:
    4a08:	0f 93       	push	r16
    4a0a:	1f 93       	push	r17
    4a0c:	cf 93       	push	r28
    4a0e:	df 93       	push	r29
    4a10:	fb 01       	movw	r30, r22
    4a12:	23 81       	ldd	r18, Z+3	; 0x03
    4a14:	21 fd       	sbrc	r18, 1
    4a16:	03 c0       	rjmp	.+6      	; 0x4a1e <fputc+0x16>
    4a18:	8f ef       	ldi	r24, 0xFF	; 255
    4a1a:	9f ef       	ldi	r25, 0xFF	; 255
    4a1c:	2c c0       	rjmp	.+88     	; 0x4a76 <fputc+0x6e>
    4a1e:	22 ff       	sbrs	r18, 2
    4a20:	16 c0       	rjmp	.+44     	; 0x4a4e <fputc+0x46>
    4a22:	46 81       	ldd	r20, Z+6	; 0x06
    4a24:	57 81       	ldd	r21, Z+7	; 0x07
    4a26:	24 81       	ldd	r18, Z+4	; 0x04
    4a28:	35 81       	ldd	r19, Z+5	; 0x05
    4a2a:	42 17       	cp	r20, r18
    4a2c:	53 07       	cpc	r21, r19
    4a2e:	44 f4       	brge	.+16     	; 0x4a40 <fputc+0x38>
    4a30:	a0 81       	ld	r26, Z
    4a32:	b1 81       	ldd	r27, Z+1	; 0x01
    4a34:	9d 01       	movw	r18, r26
    4a36:	2f 5f       	subi	r18, 0xFF	; 255
    4a38:	3f 4f       	sbci	r19, 0xFF	; 255
    4a3a:	20 83       	st	Z, r18
    4a3c:	31 83       	std	Z+1, r19	; 0x01
    4a3e:	8c 93       	st	X, r24
    4a40:	26 81       	ldd	r18, Z+6	; 0x06
    4a42:	37 81       	ldd	r19, Z+7	; 0x07
    4a44:	2f 5f       	subi	r18, 0xFF	; 255
    4a46:	3f 4f       	sbci	r19, 0xFF	; 255
    4a48:	26 83       	std	Z+6, r18	; 0x06
    4a4a:	37 83       	std	Z+7, r19	; 0x07
    4a4c:	14 c0       	rjmp	.+40     	; 0x4a76 <fputc+0x6e>
    4a4e:	8b 01       	movw	r16, r22
    4a50:	ec 01       	movw	r28, r24
    4a52:	fb 01       	movw	r30, r22
    4a54:	00 84       	ldd	r0, Z+8	; 0x08
    4a56:	f1 85       	ldd	r31, Z+9	; 0x09
    4a58:	e0 2d       	mov	r30, r0
    4a5a:	09 95       	icall
    4a5c:	89 2b       	or	r24, r25
    4a5e:	e1 f6       	brne	.-72     	; 0x4a18 <fputc+0x10>
    4a60:	d8 01       	movw	r26, r16
    4a62:	16 96       	adiw	r26, 0x06	; 6
    4a64:	8d 91       	ld	r24, X+
    4a66:	9c 91       	ld	r25, X
    4a68:	17 97       	sbiw	r26, 0x07	; 7
    4a6a:	01 96       	adiw	r24, 0x01	; 1
    4a6c:	16 96       	adiw	r26, 0x06	; 6
    4a6e:	8d 93       	st	X+, r24
    4a70:	9c 93       	st	X, r25
    4a72:	17 97       	sbiw	r26, 0x07	; 7
    4a74:	ce 01       	movw	r24, r28
    4a76:	df 91       	pop	r29
    4a78:	cf 91       	pop	r28
    4a7a:	1f 91       	pop	r17
    4a7c:	0f 91       	pop	r16
    4a7e:	08 95       	ret

00004a80 <sprintf>:
    4a80:	ae e0       	ldi	r26, 0x0E	; 14
    4a82:	b0 e0       	ldi	r27, 0x00	; 0
    4a84:	e6 e4       	ldi	r30, 0x46	; 70
    4a86:	f5 e2       	ldi	r31, 0x25	; 37
    4a88:	0c 94 60 23 	jmp	0x46c0	; 0x46c0 <__prologue_saves__+0x1c>
    4a8c:	0d 89       	ldd	r16, Y+21	; 0x15
    4a8e:	1e 89       	ldd	r17, Y+22	; 0x16
    4a90:	86 e0       	ldi	r24, 0x06	; 6
    4a92:	8c 83       	std	Y+4, r24	; 0x04
    4a94:	09 83       	std	Y+1, r16	; 0x01
    4a96:	1a 83       	std	Y+2, r17	; 0x02
    4a98:	8f ef       	ldi	r24, 0xFF	; 255
    4a9a:	9f e7       	ldi	r25, 0x7F	; 127
    4a9c:	8d 83       	std	Y+5, r24	; 0x05
    4a9e:	9e 83       	std	Y+6, r25	; 0x06
    4aa0:	ae 01       	movw	r20, r28
    4aa2:	47 5e       	subi	r20, 0xE7	; 231
    4aa4:	5f 4f       	sbci	r21, 0xFF	; 255
    4aa6:	6f 89       	ldd	r22, Y+23	; 0x17
    4aa8:	78 8d       	ldd	r23, Y+24	; 0x18
    4aaa:	ce 01       	movw	r24, r28
    4aac:	01 96       	adiw	r24, 0x01	; 1
    4aae:	0e 94 91 1f 	call	0x3f22	; 0x3f22 <vfprintf>
    4ab2:	ef 81       	ldd	r30, Y+7	; 0x07
    4ab4:	f8 85       	ldd	r31, Y+8	; 0x08
    4ab6:	e0 0f       	add	r30, r16
    4ab8:	f1 1f       	adc	r31, r17
    4aba:	10 82       	st	Z, r1
    4abc:	2e 96       	adiw	r28, 0x0e	; 14
    4abe:	e4 e0       	ldi	r30, 0x04	; 4
    4ac0:	0c 94 79 23 	jmp	0x46f2	; 0x46f2 <__epilogue_restores__+0x1c>

00004ac4 <__ultoa_invert>:
    4ac4:	fa 01       	movw	r30, r20
    4ac6:	aa 27       	eor	r26, r26
    4ac8:	28 30       	cpi	r18, 0x08	; 8
    4aca:	51 f1       	breq	.+84     	; 0x4b20 <__ultoa_invert+0x5c>
    4acc:	20 31       	cpi	r18, 0x10	; 16
    4ace:	81 f1       	breq	.+96     	; 0x4b30 <__ultoa_invert+0x6c>
    4ad0:	e8 94       	clt
    4ad2:	6f 93       	push	r22
    4ad4:	6e 7f       	andi	r22, 0xFE	; 254
    4ad6:	6e 5f       	subi	r22, 0xFE	; 254
    4ad8:	7f 4f       	sbci	r23, 0xFF	; 255
    4ada:	8f 4f       	sbci	r24, 0xFF	; 255
    4adc:	9f 4f       	sbci	r25, 0xFF	; 255
    4ade:	af 4f       	sbci	r26, 0xFF	; 255
    4ae0:	b1 e0       	ldi	r27, 0x01	; 1
    4ae2:	3e d0       	rcall	.+124    	; 0x4b60 <__ultoa_invert+0x9c>
    4ae4:	b4 e0       	ldi	r27, 0x04	; 4
    4ae6:	3c d0       	rcall	.+120    	; 0x4b60 <__ultoa_invert+0x9c>
    4ae8:	67 0f       	add	r22, r23
    4aea:	78 1f       	adc	r23, r24
    4aec:	89 1f       	adc	r24, r25
    4aee:	9a 1f       	adc	r25, r26
    4af0:	a1 1d       	adc	r26, r1
    4af2:	68 0f       	add	r22, r24
    4af4:	79 1f       	adc	r23, r25
    4af6:	8a 1f       	adc	r24, r26
    4af8:	91 1d       	adc	r25, r1
    4afa:	a1 1d       	adc	r26, r1
    4afc:	6a 0f       	add	r22, r26
    4afe:	71 1d       	adc	r23, r1
    4b00:	81 1d       	adc	r24, r1
    4b02:	91 1d       	adc	r25, r1
    4b04:	a1 1d       	adc	r26, r1
    4b06:	20 d0       	rcall	.+64     	; 0x4b48 <__ultoa_invert+0x84>
    4b08:	09 f4       	brne	.+2      	; 0x4b0c <__ultoa_invert+0x48>
    4b0a:	68 94       	set
    4b0c:	3f 91       	pop	r19
    4b0e:	2a e0       	ldi	r18, 0x0A	; 10
    4b10:	26 9f       	mul	r18, r22
    4b12:	11 24       	eor	r1, r1
    4b14:	30 19       	sub	r19, r0
    4b16:	30 5d       	subi	r19, 0xD0	; 208
    4b18:	31 93       	st	Z+, r19
    4b1a:	de f6       	brtc	.-74     	; 0x4ad2 <__ultoa_invert+0xe>
    4b1c:	cf 01       	movw	r24, r30
    4b1e:	08 95       	ret
    4b20:	46 2f       	mov	r20, r22
    4b22:	47 70       	andi	r20, 0x07	; 7
    4b24:	40 5d       	subi	r20, 0xD0	; 208
    4b26:	41 93       	st	Z+, r20
    4b28:	b3 e0       	ldi	r27, 0x03	; 3
    4b2a:	0f d0       	rcall	.+30     	; 0x4b4a <__ultoa_invert+0x86>
    4b2c:	c9 f7       	brne	.-14     	; 0x4b20 <__ultoa_invert+0x5c>
    4b2e:	f6 cf       	rjmp	.-20     	; 0x4b1c <__ultoa_invert+0x58>
    4b30:	46 2f       	mov	r20, r22
    4b32:	4f 70       	andi	r20, 0x0F	; 15
    4b34:	40 5d       	subi	r20, 0xD0	; 208
    4b36:	4a 33       	cpi	r20, 0x3A	; 58
    4b38:	18 f0       	brcs	.+6      	; 0x4b40 <__ultoa_invert+0x7c>
    4b3a:	49 5d       	subi	r20, 0xD9	; 217
    4b3c:	31 fd       	sbrc	r19, 1
    4b3e:	40 52       	subi	r20, 0x20	; 32
    4b40:	41 93       	st	Z+, r20
    4b42:	02 d0       	rcall	.+4      	; 0x4b48 <__ultoa_invert+0x84>
    4b44:	a9 f7       	brne	.-22     	; 0x4b30 <__ultoa_invert+0x6c>
    4b46:	ea cf       	rjmp	.-44     	; 0x4b1c <__ultoa_invert+0x58>
    4b48:	b4 e0       	ldi	r27, 0x04	; 4
    4b4a:	a6 95       	lsr	r26
    4b4c:	97 95       	ror	r25
    4b4e:	87 95       	ror	r24
    4b50:	77 95       	ror	r23
    4b52:	67 95       	ror	r22
    4b54:	ba 95       	dec	r27
    4b56:	c9 f7       	brne	.-14     	; 0x4b4a <__ultoa_invert+0x86>
    4b58:	00 97       	sbiw	r24, 0x00	; 0
    4b5a:	61 05       	cpc	r22, r1
    4b5c:	71 05       	cpc	r23, r1
    4b5e:	08 95       	ret
    4b60:	9b 01       	movw	r18, r22
    4b62:	ac 01       	movw	r20, r24
    4b64:	0a 2e       	mov	r0, r26
    4b66:	06 94       	lsr	r0
    4b68:	57 95       	ror	r21
    4b6a:	47 95       	ror	r20
    4b6c:	37 95       	ror	r19
    4b6e:	27 95       	ror	r18
    4b70:	ba 95       	dec	r27
    4b72:	c9 f7       	brne	.-14     	; 0x4b66 <__ultoa_invert+0xa2>
    4b74:	62 0f       	add	r22, r18
    4b76:	73 1f       	adc	r23, r19
    4b78:	84 1f       	adc	r24, r20
    4b7a:	95 1f       	adc	r25, r21
    4b7c:	a0 1d       	adc	r26, r0
    4b7e:	08 95       	ret

00004b80 <eeprom_read_block>:
    4b80:	60 50       	subi	r22, 0x00	; 0
    4b82:	7c 4e       	sbci	r23, 0xEC	; 236
    4b84:	0c 94 fb 25 	jmp	0x4bf6	; 0x4bf6 <memcpy>

00004b88 <eeprom_update_block>:
    4b88:	dc 01       	movw	r26, r24
    4b8a:	a4 0f       	add	r26, r20
    4b8c:	b5 1f       	adc	r27, r21
    4b8e:	41 50       	subi	r20, 0x01	; 1
    4b90:	50 40       	sbci	r21, 0x00	; 0
    4b92:	48 f0       	brcs	.+18     	; 0x4ba6 <eeprom_update_block+0x1e>
    4b94:	cb 01       	movw	r24, r22
    4b96:	84 0f       	add	r24, r20
    4b98:	95 1f       	adc	r25, r21
    4b9a:	2e 91       	ld	r18, -X
    4b9c:	0e 94 d5 25 	call	0x4baa	; 0x4baa <eeprom_update_r18>
    4ba0:	41 50       	subi	r20, 0x01	; 1
    4ba2:	50 40       	sbci	r21, 0x00	; 0
    4ba4:	d0 f7       	brcc	.-12     	; 0x4b9a <eeprom_update_block+0x12>
    4ba6:	08 95       	ret

00004ba8 <eeprom_update_byte>:
    4ba8:	26 2f       	mov	r18, r22

00004baa <eeprom_update_r18>:
    4baa:	0e 94 f7 25 	call	0x4bee	; 0x4bee <eeprom_mapen>
    4bae:	00 80       	ld	r0, Z
    4bb0:	02 16       	cp	r0, r18
    4bb2:	19 f0       	breq	.+6      	; 0x4bba <eeprom_update_r18+0x10>
    4bb4:	0e 94 e0 25 	call	0x4bc0	; 0x4bc0 <eeprom_write_r18>
    4bb8:	01 97       	sbiw	r24, 0x01	; 1
    4bba:	01 97       	sbiw	r24, 0x01	; 1
    4bbc:	08 95       	ret

00004bbe <eeprom_write_byte>:
    4bbe:	26 2f       	mov	r18, r22

00004bc0 <eeprom_write_r18>:
    4bc0:	af 93       	push	r26
    4bc2:	bf 93       	push	r27
    4bc4:	e0 e0       	ldi	r30, 0x00	; 0
    4bc6:	f0 e1       	ldi	r31, 0x10	; 16
    4bc8:	32 81       	ldd	r19, Z+2	; 0x02
    4bca:	31 fd       	sbrc	r19, 1
    4bcc:	fd cf       	rjmp	.-6      	; 0x4bc8 <eeprom_write_r18+0x8>
    4bce:	dc 01       	movw	r26, r24
    4bd0:	a0 50       	subi	r26, 0x00	; 0
    4bd2:	bc 4e       	sbci	r27, 0xEC	; 236
    4bd4:	2c 93       	st	X, r18
    4bd6:	2d e9       	ldi	r18, 0x9D	; 157
    4bd8:	24 bf       	out	0x34, r18	; 52
    4bda:	23 e0       	ldi	r18, 0x03	; 3
    4bdc:	20 83       	st	Z, r18
    4bde:	01 96       	adiw	r24, 0x01	; 1
    4be0:	bf 91       	pop	r27
    4be2:	af 91       	pop	r26
    4be4:	08 95       	ret

00004be6 <eeprom_read_byte>:
    4be6:	03 d0       	rcall	.+6      	; 0x4bee <eeprom_mapen>
    4be8:	80 81       	ld	r24, Z
    4bea:	99 27       	eor	r25, r25
    4bec:	08 95       	ret

00004bee <eeprom_mapen>:
    4bee:	fc 01       	movw	r30, r24
    4bf0:	e0 50       	subi	r30, 0x00	; 0
    4bf2:	fc 4e       	sbci	r31, 0xEC	; 236
    4bf4:	08 95       	ret

00004bf6 <memcpy>:
    4bf6:	fb 01       	movw	r30, r22
    4bf8:	dc 01       	movw	r26, r24
    4bfa:	02 c0       	rjmp	.+4      	; 0x4c00 <memcpy+0xa>
    4bfc:	01 90       	ld	r0, Z+
    4bfe:	0d 92       	st	X+, r0
    4c00:	41 50       	subi	r20, 0x01	; 1
    4c02:	50 40       	sbci	r21, 0x00	; 0
    4c04:	d8 f7       	brcc	.-10     	; 0x4bfc <memcpy+0x6>
    4c06:	08 95       	ret

00004c08 <_exit>:
    4c08:	f8 94       	cli

00004c0a <__stop_program>:
    4c0a:	ff cf       	rjmp	.-2      	; 0x4c0a <__stop_program>
