
specMech.elf:     file format elf32-avr

Sections:
Idx Name          Size      VMA       LMA       File off  Algn
  0 .data         00000004  00802800  00004d01  00004db5  2**0
                  CONTENTS, ALLOC, LOAD, DATA
  1 .text         000048a6  00000000  00000000  000000b4  2**1
                  CONTENTS, ALLOC, LOAD, READONLY, CODE
  2 .rodata       0000045b  000088a6  000048a6  0000495a  2**0
                  CONTENTS, ALLOC, LOAD, READONLY, DATA
  3 .bss          00000831  00802804  00802804  00004db9  2**0
                  ALLOC
  4 .comment      0000005c  00000000  00000000  00004db9  2**0
                  CONTENTS, READONLY
  5 .note.gnu.avr.deviceinfo 00000040  00000000  00000000  00004e18  2**2
                  CONTENTS, READONLY
  6 .debug_aranges 00000678  00000000  00000000  00004e58  2**3
                  CONTENTS, READONLY, DEBUGGING
  7 .debug_info   0000a5b7  00000000  00000000  000054d0  2**0
                  CONTENTS, READONLY, DEBUGGING
  8 .debug_abbrev 0000480e  00000000  00000000  0000fa87  2**0
                  CONTENTS, READONLY, DEBUGGING
  9 .debug_line   00004685  00000000  00000000  00014295  2**0
                  CONTENTS, READONLY, DEBUGGING
 10 .debug_frame  00001054  00000000  00000000  0001891c  2**2
                  CONTENTS, READONLY, DEBUGGING
 11 .debug_str    0000233f  00000000  00000000  00019970  2**0
                  CONTENTS, READONLY, DEBUGGING
 12 .debug_loc    00004308  00000000  00000000  0001bcaf  2**0
                  CONTENTS, READONLY, DEBUGGING
 13 .debug_ranges 000003d8  00000000  00000000  0001ffb7  2**0
                  CONTENTS, READONLY, DEBUGGING

Disassembly of section .text:

00000000 <__vectors>:
       0:	0c 94 2a 01 	jmp	0x254	; 0x254 <__ctors_end>
       4:	0c 94 47 01 	jmp	0x28e	; 0x28e <__bad_interrupt>
       8:	0c 94 47 01 	jmp	0x28e	; 0x28e <__bad_interrupt>
       c:	0c 94 a1 17 	jmp	0x2f42	; 0x2f42 <__vector_3>
      10:	0c 94 47 01 	jmp	0x28e	; 0x28e <__bad_interrupt>
      14:	0c 94 47 01 	jmp	0x28e	; 0x28e <__bad_interrupt>
      18:	0c 94 47 01 	jmp	0x28e	; 0x28e <__bad_interrupt>
      1c:	0c 94 47 01 	jmp	0x28e	; 0x28e <__bad_interrupt>
      20:	0c 94 47 01 	jmp	0x28e	; 0x28e <__bad_interrupt>
      24:	0c 94 47 01 	jmp	0x28e	; 0x28e <__bad_interrupt>
      28:	0c 94 47 01 	jmp	0x28e	; 0x28e <__bad_interrupt>
      2c:	0c 94 47 01 	jmp	0x28e	; 0x28e <__bad_interrupt>
      30:	0c 94 b0 18 	jmp	0x3160	; 0x3160 <__vector_12>
      34:	0c 94 47 01 	jmp	0x28e	; 0x28e <__bad_interrupt>
      38:	0c 94 47 01 	jmp	0x28e	; 0x28e <__bad_interrupt>
      3c:	0c 94 47 01 	jmp	0x28e	; 0x28e <__bad_interrupt>
      40:	0c 94 47 01 	jmp	0x28e	; 0x28e <__bad_interrupt>
      44:	0c 94 56 1a 	jmp	0x34ac	; 0x34ac <__vector_17>
      48:	0c 94 99 1a 	jmp	0x3532	; 0x3532 <__vector_18>
      4c:	0c 94 47 01 	jmp	0x28e	; 0x28e <__bad_interrupt>
      50:	0c 94 3f 0e 	jmp	0x1c7e	; 0x1c7e <__vector_20>
      54:	0c 94 47 01 	jmp	0x28e	; 0x28e <__bad_interrupt>
      58:	0c 94 47 01 	jmp	0x28e	; 0x28e <__bad_interrupt>
      5c:	0c 94 47 01 	jmp	0x28e	; 0x28e <__bad_interrupt>
      60:	0c 94 47 01 	jmp	0x28e	; 0x28e <__bad_interrupt>
      64:	0c 94 47 01 	jmp	0x28e	; 0x28e <__bad_interrupt>
      68:	0c 94 d0 1a 	jmp	0x35a0	; 0x35a0 <__vector_26>
      6c:	0c 94 fb 1a 	jmp	0x35f6	; 0x35f6 <__vector_27>
      70:	0c 94 47 01 	jmp	0x28e	; 0x28e <__bad_interrupt>
      74:	0c 94 9f 1b 	jmp	0x373e	; 0x373e <__vector_29>
      78:	0c 94 47 01 	jmp	0x28e	; 0x28e <__bad_interrupt>
      7c:	0c 94 47 01 	jmp	0x28e	; 0x28e <__bad_interrupt>
      80:	0c 94 47 01 	jmp	0x28e	; 0x28e <__bad_interrupt>
      84:	0c 94 47 01 	jmp	0x28e	; 0x28e <__bad_interrupt>
      88:	0c 94 47 01 	jmp	0x28e	; 0x28e <__bad_interrupt>
      8c:	0c 94 47 01 	jmp	0x28e	; 0x28e <__bad_interrupt>
      90:	0c 94 47 01 	jmp	0x28e	; 0x28e <__bad_interrupt>
      94:	0c 94 32 1b 	jmp	0x3664	; 0x3664 <__vector_37>
      98:	0c 94 67 1b 	jmp	0x36ce	; 0x36ce <__vector_38>
      9c:	0c 94 47 01 	jmp	0x28e	; 0x28e <__bad_interrupt>
      a0:	9e 04       	cpc	r9, r14
      a2:	ac 04       	cpc	r10, r12
      a4:	ac 04       	cpc	r10, r12
      a6:	ac 04       	cpc	r10, r12
      a8:	ac 04       	cpc	r10, r12
      aa:	ac 04       	cpc	r10, r12
      ac:	ac 04       	cpc	r10, r12
      ae:	ac 04       	cpc	r10, r12
      b0:	ac 04       	cpc	r10, r12
      b2:	ac 04       	cpc	r10, r12
      b4:	ac 04       	cpc	r10, r12
      b6:	ac 04       	cpc	r10, r12
      b8:	ac 04       	cpc	r10, r12
      ba:	ac 04       	cpc	r10, r12
      bc:	ac 04       	cpc	r10, r12
      be:	ac 04       	cpc	r10, r12
      c0:	ac 04       	cpc	r10, r12
      c2:	8c 04       	cpc	r8, r12
      c4:	ac 04       	cpc	r10, r12
      c6:	ac 04       	cpc	r10, r12
      c8:	ac 04       	cpc	r10, r12
      ca:	ac 04       	cpc	r10, r12
      cc:	ac 04       	cpc	r10, r12
      ce:	ac 04       	cpc	r10, r12
      d0:	ac 04       	cpc	r10, r12
      d2:	ac 04       	cpc	r10, r12
      d4:	ac 04       	cpc	r10, r12
      d6:	92 04       	cpc	r9, r2
      d8:	ac 04       	cpc	r10, r12
      da:	8f 04       	cpc	r8, r15
      dc:	ac 04       	cpc	r10, r12
      de:	ac 04       	cpc	r10, r12
      e0:	95 04       	cpc	r9, r5
      e2:	98 04       	cpc	r9, r8
      e4:	9b 04       	cpc	r9, r11
      e6:	4e 0f       	add	r20, r30
      e8:	4e 0f       	add	r20, r30
      ea:	4e 0f       	add	r20, r30
      ec:	18 14       	cp	r1, r8
      ee:	18 14       	cp	r1, r8
      f0:	18 14       	cp	r1, r8
      f2:	18 14       	cp	r1, r8
      f4:	18 14       	cp	r1, r8
      f6:	18 14       	cp	r1, r8
      f8:	18 14       	cp	r1, r8
      fa:	18 14       	cp	r1, r8
      fc:	18 14       	cp	r1, r8
      fe:	18 14       	cp	r1, r8
     100:	18 14       	cp	r1, r8
     102:	18 14       	cp	r1, r8
     104:	18 14       	cp	r1, r8
     106:	18 14       	cp	r1, r8
     108:	18 14       	cp	r1, r8
     10a:	18 14       	cp	r1, r8
     10c:	18 14       	cp	r1, r8
     10e:	18 14       	cp	r1, r8
     110:	d9 13       	cpse	r29, r25
     112:	18 14       	cp	r1, r8
     114:	18 14       	cp	r1, r8
     116:	18 14       	cp	r1, r8
     118:	18 14       	cp	r1, r8
     11a:	18 14       	cp	r1, r8
     11c:	18 14       	cp	r1, r8
     11e:	18 14       	cp	r1, r8
     120:	18 14       	cp	r1, r8
     122:	18 14       	cp	r1, r8
     124:	18 14       	cp	r1, r8
     126:	de 0f       	add	r29, r30
     128:	de 0f       	add	r29, r30
     12a:	de 0f       	add	r29, r30
     12c:	18 14       	cp	r1, r8
     12e:	9c 10       	cpse	r9, r12
     130:	18 14       	cp	r1, r8
     132:	18 14       	cp	r1, r8
     134:	18 14       	cp	r1, r8
     136:	18 14       	cp	r1, r8
     138:	18 14       	cp	r1, r8
     13a:	18 14       	cp	r1, r8
     13c:	18 14       	cp	r1, r8
     13e:	18 14       	cp	r1, r8
     140:	18 14       	cp	r1, r8
     142:	d9 11       	cpse	r29, r9
     144:	af 12       	cpse	r10, r31
     146:	18 14       	cp	r1, r8
     148:	18 14       	cp	r1, r8
     14a:	18 14       	cp	r1, r8
     14c:	38 13       	cpse	r19, r24
     14e:	18 14       	cp	r1, r8
     150:	80 13       	cpse	r24, r16

00000152 <__trampolines_end>:
     152:	6e 61       	ori	r22, 0x1E	; 30
     154:	6e 00       	.word	0x006e	; ????

00000156 <__c.2332>:
     156:	69 6e 66 00 00 40 7a 10 f3 5a 00 a0 72 4e 18 09     inf..@z..Z..rN..
     166:	00 10 a5 d4 e8 00 00 e8 76 48 17 00 00 e4 0b 54     ........vH.....T
     176:	02 00 00 ca 9a 3b 00 00 00 e1 f5 05 00 00 80 96     .....;..........
     186:	98 00 00 00 40 42 0f 00 00 00 a0 86 01 00 00 00     ....@B..........
     196:	10 27 00 00 00 00 e8 03 00 00 00 00 64 00 00 00     .'..........d...
     1a6:	00 00 0a 00 00 00 00 00 01 00 00 00 00 00 2c 76     ..............,v
     1b6:	d8 88 dc 67 4f 08 23 df c1 df ae 59 e1 b1 b7 96     ...gO.#....Y....
     1c6:	e5 e3 e4 53 c6 3a e6 51 99 76 96 e8 e6 c2 84 26     ...S.:.Q.v.....&
     1d6:	eb 89 8c 9b 62 ed 40 7c 6f fc ef bc 9c 9f 40 f2     ....b.@|o.....@.
     1e6:	ba a5 6f a5 f4 90 05 5a 2a f7 5c 93 6b 6c f9 67     ..o....Z*.\.kl.g
     1f6:	6d c1 1b fc e0 e4 0d 47 fe f5 20 e6 b5 00 d0 ed     m......G.. .....
     206:	90 2e 03 00 94 35 77 05 00 80 84 1e 08 00 00 20     .....5w........ 
     216:	4e 0a 00 00 00 c8 0c 33 33 33 33 0f 98 6e 12 83     N......3333..n..
     226:	11 41 ef 8d 21 14 89 3b e6 55 16 cf fe e6 db 18     .A..!..;.U......
     236:	d1 84 4b 38 1b f7 7c 1d 90 1d a4 bb e4 24 20 32     ..K8..|......$ 2
     246:	84 72 5e 22 81 00 c9 f1 24 ec a1 e5 3d 27           .r^"....$...='

00000254 <__ctors_end>:
     254:	11 24       	eor	r1, r1
     256:	1f be       	out	0x3f, r1	; 63
     258:	cf ef       	ldi	r28, 0xFF	; 255
     25a:	cd bf       	out	0x3d, r28	; 61
     25c:	df e3       	ldi	r29, 0x3F	; 63
     25e:	de bf       	out	0x3e, r29	; 62

00000260 <__do_copy_data>:
     260:	18 e2       	ldi	r17, 0x28	; 40
     262:	a0 e0       	ldi	r26, 0x00	; 0
     264:	b8 e2       	ldi	r27, 0x28	; 40
     266:	e1 e0       	ldi	r30, 0x01	; 1
     268:	fd e4       	ldi	r31, 0x4D	; 77
     26a:	02 c0       	rjmp	.+4      	; 0x270 <__do_copy_data+0x10>
     26c:	05 90       	lpm	r0, Z+
     26e:	0d 92       	st	X+, r0
     270:	a4 30       	cpi	r26, 0x04	; 4
     272:	b1 07       	cpc	r27, r17
     274:	d9 f7       	brne	.-10     	; 0x26c <__do_copy_data+0xc>

00000276 <__do_clear_bss>:
     276:	20 e3       	ldi	r18, 0x30	; 48
     278:	a4 e0       	ldi	r26, 0x04	; 4
     27a:	b8 e2       	ldi	r27, 0x28	; 40
     27c:	01 c0       	rjmp	.+2      	; 0x280 <.do_clear_bss_start>

0000027e <.do_clear_bss_loop>:
     27e:	1d 92       	st	X+, r1

00000280 <.do_clear_bss_start>:
     280:	a5 33       	cpi	r26, 0x35	; 53
     282:	b2 07       	cpc	r27, r18
     284:	e1 f7       	brne	.-8      	; 0x27e <.do_clear_bss_loop>
     286:	0e 94 9c 08 	call	0x1138	; 0x1138 <main>
     28a:	0c 94 51 24 	jmp	0x48a2	; 0x48a2 <_exit>

0000028e <__bad_interrupt>:
     28e:	0c 94 00 00 	jmp	0	; 0x0 <__vectors>

00000292 <read_AD590>:

	Output:
		Returns the temperature. -999.9 for invalid sensor value
------------------------------------------------------------------------------*/
uint8_t read_AD590(uint8_t sensor, float *temperature)
{
     292:	8f 92       	push	r8
     294:	9f 92       	push	r9
     296:	af 92       	push	r10
     298:	bf 92       	push	r11
     29a:	ef 92       	push	r14
     29c:	ff 92       	push	r15
     29e:	0f 93       	push	r16
     2a0:	1f 93       	push	r17
     2a2:	cf 93       	push	r28
     2a4:	df 93       	push	r29
     2a6:	00 d0       	rcall	.+0      	; 0x2a8 <read_AD590+0x16>
     2a8:	00 d0       	rcall	.+0      	; 0x2aa <read_AD590+0x18>
     2aa:	cd b7       	in	r28, 0x3d	; 61
     2ac:	de b7       	in	r29, 0x3e	; 62
     2ae:	7b 01       	movw	r14, r22

	uint8_t pins;
	float voltage, offset;

	offset = 0.0;
	switch (sensor) {		// Select the sensor(s) to turn on
     2b0:	81 30       	cpi	r24, 0x01	; 1
     2b2:	c9 f0       	breq	.+50     	; 0x2e6 <read_AD590+0x54>
     2b4:	18 f0       	brcs	.+6      	; 0x2bc <read_AD590+0x2a>
     2b6:	82 30       	cpi	r24, 0x02	; 2
     2b8:	61 f0       	breq	.+24     	; 0x2d2 <read_AD590+0x40>
     2ba:	10 c0       	rjmp	.+32     	; 0x2dc <read_AD590+0x4a>
		case 0:
			pins = 0x01;	// t0
			offset = 7.6;
     2bc:	0f 2e       	mov	r0, r31
     2be:	f3 e3       	ldi	r31, 0x33	; 51
     2c0:	8f 2e       	mov	r8, r31
     2c2:	98 2c       	mov	r9, r8
     2c4:	f3 ef       	ldi	r31, 0xF3	; 243
     2c6:	af 2e       	mov	r10, r31
     2c8:	f0 e4       	ldi	r31, 0x40	; 64
     2ca:	bf 2e       	mov	r11, r31
     2cc:	f0 2d       	mov	r31, r0
	float voltage, offset;

	offset = 0.0;
	switch (sensor) {		// Select the sensor(s) to turn on
		case 0:
			pins = 0x01;	// t0
     2ce:	11 e0       	ldi	r17, 0x01	; 1
     2d0:	0e c0       	rjmp	.+28     	; 0x2ee <read_AD590+0x5c>
			pins = 0x04;	// t1
			offset = 0.0;
			break;
		case 2:
			pins = 0x10;	// t2
			offset = 0.0;
     2d2:	81 2c       	mov	r8, r1
     2d4:	91 2c       	mov	r9, r1
     2d6:	54 01       	movw	r10, r8
		case 1:
			pins = 0x04;	// t1
			offset = 0.0;
			break;
		case 2:
			pins = 0x10;	// t2
     2d8:	10 e1       	ldi	r17, 0x10	; 16
			offset = 0.0;
			break;
     2da:	09 c0       	rjmp	.+18     	; 0x2ee <read_AD590+0x5c>
{

	uint8_t pins;
	float voltage, offset;

	offset = 0.0;
     2dc:	81 2c       	mov	r8, r1
     2de:	91 2c       	mov	r9, r1
     2e0:	54 01       	movw	r10, r8
		case 2:
			pins = 0x10;	// t2
			offset = 0.0;
			break;
		default:
			pins = 0x00;
     2e2:	10 e0       	ldi	r17, 0x00	; 0
			break;
     2e4:	04 c0       	rjmp	.+8      	; 0x2ee <read_AD590+0x5c>
			pins = 0x01;	// t0
			offset = 7.6;
			break;
		case 1:
			pins = 0x04;	// t1
			offset = 0.0;
     2e6:	81 2c       	mov	r8, r1
     2e8:	91 2c       	mov	r9, r1
     2ea:	54 01       	movw	r10, r8
		case 0:
			pins = 0x01;	// t0
			offset = 7.6;
			break;
		case 1:
			pins = 0x04;	// t1
     2ec:	14 e0       	ldi	r17, 0x04	; 4
			pins = 0x00;
			break;
	}

	// Turn on the selected AD590 sensor
	write_MCP23008(AD590DRIVER, GPPU, 0x00);	// Disable pullups on input pins
     2ee:	40 e0       	ldi	r20, 0x00	; 0
     2f0:	66 e0       	ldi	r22, 0x06	; 6
     2f2:	87 e2       	ldi	r24, 0x27	; 39
     2f4:	0e 94 d0 08 	call	0x11a0	; 0x11a0 <write_MCP23008>
	write_MCP23008(AD590DRIVER, IODIR, ~pins);	// Pins are inputs if the bit is high
     2f8:	41 2f       	mov	r20, r17
     2fa:	40 95       	com	r20
     2fc:	60 e0       	ldi	r22, 0x00	; 0
     2fe:	87 e2       	ldi	r24, 0x27	; 39
     300:	0e 94 d0 08 	call	0x11a0	; 0x11a0 <write_MCP23008>
	write_MCP23008(AD590DRIVER, OLAT, pins);	// Set high the selected pins
     304:	41 2f       	mov	r20, r17
     306:	6a e0       	ldi	r22, 0x0A	; 10
     308:	87 e2       	ldi	r24, 0x27	; 39
     30a:	0e 94 d0 08 	call	0x11a0	; 0x11a0 <write_MCP23008>
	#else
		//round up by default
		__ticks_dc = (uint32_t)(ceil(fabs(__tmp)));
	#endif

	__builtin_avr_delay_cycles(__ticks_dc);
     30e:	86 e1       	ldi	r24, 0x16	; 22
     310:	8a 95       	dec	r24
     312:	f1 f7       	brne	.-4      	; 0x310 <read_AD590+0x7e>
     314:	00 00       	nop
	_delay_us(20);	// AD590 turn-on time

	// Use 0.512 volts range and 128 samples per second
	if (read_ADS1115(ADC_TE, PGA0512, AIN3, DR128, &voltage) == ERROR) {
     316:	8e 01       	movw	r16, r28
     318:	0f 5f       	subi	r16, 0xFF	; 255
     31a:	1f 4f       	sbci	r17, 0xFF	; 255
     31c:	20 e8       	ldi	r18, 0x80	; 128
     31e:	40 e7       	ldi	r20, 0x70	; 112
     320:	68 e0       	ldi	r22, 0x08	; 8
     322:	88 e4       	ldi	r24, 0x48	; 72
     324:	0e 94 ca 01 	call	0x394	; 0x394 <read_ADS1115>
     328:	83 36       	cpi	r24, 0x63	; 99
     32a:	51 f4       	brne	.+20     	; 0x340 <read_AD590+0xae>
		*temperature = BADFLOAT;
     32c:	40 e0       	ldi	r20, 0x00	; 0
     32e:	50 e8       	ldi	r21, 0x80	; 128
     330:	66 e2       	ldi	r22, 0x26	; 38
     332:	74 ec       	ldi	r23, 0xC4	; 196
     334:	f7 01       	movw	r30, r14
     336:	40 83       	st	Z, r20
     338:	51 83       	std	Z+1, r21	; 0x01
     33a:	62 83       	std	Z+2, r22	; 0x02
     33c:	73 83       	std	Z+3, r23	; 0x03
		return(ERROR);
     33e:	1c c0       	rjmp	.+56     	; 0x378 <read_AD590+0xe6>
	}
	*temperature = (AD590RESISTOR * voltage) - 273.15 + offset;	// Temperature & offset calibration
     340:	20 e0       	ldi	r18, 0x00	; 0
     342:	30 e0       	ldi	r19, 0x00	; 0
     344:	4a e7       	ldi	r20, 0x7A	; 122
     346:	54 e4       	ldi	r21, 0x44	; 68
     348:	69 81       	ldd	r22, Y+1	; 0x01
     34a:	7a 81       	ldd	r23, Y+2	; 0x02
     34c:	8b 81       	ldd	r24, Y+3	; 0x03
     34e:	9c 81       	ldd	r25, Y+4	; 0x04
     350:	0e 94 71 1d 	call	0x3ae2	; 0x3ae2 <__mulsf3>
     354:	23 e3       	ldi	r18, 0x33	; 51
     356:	33 e9       	ldi	r19, 0x93	; 147
     358:	48 e8       	ldi	r20, 0x88	; 136
     35a:	53 e4       	ldi	r21, 0x43	; 67
     35c:	0e 94 d6 1b 	call	0x37ac	; 0x37ac <__subsf3>
     360:	9b 01       	movw	r18, r22
     362:	ac 01       	movw	r20, r24
     364:	c5 01       	movw	r24, r10
     366:	b4 01       	movw	r22, r8
     368:	0e 94 d7 1b 	call	0x37ae	; 0x37ae <__addsf3>
     36c:	f7 01       	movw	r30, r14
     36e:	60 83       	st	Z, r22
     370:	71 83       	std	Z+1, r23	; 0x01
     372:	82 83       	std	Z+2, r24	; 0x02
     374:	93 83       	std	Z+3, r25	; 0x03
	return(NOERROR);
     376:	80 e0       	ldi	r24, 0x00	; 0

}
     378:	24 96       	adiw	r28, 0x04	; 4
     37a:	cd bf       	out	0x3d, r28	; 61
     37c:	de bf       	out	0x3e, r29	; 62
     37e:	df 91       	pop	r29
     380:	cf 91       	pop	r28
     382:	1f 91       	pop	r17
     384:	0f 91       	pop	r16
     386:	ff 90       	pop	r15
     388:	ef 90       	pop	r14
     38a:	bf 90       	pop	r11
     38c:	af 90       	pop	r10
     38e:	9f 90       	pop	r9
     390:	8f 90       	pop	r8
     392:	08 95       	ret

00000394 <read_ADS1115>:
			default of 128 samples per second although we haven't explored
			any other options.
------------------------------------------------------------------------------*/
uint8_t read_ADS1115(uint8_t addr, uint8_t gain, uint8_t pins,
	uint8_t datarate, float *voltage)
{
     394:	8f 92       	push	r8
     396:	9f 92       	push	r9
     398:	af 92       	push	r10
     39a:	bf 92       	push	r11
     39c:	cf 92       	push	r12
     39e:	df 92       	push	r13
     3a0:	ef 92       	push	r14
     3a2:	ff 92       	push	r15
     3a4:	0f 93       	push	r16
     3a6:	1f 93       	push	r17
     3a8:	cf 93       	push	r28
     3aa:	df 93       	push	r29
     3ac:	f8 2e       	mov	r15, r24
     3ae:	e6 2e       	mov	r14, r22
     3b0:	68 01       	movw	r12, r16
	float scale;
	uint8_t confighi, configlo, flag;
	uint8_t converting, lowbyte, highbyte;

	// Write the CONFIG register
	confighi = 0b10000001 | gain | pins;
     3b2:	46 2b       	or	r20, r22
     3b4:	c4 2f       	mov	r28, r20
     3b6:	c1 68       	ori	r28, 0x81	; 129
	configlo = datarate | 0b00000011;				// Disable comparator
     3b8:	d2 2f       	mov	r29, r18
     3ba:	d3 60       	ori	r29, 0x03	; 3

	*voltage = BADFLOAT;
     3bc:	80 e0       	ldi	r24, 0x00	; 0
     3be:	90 e8       	ldi	r25, 0x80	; 128
     3c0:	a6 e2       	ldi	r26, 0x26	; 38
     3c2:	b4 ec       	ldi	r27, 0xC4	; 196
     3c4:	f8 01       	movw	r30, r16
     3c6:	80 83       	st	Z, r24
     3c8:	91 83       	std	Z+1, r25	; 0x01
     3ca:	a2 83       	std	Z+2, r26	; 0x02
     3cc:	b3 83       	std	Z+3, r27	; 0x03
	if (start_TWI(addr, TWIWRITE == ERROR)) {		// TWI start condition
     3ce:	60 e0       	ldi	r22, 0x00	; 0
     3d0:	8f 2d       	mov	r24, r15
     3d2:	0e 94 f2 18 	call	0x31e4	; 0x31e4 <start_TWI>
     3d6:	08 2f       	mov	r16, r24
     3d8:	88 23       	and	r24, r24
     3da:	21 f0       	breq	.+8      	; 0x3e4 <read_ADS1115+0x50>
		stop_TWI();
     3dc:	0e 94 33 19 	call	0x3266	; 0x3266 <stop_TWI>
		return(ERROR);
     3e0:	13 e6       	ldi	r17, 0x63	; 99
     3e2:	b4 c0       	rjmp	.+360    	; 0x54c <__LOCK_REGION_LENGTH__+0x14c>
	}
	if ((write_TWI(ADS1115CONFIG) == ERROR)) {		// Write the CONFIG register
     3e4:	81 e0       	ldi	r24, 0x01	; 1
     3e6:	0e 94 37 19 	call	0x326e	; 0x326e <write_TWI>
     3ea:	18 2f       	mov	r17, r24
     3ec:	83 36       	cpi	r24, 0x63	; 99
     3ee:	19 f4       	brne	.+6      	; 0x3f6 <read_ADS1115+0x62>
		stop_TWI();
     3f0:	0e 94 33 19 	call	0x3266	; 0x3266 <stop_TWI>
		return(ERROR);
     3f4:	ab c0       	rjmp	.+342    	; 0x54c <__LOCK_REGION_LENGTH__+0x14c>
	}
	if ((write_TWI(confighi) == ERROR)) {			// Write high byte
     3f6:	8c 2f       	mov	r24, r28
     3f8:	0e 94 37 19 	call	0x326e	; 0x326e <write_TWI>
     3fc:	18 2f       	mov	r17, r24
     3fe:	83 36       	cpi	r24, 0x63	; 99
     400:	19 f4       	brne	.+6      	; 0x408 <__LOCK_REGION_LENGTH__+0x8>
		stop_TWI();
     402:	0e 94 33 19 	call	0x3266	; 0x3266 <stop_TWI>
		return(ERROR);
     406:	a2 c0       	rjmp	.+324    	; 0x54c <__LOCK_REGION_LENGTH__+0x14c>
	}
	if ((write_TWI(configlo) == ERROR)) {			// Write low byte
     408:	8d 2f       	mov	r24, r29
     40a:	0e 94 37 19 	call	0x326e	; 0x326e <write_TWI>
     40e:	18 2f       	mov	r17, r24
     410:	83 36       	cpi	r24, 0x63	; 99
     412:	19 f4       	brne	.+6      	; 0x41a <__LOCK_REGION_LENGTH__+0x1a>
		stop_TWI();
     414:	0e 94 33 19 	call	0x3266	; 0x3266 <stop_TWI>
		return(ERROR);
     418:	99 c0       	rjmp	.+306    	; 0x54c <__LOCK_REGION_LENGTH__+0x14c>
	}
	stop_TWI();
     41a:	0e 94 33 19 	call	0x3266	; 0x3266 <stop_TWI>
     41e:	fc e1       	ldi	r31, 0x1C	; 28
     420:	fa 95       	dec	r31
     422:	f1 f7       	brne	.-4      	; 0x420 <__LOCK_REGION_LENGTH__+0x20>

	_delay_us(25);									// Power-up time

	converting = YES;
     424:	c1 e0       	ldi	r28, 0x01	; 1
	while (converting) {							// Wait for conversion to finish
     426:	09 c0       	rjmp	.+18     	; 0x43a <__LOCK_REGION_LENGTH__+0x3a>
		start_TWI(addr, TWIREAD);
     428:	61 e0       	ldi	r22, 0x01	; 1
     42a:	8f 2d       	mov	r24, r15
     42c:	0e 94 f2 18 	call	0x31e4	; 0x31e4 <start_TWI>
		flag = readlast_TWI();
     430:	0e 94 e5 18 	call	0x31ca	; 0x31ca <readlast_TWI>
		if (flag & 0b10000000) {
     434:	88 23       	and	r24, r24
     436:	0c f4       	brge	.+2      	; 0x43a <__LOCK_REGION_LENGTH__+0x3a>
			converting = NO;
     438:	c0 e0       	ldi	r28, 0x00	; 0
	stop_TWI();

	_delay_us(25);									// Power-up time

	converting = YES;
	while (converting) {							// Wait for conversion to finish
     43a:	c1 11       	cpse	r28, r1
     43c:	f5 cf       	rjmp	.-22     	; 0x428 <__LOCK_REGION_LENGTH__+0x28>
		flag = readlast_TWI();
		if (flag & 0b10000000) {
			converting = NO;
		}
	}
	stop_TWI();
     43e:	0e 94 33 19 	call	0x3266	; 0x3266 <stop_TWI>

	start_TWI(addr, TWIWRITE);
     442:	60 e0       	ldi	r22, 0x00	; 0
     444:	8f 2d       	mov	r24, r15
     446:	0e 94 f2 18 	call	0x31e4	; 0x31e4 <start_TWI>
	write_TWI(ADS1115CONVERSION);					// Start the ADC conversion
     44a:	80 e0       	ldi	r24, 0x00	; 0
     44c:	0e 94 37 19 	call	0x326e	; 0x326e <write_TWI>
	start_TWI(addr, TWIREAD);						// Read the data
     450:	61 e0       	ldi	r22, 0x01	; 1
     452:	8f 2d       	mov	r24, r15
     454:	0e 94 f2 18 	call	0x31e4	; 0x31e4 <start_TWI>
	highbyte = read_TWI();
     458:	0e 94 d5 18 	call	0x31aa	; 0x31aa <read_TWI>
     45c:	c8 2f       	mov	r28, r24
	lowbyte = readlast_TWI();
     45e:	0e 94 e5 18 	call	0x31ca	; 0x31ca <readlast_TWI>
     462:	d8 2f       	mov	r29, r24
	stop_TWI();
     464:	0e 94 33 19 	call	0x3266	; 0x3266 <stop_TWI>

	value = highbyte;
     468:	6c 2f       	mov	r22, r28
     46a:	70 e0       	ldi	r23, 0x00	; 0
	value = value << 8;
     46c:	76 2f       	mov	r23, r22
     46e:	66 27       	eor	r22, r22
	value |= lowbyte;
     470:	6d 2b       	or	r22, r29

	switch (gain) {									// Convert to voltage
     472:	84 e0       	ldi	r24, 0x04	; 4
     474:	e8 16       	cp	r14, r24
     476:	49 f1       	breq	.+82     	; 0x4ca <__LOCK_REGION_LENGTH__+0xca>
     478:	8e 15       	cp	r24, r14
     47a:	30 f0       	brcs	.+12     	; 0x488 <__LOCK_REGION_LENGTH__+0x88>
     47c:	ee 20       	and	r14, r14
     47e:	d9 f1       	breq	.+118    	; 0x4f6 <__LOCK_REGION_LENGTH__+0xf6>
     480:	e2 e0       	ldi	r30, 0x02	; 2
     482:	ee 16       	cp	r14, r30
     484:	69 f1       	breq	.+90     	; 0x4e0 <__LOCK_REGION_LENGTH__+0xe0>
     486:	42 c0       	rjmp	.+132    	; 0x50c <__LOCK_REGION_LENGTH__+0x10c>
     488:	f8 e0       	ldi	r31, 0x08	; 8
     48a:	ef 16       	cp	r14, r31
     48c:	09 f4       	brne	.+2      	; 0x490 <__LOCK_REGION_LENGTH__+0x90>
     48e:	42 c0       	rjmp	.+132    	; 0x514 <__LOCK_REGION_LENGTH__+0x114>
     490:	8a e0       	ldi	r24, 0x0A	; 10
     492:	e8 16       	cp	r14, r24
     494:	21 f0       	breq	.+8      	; 0x49e <__LOCK_REGION_LENGTH__+0x9e>
     496:	e6 e0       	ldi	r30, 0x06	; 6
     498:	ee 12       	cpse	r14, r30
     49a:	38 c0       	rjmp	.+112    	; 0x50c <__LOCK_REGION_LENGTH__+0x10c>
     49c:	0b c0       	rjmp	.+22     	; 0x4b4 <__LOCK_REGION_LENGTH__+0xb4>
		case PGA0256:
			scale = SCA0256;
     49e:	0f 2e       	mov	r0, r31
     4a0:	f4 e7       	ldi	r31, 0x74	; 116
     4a2:	8f 2e       	mov	r8, r31
     4a4:	f3 e1       	ldi	r31, 0x13	; 19
     4a6:	9f 2e       	mov	r9, r31
     4a8:	f3 e0       	ldi	r31, 0x03	; 3
     4aa:	af 2e       	mov	r10, r31
     4ac:	f7 e3       	ldi	r31, 0x37	; 55
     4ae:	bf 2e       	mov	r11, r31
     4b0:	f0 2d       	mov	r31, r0
     4b2:	3a c0       	rjmp	.+116    	; 0x528 <__LOCK_REGION_LENGTH__+0x128>
			break;
		case PGA0512:
			scale = SCA0512;
			break;
		case PGA1024:
			scale = SCA1024;
     4b4:	0f 2e       	mov	r0, r31
     4b6:	f4 e7       	ldi	r31, 0x74	; 116
     4b8:	8f 2e       	mov	r8, r31
     4ba:	f3 e1       	ldi	r31, 0x13	; 19
     4bc:	9f 2e       	mov	r9, r31
     4be:	f3 e0       	ldi	r31, 0x03	; 3
     4c0:	af 2e       	mov	r10, r31
     4c2:	f8 e3       	ldi	r31, 0x38	; 56
     4c4:	bf 2e       	mov	r11, r31
     4c6:	f0 2d       	mov	r31, r0
			break;
     4c8:	2f c0       	rjmp	.+94     	; 0x528 <__LOCK_REGION_LENGTH__+0x128>
		case PGA2048:
			scale = SCA2048;
     4ca:	0f 2e       	mov	r0, r31
     4cc:	f2 e1       	ldi	r31, 0x12	; 18
     4ce:	8f 2e       	mov	r8, r31
     4d0:	f3 e1       	ldi	r31, 0x13	; 19
     4d2:	9f 2e       	mov	r9, r31
     4d4:	f3 e8       	ldi	r31, 0x83	; 131
     4d6:	af 2e       	mov	r10, r31
     4d8:	f8 e3       	ldi	r31, 0x38	; 56
     4da:	bf 2e       	mov	r11, r31
     4dc:	f0 2d       	mov	r31, r0
			break;
     4de:	24 c0       	rjmp	.+72     	; 0x528 <__LOCK_REGION_LENGTH__+0x128>
		case PGA4096:
			scale = SCA4096;
     4e0:	0f 2e       	mov	r0, r31
     4e2:	f4 e7       	ldi	r31, 0x74	; 116
     4e4:	8f 2e       	mov	r8, r31
     4e6:	f3 e1       	ldi	r31, 0x13	; 19
     4e8:	9f 2e       	mov	r9, r31
     4ea:	f3 e0       	ldi	r31, 0x03	; 3
     4ec:	af 2e       	mov	r10, r31
     4ee:	f9 e3       	ldi	r31, 0x39	; 57
     4f0:	bf 2e       	mov	r11, r31
     4f2:	f0 2d       	mov	r31, r0
			break;
     4f4:	19 c0       	rjmp	.+50     	; 0x528 <__LOCK_REGION_LENGTH__+0x128>
		case PGA6144:
			scale = SCA6144;
     4f6:	0f 2e       	mov	r0, r31
     4f8:	fe e2       	ldi	r31, 0x2E	; 46
     4fa:	8f 2e       	mov	r8, r31
     4fc:	fd e9       	ldi	r31, 0x9D	; 157
     4fe:	9f 2e       	mov	r9, r31
     500:	f4 e4       	ldi	r31, 0x44	; 68
     502:	af 2e       	mov	r10, r31
     504:	f9 e3       	ldi	r31, 0x39	; 57
     506:	bf 2e       	mov	r11, r31
     508:	f0 2d       	mov	r31, r0
			break;
     50a:	0e c0       	rjmp	.+28     	; 0x528 <__LOCK_REGION_LENGTH__+0x128>
		default:
			scale = 0.0;
     50c:	81 2c       	mov	r8, r1
     50e:	91 2c       	mov	r9, r1
     510:	54 01       	movw	r10, r8
			break;
     512:	0a c0       	rjmp	.+20     	; 0x528 <__LOCK_REGION_LENGTH__+0x128>
	switch (gain) {									// Convert to voltage
		case PGA0256:
			scale = SCA0256;
			break;
		case PGA0512:
			scale = SCA0512;
     514:	0f 2e       	mov	r0, r31
     516:	f1 e7       	ldi	r31, 0x71	; 113
     518:	8f 2e       	mov	r8, r31
     51a:	f3 e1       	ldi	r31, 0x13	; 19
     51c:	9f 2e       	mov	r9, r31
     51e:	f3 e8       	ldi	r31, 0x83	; 131
     520:	af 2e       	mov	r10, r31
     522:	f7 e3       	ldi	r31, 0x37	; 55
     524:	bf 2e       	mov	r11, r31
     526:	f0 2d       	mov	r31, r0
		default:
			scale = 0.0;
			break;
	}

	*voltage = scale * (float) value;
     528:	07 2e       	mov	r0, r23
     52a:	00 0c       	add	r0, r0
     52c:	88 0b       	sbc	r24, r24
     52e:	99 0b       	sbc	r25, r25
     530:	0e 94 bc 1c 	call	0x3978	; 0x3978 <__floatsisf>
     534:	9b 01       	movw	r18, r22
     536:	ac 01       	movw	r20, r24
     538:	c5 01       	movw	r24, r10
     53a:	b4 01       	movw	r22, r8
     53c:	0e 94 71 1d 	call	0x3ae2	; 0x3ae2 <__mulsf3>
     540:	f6 01       	movw	r30, r12
     542:	60 83       	st	Z, r22
     544:	71 83       	std	Z+1, r23	; 0x01
     546:	82 83       	std	Z+2, r24	; 0x02
     548:	93 83       	std	Z+3, r25	; 0x03
	return(NOERROR);
     54a:	10 2f       	mov	r17, r16

}
     54c:	81 2f       	mov	r24, r17
     54e:	df 91       	pop	r29
     550:	cf 91       	pop	r28
     552:	1f 91       	pop	r17
     554:	0f 91       	pop	r16
     556:	ff 90       	pop	r15
     558:	ef 90       	pop	r14
     55a:	df 90       	pop	r13
     55c:	cf 90       	pop	r12
     55e:	bf 90       	pop	r11
     560:	af 90       	pop	r10
     562:	9f 90       	pop	r9
     564:	8f 90       	pop	r8
     566:	08 95       	ret

00000568 <init_BEEPER>:
#include "beeper.h"

void init_BEEPER(void)
{

	PORTB.OUTSET = PIN2_bm;
     568:	e0 e2       	ldi	r30, 0x20	; 32
     56a:	f4 e0       	ldi	r31, 0x04	; 4
     56c:	84 e0       	ldi	r24, 0x04	; 4
     56e:	85 83       	std	Z+5, r24	; 0x05
	PORTB.DIRSET = PIN2_bm;
     570:	81 83       	std	Z+1, r24	; 0x01
	PORTB.OUTCLR = PIN2_bm;
     572:	86 83       	std	Z+6, r24	; 0x06
     574:	08 95       	ret

00000576 <get_cmdline>:
	if ((d >= '0') && (d <= '9')) {
		return(ERROR);
	}
	return(NOERROR);

}
     576:	cf 93       	push	r28
     578:	df 93       	push	r29
     57a:	9c 01       	movw	r18, r24
     57c:	40 e0       	ldi	r20, 0x00	; 0
     57e:	1c c0       	rjmp	.+56     	; 0x5b8 <get_cmdline+0x42>
     580:	cc e1       	ldi	r28, 0x1C	; 28
     582:	dc e2       	ldi	r29, 0x2C	; 44
     584:	e8 81       	ld	r30, Y
     586:	f0 e0       	ldi	r31, 0x00	; 0
     588:	e4 5e       	subi	r30, 0xE4	; 228
     58a:	f4 4d       	sbci	r31, 0xD4	; 212
     58c:	80 81       	ld	r24, Z
     58e:	f9 01       	movw	r30, r18
     590:	e4 0f       	add	r30, r20
     592:	f1 1d       	adc	r31, r1
     594:	80 83       	st	Z, r24
     596:	ae e1       	ldi	r26, 0x1E	; 30
     598:	bc e2       	ldi	r27, 0x2C	; 44
     59a:	8c 91       	ld	r24, X
     59c:	81 50       	subi	r24, 0x01	; 1
     59e:	8c 93       	st	X, r24
     5a0:	88 81       	ld	r24, Y
     5a2:	90 e0       	ldi	r25, 0x00	; 0
     5a4:	01 96       	adiw	r24, 0x01	; 1
     5a6:	6f ef       	ldi	r22, 0xFF	; 255
     5a8:	70 e0       	ldi	r23, 0x00	; 0
     5aa:	0e 94 5b 21 	call	0x42b6	; 0x42b6 <__divmodhi4>
     5ae:	88 83       	st	Y, r24
     5b0:	80 81       	ld	r24, Z
     5b2:	88 23       	and	r24, r24
     5b4:	29 f0       	breq	.+10     	; 0x5c0 <get_cmdline+0x4a>
     5b6:	4f 5f       	subi	r20, 0xFF	; 255
     5b8:	80 91 1e 2c 	lds	r24, 0x2C1E	; 0x802c1e <recv0_buf+0x102>
     5bc:	81 11       	cpse	r24, r1
     5be:	e0 cf       	rjmp	.-64     	; 0x580 <get_cmdline+0xa>
     5c0:	f9 01       	movw	r30, r18
     5c2:	e4 0f       	add	r30, r20
     5c4:	f1 1d       	adc	r31, r1
     5c6:	10 82       	st	Z, r1
     5c8:	df 91       	pop	r29
     5ca:	cf 91       	pop	r28
     5cc:	08 95       	ret

000005ce <isaletter>:
	Checks if the character is in the range A-Z and a-z
------------------------------------------------------------------------------*/
uint8_t isaletter(char c)
{

	if ((c >= 'a' && c <= 'z') || (c >= 'A' && c <= 'Z')) {
     5ce:	9f e9       	ldi	r25, 0x9F	; 159
     5d0:	98 0f       	add	r25, r24
     5d2:	9a 31       	cpi	r25, 0x1A	; 26
     5d4:	28 f0       	brcs	.+10     	; 0x5e0 <isaletter+0x12>
     5d6:	81 54       	subi	r24, 0x41	; 65
     5d8:	8a 31       	cpi	r24, 0x1A	; 26
     5da:	20 f4       	brcc	.+8      	; 0x5e4 <isaletter+0x16>
		return(ERROR);
     5dc:	83 e6       	ldi	r24, 0x63	; 99
     5de:	08 95       	ret
     5e0:	83 e6       	ldi	r24, 0x63	; 99
     5e2:	08 95       	ret
	}
	return(NOERROR);
     5e4:	80 e0       	ldi	r24, 0x00	; 0

}
     5e6:	08 95       	ret

000005e8 <parse_cmd>:
		ID - An identifier selected by the user, a character string.
	These components are in the ParsedCMD structure defined in main.c. The pcmd
	variable is a ParsedCMD array.
------------------------------------------------------------------------------*/
void parse_cmd(char *ptr, uint8_t n)
{
     5e8:	ef 92       	push	r14
     5ea:	ff 92       	push	r15
     5ec:	1f 93       	push	r17
     5ee:	cf 93       	push	r28
     5f0:	df 93       	push	r29
     5f2:	ec 01       	movw	r28, r24

	uint8_t i;

		// Clear the command parts
	pcmd[n].cverb = '?';
     5f4:	e6 2e       	mov	r14, r22
     5f6:	f1 2c       	mov	r15, r1
     5f8:	84 e3       	ldi	r24, 0x34	; 52
     5fa:	8e 9d       	mul	r24, r14
     5fc:	f0 01       	movw	r30, r0
     5fe:	8f 9d       	mul	r24, r15
     600:	f0 0d       	add	r31, r0
     602:	11 24       	eor	r1, r1
     604:	e9 5f       	subi	r30, 0xF9	; 249
     606:	f7 4d       	sbci	r31, 0xD7	; 215
     608:	8f e3       	ldi	r24, 0x3F	; 63
     60a:	80 83       	st	Z, r24
	pcmd[n].cobject = '?';
     60c:	81 83       	std	Z+1, r24	; 0x01
	pcmd[n].cvalue[0] = '\0';
     60e:	12 82       	std	Z+2, r1	; 0x02
	pcmd[n].cid[0] = '\0';
     610:	13 a6       	std	Z+43, r1	; 0x2b

		// Find the verb
	while (!isaletter(*ptr)) {		// the verb is a single letter
     612:	04 c0       	rjmp	.+8      	; 0x61c <parse_cmd+0x34>
		if (*ptr == '\0') {
     614:	11 23       	and	r17, r17
     616:	09 f4       	brne	.+2      	; 0x61a <parse_cmd+0x32>
     618:	75 c0       	rjmp	.+234    	; 0x704 <parse_cmd+0x11c>
			return;
		}
		ptr++;
     61a:	21 96       	adiw	r28, 0x01	; 1
	pcmd[n].cobject = '?';
	pcmd[n].cvalue[0] = '\0';
	pcmd[n].cid[0] = '\0';

		// Find the verb
	while (!isaletter(*ptr)) {		// the verb is a single letter
     61c:	18 81       	ld	r17, Y
     61e:	81 2f       	mov	r24, r17
     620:	0e 94 e7 02 	call	0x5ce	; 0x5ce <isaletter>
     624:	88 23       	and	r24, r24
     626:	b1 f3       	breq	.-20     	; 0x614 <parse_cmd+0x2c>
		if (*ptr == '\0') {
			return;
		}
		ptr++;
	}
	pcmd[n].cverb = *ptr++;
     628:	21 96       	adiw	r28, 0x01	; 1
     62a:	84 e3       	ldi	r24, 0x34	; 52
     62c:	8e 9d       	mul	r24, r14
     62e:	f0 01       	movw	r30, r0
     630:	8f 9d       	mul	r24, r15
     632:	f0 0d       	add	r31, r0
     634:	11 24       	eor	r1, r1
     636:	e9 5f       	subi	r30, 0xF9	; 249
     638:	f7 4d       	sbci	r31, 0xD7	; 215
     63a:	10 83       	st	Z, r17

		// Find the object
	while (!isaletter(*ptr)) {		// objects are single letters
     63c:	04 c0       	rjmp	.+8      	; 0x646 <parse_cmd+0x5e>
		if (*ptr == '\0') {
     63e:	11 23       	and	r17, r17
     640:	09 f4       	brne	.+2      	; 0x644 <parse_cmd+0x5c>
     642:	60 c0       	rjmp	.+192    	; 0x704 <parse_cmd+0x11c>
			return;
		}
		ptr++;
     644:	21 96       	adiw	r28, 0x01	; 1
		ptr++;
	}
	pcmd[n].cverb = *ptr++;

		// Find the object
	while (!isaletter(*ptr)) {		// objects are single letters
     646:	18 81       	ld	r17, Y
     648:	81 2f       	mov	r24, r17
     64a:	0e 94 e7 02 	call	0x5ce	; 0x5ce <isaletter>
     64e:	88 23       	and	r24, r24
     650:	b1 f3       	breq	.-20     	; 0x63e <parse_cmd+0x56>
		if (*ptr == '\0') {
			return;
		}
		ptr++;
	}
	pcmd[n].cobject = *ptr++;
     652:	21 96       	adiw	r28, 0x01	; 1
     654:	84 e3       	ldi	r24, 0x34	; 52
     656:	8e 9d       	mul	r24, r14
     658:	f0 01       	movw	r30, r0
     65a:	8f 9d       	mul	r24, r15
     65c:	f0 0d       	add	r31, r0
     65e:	11 24       	eor	r1, r1
     660:	e9 5f       	subi	r30, 0xF9	; 249
     662:	f7 4d       	sbci	r31, 0xD7	; 215
     664:	11 83       	std	Z+1, r17	; 0x01

		// Get the value, if there is one
	for (i = 0; i < CVALUESIZE; i++) {
     666:	80 e0       	ldi	r24, 0x00	; 0
     668:	2a c0       	rjmp	.+84     	; 0x6be <parse_cmd+0xd6>
		if (*ptr == '\0') {
     66a:	98 81       	ld	r25, Y
     66c:	91 11       	cpse	r25, r1
     66e:	0c c0       	rjmp	.+24     	; 0x688 <parse_cmd+0xa0>
			pcmd[n].cvalue[i] = '\0';
     670:	94 e3       	ldi	r25, 0x34	; 52
     672:	9e 9d       	mul	r25, r14
     674:	f0 01       	movw	r30, r0
     676:	9f 9d       	mul	r25, r15
     678:	f0 0d       	add	r31, r0
     67a:	11 24       	eor	r1, r1
     67c:	e9 5f       	subi	r30, 0xF9	; 249
     67e:	f7 4d       	sbci	r31, 0xD7	; 215
     680:	e8 0f       	add	r30, r24
     682:	f1 1d       	adc	r31, r1
     684:	12 82       	std	Z+2, r1	; 0x02
			return;
     686:	3e c0       	rjmp	.+124    	; 0x704 <parse_cmd+0x11c>
		}
		if (*ptr == ';') {			// Command ID separator
     688:	9b 33       	cpi	r25, 0x3B	; 59
     68a:	61 f4       	brne	.+24     	; 0x6a4 <parse_cmd+0xbc>
			pcmd[n].cvalue[i] = '\0';
     68c:	94 e3       	ldi	r25, 0x34	; 52
     68e:	9e 9d       	mul	r25, r14
     690:	f0 01       	movw	r30, r0
     692:	9f 9d       	mul	r25, r15
     694:	f0 0d       	add	r31, r0
     696:	11 24       	eor	r1, r1
     698:	e9 5f       	subi	r30, 0xF9	; 249
     69a:	f7 4d       	sbci	r31, 0xD7	; 215
     69c:	e8 0f       	add	r30, r24
     69e:	f1 1d       	adc	r31, r1
     6a0:	12 82       	std	Z+2, r1	; 0x02
			break;
     6a2:	0f c0       	rjmp	.+30     	; 0x6c2 <parse_cmd+0xda>
		}
		pcmd[n].cvalue[i] = *ptr++;
     6a4:	21 96       	adiw	r28, 0x01	; 1
     6a6:	24 e3       	ldi	r18, 0x34	; 52
     6a8:	2e 9d       	mul	r18, r14
     6aa:	f0 01       	movw	r30, r0
     6ac:	2f 9d       	mul	r18, r15
     6ae:	f0 0d       	add	r31, r0
     6b0:	11 24       	eor	r1, r1
     6b2:	e9 5f       	subi	r30, 0xF9	; 249
     6b4:	f7 4d       	sbci	r31, 0xD7	; 215
     6b6:	e8 0f       	add	r30, r24
     6b8:	f1 1d       	adc	r31, r1
     6ba:	92 83       	std	Z+2, r25	; 0x02
		ptr++;
	}
	pcmd[n].cobject = *ptr++;

		// Get the value, if there is one
	for (i = 0; i < CVALUESIZE; i++) {
     6bc:	8f 5f       	subi	r24, 0xFF	; 255
     6be:	89 32       	cpi	r24, 0x29	; 41
     6c0:	a0 f2       	brcs	.-88     	; 0x66a <parse_cmd+0x82>
		}
		pcmd[n].cvalue[i] = *ptr++;
	}

		// get the optional command ID if there is one
	ptr++;
     6c2:	21 96       	adiw	r28, 0x01	; 1
	for (i = 0; i < CIDSIZE; i++) {
     6c4:	80 e0       	ldi	r24, 0x00	; 0
     6c6:	1c c0       	rjmp	.+56     	; 0x700 <parse_cmd+0x118>
		if (*ptr == '\0') {
     6c8:	98 81       	ld	r25, Y
     6ca:	91 11       	cpse	r25, r1
     6cc:	0c c0       	rjmp	.+24     	; 0x6e6 <parse_cmd+0xfe>
			pcmd[n].cid[i] = '\0';
     6ce:	94 e3       	ldi	r25, 0x34	; 52
     6d0:	9e 9d       	mul	r25, r14
     6d2:	f0 01       	movw	r30, r0
     6d4:	9f 9d       	mul	r25, r15
     6d6:	f0 0d       	add	r31, r0
     6d8:	11 24       	eor	r1, r1
     6da:	e9 5f       	subi	r30, 0xF9	; 249
     6dc:	f7 4d       	sbci	r31, 0xD7	; 215
     6de:	e8 0f       	add	r30, r24
     6e0:	f1 1d       	adc	r31, r1
     6e2:	13 a6       	std	Z+43, r1	; 0x2b
			return;
     6e4:	0f c0       	rjmp	.+30     	; 0x704 <parse_cmd+0x11c>
		}
		pcmd[n].cid[i] = *ptr++;
     6e6:	21 96       	adiw	r28, 0x01	; 1
     6e8:	24 e3       	ldi	r18, 0x34	; 52
     6ea:	2e 9d       	mul	r18, r14
     6ec:	f0 01       	movw	r30, r0
     6ee:	2f 9d       	mul	r18, r15
     6f0:	f0 0d       	add	r31, r0
     6f2:	11 24       	eor	r1, r1
     6f4:	e9 5f       	subi	r30, 0xF9	; 249
     6f6:	f7 4d       	sbci	r31, 0xD7	; 215
     6f8:	e8 0f       	add	r30, r24
     6fa:	f1 1d       	adc	r31, r1
     6fc:	93 a7       	std	Z+43, r25	; 0x2b
		pcmd[n].cvalue[i] = *ptr++;
	}

		// get the optional command ID if there is one
	ptr++;
	for (i = 0; i < CIDSIZE; i++) {
     6fe:	8f 5f       	subi	r24, 0xFF	; 255
     700:	89 30       	cpi	r24, 0x09	; 9
     702:	10 f3       	brcs	.-60     	; 0x6c8 <parse_cmd+0xe0>
		pcmd[n].cid[i] = *ptr++;
	}	

	return;

}
     704:	df 91       	pop	r29
     706:	cf 91       	pop	r28
     708:	1f 91       	pop	r17
     70a:	ff 90       	pop	r15
     70c:	ef 90       	pop	r14
     70e:	08 95       	ret

00000710 <printLine>:
		been run and the system has received a reboot acknowledge (the !). This
		is done to prevent unsolicited text being sent (error messages) at
		initialization or after a reboot.
------------------------------------------------------------------------------*/
void printLine(char *str)
{
     710:	0f 93       	push	r16
     712:	1f 93       	push	r17
     714:	cf 93       	push	r28
     716:	df 93       	push	r29
     718:	cd b7       	in	r28, 0x3d	; 61
     71a:	de b7       	in	r29, 0x3e	; 62
     71c:	c6 50       	subi	r28, 0x06	; 6
     71e:	d1 40       	sbci	r29, 0x01	; 1
     720:	cd bf       	out	0x3d, r28	; 61
     722:	de bf       	out	0x3e, r29	; 62

	char strbuf[BUFSIZE];
	const char prFormat[] = "$S%d%s";
     724:	27 e0       	ldi	r18, 0x07	; 7
     726:	e6 ea       	ldi	r30, 0xA6	; 166
     728:	f8 e8       	ldi	r31, 0x88	; 136
     72a:	de 01       	movw	r26, r28
     72c:	b3 95       	inc	r27
     72e:	01 90       	ld	r0, Z+
     730:	0d 92       	st	X+, r0
     732:	2a 95       	dec	r18
     734:	e1 f7       	brne	.-8      	; 0x72e <printLine+0x1e>

	if (firstpass) {
     736:	20 91 05 28 	lds	r18, 0x2805	; 0x802805 <firstpass>
     73a:	21 11       	cpse	r18, r1
     73c:	29 c0       	rjmp	.+82     	; 0x790 <printLine+0x80>
		return;
	}

	sprintf(strbuf, prFormat, get_SPECID, str);
     73e:	20 91 a8 04 	lds	r18, 0x04A8	; 0x8004a8 <__TEXT_REGION_LENGTH__+0x7f44a8>
     742:	22 ff       	sbrs	r18, 2
     744:	03 c0       	rjmp	.+6      	; 0x74c <printLine+0x3c>
     746:	22 e0       	ldi	r18, 0x02	; 2
     748:	30 e0       	ldi	r19, 0x00	; 0
     74a:	02 c0       	rjmp	.+4      	; 0x750 <printLine+0x40>
     74c:	21 e0       	ldi	r18, 0x01	; 1
     74e:	30 e0       	ldi	r19, 0x00	; 0
     750:	9f 93       	push	r25
     752:	8f 93       	push	r24
     754:	3f 93       	push	r19
     756:	2f 93       	push	r18
     758:	ce 01       	movw	r24, r28
     75a:	93 95       	inc	r25
     75c:	9f 93       	push	r25
     75e:	8f 93       	push	r24
     760:	8e 01       	movw	r16, r28
     762:	0f 5f       	subi	r16, 0xFF	; 255
     764:	1f 4f       	sbci	r17, 0xFF	; 255
     766:	1f 93       	push	r17
     768:	0f 93       	push	r16
     76a:	0e 94 8d 23 	call	0x471a	; 0x471a <sprintf>
	checksum_NMEA(strbuf);
     76e:	c8 01       	movw	r24, r16
     770:	0e 94 9a 0a 	call	0x1534	; 0x1534 <checksum_NMEA>
	send_USART(0, (uint8_t*) strbuf, strlen(strbuf));
     774:	f8 01       	movw	r30, r16
     776:	01 90       	ld	r0, Z+
     778:	00 20       	and	r0, r0
     77a:	e9 f7       	brne	.-6      	; 0x776 <printLine+0x66>
     77c:	31 97       	sbiw	r30, 0x01	; 1
     77e:	af 01       	movw	r20, r30
     780:	40 1b       	sub	r20, r16
     782:	51 0b       	sbc	r21, r17
     784:	b8 01       	movw	r22, r16
     786:	80 e0       	ldi	r24, 0x00	; 0
     788:	0e 94 b6 19 	call	0x336c	; 0x336c <send_USART>
     78c:	cd bf       	out	0x3d, r28	; 61
     78e:	de bf       	out	0x3e, r29	; 62

}
     790:	ca 5f       	subi	r28, 0xFA	; 250
     792:	de 4f       	sbci	r29, 0xFE	; 254
     794:	cd bf       	out	0x3d, r28	; 61
     796:	de bf       	out	0x3e, r29	; 62
     798:	df 91       	pop	r29
     79a:	cf 91       	pop	r28
     79c:	1f 91       	pop	r17
     79e:	0f 91       	pop	r16
     7a0:	08 95       	ret

000007a2 <echo_cmd>:
/*------------------------------------------------------------------------------
void echo_cmd(char *cmdline)
	Echo the command line back to the user, adding NMEA header and checksum.
------------------------------------------------------------------------------*/
void echo_cmd(char *cmdline)
{
     7a2:	cf 92       	push	r12
     7a4:	df 92       	push	r13
     7a6:	ef 92       	push	r14
     7a8:	ff 92       	push	r15
     7aa:	0f 93       	push	r16
     7ac:	1f 93       	push	r17
     7ae:	cf 93       	push	r28
     7b0:	df 93       	push	r29
     7b2:	cd b7       	in	r28, 0x3d	; 61
     7b4:	de b7       	in	r29, 0x3e	; 62
     7b6:	cd 51       	subi	r28, 0x1D	; 29
     7b8:	d1 40       	sbci	r29, 0x01	; 1
     7ba:	cd bf       	out	0x3d, r28	; 61
     7bc:	de bf       	out	0x3e, r29	; 62
     7be:	d8 2e       	mov	r13, r24
     7c0:	c9 2e       	mov	r12, r25

	const char format_CMD[] = "CMD,%s,%s";
     7c2:	8a e0       	ldi	r24, 0x0A	; 10
     7c4:	ed ea       	ldi	r30, 0xAD	; 173
     7c6:	f8 e8       	ldi	r31, 0x88	; 136
     7c8:	9e 01       	movw	r18, r28
     7ca:	2f 5f       	subi	r18, 0xFF	; 255
     7cc:	3f 4f       	sbci	r19, 0xFF	; 255
     7ce:	79 01       	movw	r14, r18
     7d0:	d9 01       	movw	r26, r18
     7d2:	01 90       	ld	r0, Z+
     7d4:	0d 92       	st	X+, r0
     7d6:	8a 95       	dec	r24
     7d8:	e1 f7       	brne	.-8      	; 0x7d2 <echo_cmd+0x30>
	char currenttime[20], strbuf[BUFSIZE];

	get_time(currenttime);
     7da:	8e 01       	movw	r16, r28
     7dc:	05 5f       	subi	r16, 0xF5	; 245
     7de:	1f 4f       	sbci	r17, 0xFF	; 255
     7e0:	c8 01       	movw	r24, r16
     7e2:	0e 94 99 05 	call	0xb32	; 0xb32 <get_time>
	sprintf(strbuf, format_CMD, currenttime, cmdline);
     7e6:	cf 92       	push	r12
     7e8:	df 92       	push	r13
     7ea:	1f 93       	push	r17
     7ec:	0f 93       	push	r16
     7ee:	ff 92       	push	r15
     7f0:	ef 92       	push	r14
     7f2:	0c 5e       	subi	r16, 0xEC	; 236
     7f4:	1f 4f       	sbci	r17, 0xFF	; 255
     7f6:	1f 93       	push	r17
     7f8:	0f 93       	push	r16
     7fa:	0e 94 8d 23 	call	0x471a	; 0x471a <sprintf>
	printLine(strbuf);
     7fe:	c8 01       	movw	r24, r16
     800:	0e 94 88 03 	call	0x710	; 0x710 <printLine>

}
     804:	cd bf       	out	0x3d, r28	; 61
     806:	de bf       	out	0x3e, r29	; 62
     808:	c3 5e       	subi	r28, 0xE3	; 227
     80a:	de 4f       	sbci	r29, 0xFE	; 254
     80c:	cd bf       	out	0x3d, r28	; 61
     80e:	de bf       	out	0x3e, r29	; 62
     810:	df 91       	pop	r29
     812:	cf 91       	pop	r28
     814:	1f 91       	pop	r17
     816:	0f 91       	pop	r16
     818:	ff 90       	pop	r15
     81a:	ef 90       	pop	r14
     81c:	df 90       	pop	r13
     81e:	cf 90       	pop	r12
     820:	08 95       	ret

00000822 <send_prompt>:

	If specMech is rebooted, it will only prompt with a single exclamation
	point (!) until it receives an acknowledgment in the form of a single !.
------------------------------------------------------------------------------*/
void send_prompt(char prompt)
{
     822:	cf 93       	push	r28
     824:	df 93       	push	r29
     826:	00 d0       	rcall	.+0      	; 0x828 <send_prompt+0x6>
     828:	cd b7       	in	r28, 0x3d	; 61
     82a:	de b7       	in	r29, 0x3e	; 62

	char prompt_str[2];

	prompt_str[0] = prompt;
     82c:	89 83       	std	Y+1, r24	; 0x01
	prompt_str[1] = '\0';
     82e:	1a 82       	std	Y+2, r1	; 0x02
	send_USART(0, (uint8_t*) prompt_str, 1);
     830:	41 e0       	ldi	r20, 0x01	; 1
     832:	be 01       	movw	r22, r28
     834:	6f 5f       	subi	r22, 0xFF	; 255
     836:	7f 4f       	sbci	r23, 0xFF	; 255
     838:	80 e0       	ldi	r24, 0x00	; 0
     83a:	0e 94 b6 19 	call	0x336c	; 0x336c <send_USART>

}
     83e:	0f 90       	pop	r0
     840:	0f 90       	pop	r0
     842:	df 91       	pop	r29
     844:	cf 91       	pop	r28
     846:	08 95       	ret

00000848 <rebootACKd>:
	Returns:
		YES if the reboot acknowledge string was received
		NO if it wasn't
------------------------------------------------------------------------------*/
uint8_t rebootACKd(char *cmdline)
{
     848:	cf 93       	push	r28


	if (!rebootackd) {
     84a:	c0 91 06 28 	lds	r28, 0x2806	; 0x802806 <rebootackd>
     84e:	c1 11       	cpse	r28, r1
     850:	22 c0       	rjmp	.+68     	; 0x896 <rebootACKd+0x4e>
     852:	fc 01       	movw	r30, r24
		if ((cmdline[0] == '!') && (cmdline[1] == '\0')) {
     854:	80 81       	ld	r24, Z
     856:	81 32       	cpi	r24, 0x21	; 33
     858:	91 f4       	brne	.+36     	; 0x87e <rebootACKd+0x36>
     85a:	91 81       	ldd	r25, Z+1	; 0x01
     85c:	91 11       	cpse	r25, r1
     85e:	0f c0       	rjmp	.+30     	; 0x87e <rebootACKd+0x36>
			init_RTC(511);		// 1-sec RTC clock ticks
     860:	8f ef       	ldi	r24, 0xFF	; 255
     862:	91 e0       	ldi	r25, 0x01	; 1
     864:	0e 94 73 17 	call	0x2ee6	; 0x2ee6 <init_RTC>
			timeoutOLED = 5;	// 5-sec display timeout (minimum)
     868:	85 e0       	ldi	r24, 0x05	; 5
     86a:	90 e0       	ldi	r25, 0x00	; 0
     86c:	80 93 11 2a 	sts	0x2A11, r24	; 0x802a11 <timeoutOLED>
     870:	90 93 12 2a 	sts	0x2A12, r25	; 0x802a12 <timeoutOLED+0x1>
			rebootackd = YES;
     874:	81 e0       	ldi	r24, 0x01	; 1
     876:	80 93 06 28 	sts	0x2806, r24	; 0x802806 <rebootackd>
			return(YES);
     87a:	c1 e0       	ldi	r28, 0x01	; 1
     87c:	0d c0       	rjmp	.+26     	; 0x898 <rebootACKd+0x50>
		} else if ((cmdline[0] == '!') && (cmdline[1] != '\0')) {
     87e:	81 32       	cpi	r24, 0x21	; 33
     880:	31 f4       	brne	.+12     	; 0x88e <rebootACKd+0x46>
     882:	81 81       	ldd	r24, Z+1	; 0x01
     884:	88 23       	and	r24, r24
     886:	19 f0       	breq	.+6      	; 0x88e <rebootACKd+0x46>
			reboot();
     888:	0e 94 95 1b 	call	0x372a	; 0x372a <reboot>
			return(NO);
     88c:	05 c0       	rjmp	.+10     	; 0x898 <rebootACKd+0x50>
		} else {
			send_prompt('!');
     88e:	81 e2       	ldi	r24, 0x21	; 33
     890:	0e 94 11 04 	call	0x822	; 0x822 <send_prompt>
			return(NO);
     894:	01 c0       	rjmp	.+2      	; 0x898 <rebootACKd+0x50>
		}
	}

	return(YES);
     896:	c1 e0       	ldi	r28, 0x01	; 1

}
     898:	8c 2f       	mov	r24, r28
     89a:	cf 91       	pop	r28
     89c:	08 95       	ret

0000089e <commands>:
/*------------------------------------------------------------------------------
void commands(void)
	Command loop
------------------------------------------------------------------------------*/
void commands(void)
{
     89e:	cf 93       	push	r28
     8a0:	df 93       	push	r29
     8a2:	cd b7       	in	r28, 0x3d	; 61
     8a4:	de b7       	in	r29, 0x3e	; 62
     8a6:	cf 5f       	subi	r28, 0xFF	; 255
     8a8:	d1 09       	sbc	r29, r1
     8aa:	cd bf       	out	0x3d, r28	; 61
     8ac:	de bf       	out	0x3e, r29	; 62

	char cmdline[BUFSIZE];			// BUFSIZE is the size of the ring buffer
	static uint8_t cstack = 0;		// pcmd index

	get_cmdline(cmdline);
     8ae:	ce 01       	movw	r24, r28
     8b0:	01 96       	adiw	r24, 0x01	; 1
     8b2:	0e 94 bb 02 	call	0x576	; 0x576 <get_cmdline>

	if (!rebootACKd(cmdline)) {		// Reboot acknowledge failed
     8b6:	ce 01       	movw	r24, r28
     8b8:	01 96       	adiw	r24, 0x01	; 1
     8ba:	0e 94 24 04 	call	0x848	; 0x848 <rebootACKd>
     8be:	88 23       	and	r24, r24
     8c0:	09 f4       	brne	.+2      	; 0x8c4 <commands+0x26>
     8c2:	5d c0       	rjmp	.+186    	; 0x97e <commands+0xe0>
		return;
	}

	if ((cmdline[0] == '\0') || (cmdline[0] == '!')) {		// <CR> or ! alone are not errors
     8c4:	89 81       	ldd	r24, Y+1	; 0x01
     8c6:	88 23       	and	r24, r24
     8c8:	11 f0       	breq	.+4      	; 0x8ce <commands+0x30>
     8ca:	81 32       	cpi	r24, 0x21	; 33
     8cc:	31 f4       	brne	.+12     	; 0x8da <commands+0x3c>
		firstpass = NO;
     8ce:	10 92 05 28 	sts	0x2805, r1	; 0x802805 <firstpass>
		send_prompt('>');
     8d2:	8e e3       	ldi	r24, 0x3E	; 62
     8d4:	0e 94 11 04 	call	0x822	; 0x822 <send_prompt>
		return;
     8d8:	52 c0       	rjmp	.+164    	; 0x97e <commands+0xe0>
	}

	echo_cmd(cmdline);
     8da:	ce 01       	movw	r24, r28
     8dc:	01 96       	adiw	r24, 0x01	; 1
     8de:	0e 94 d1 03 	call	0x7a2	; 0x7a2 <echo_cmd>

	parse_cmd(cmdline, cstack);
     8e2:	60 91 04 28 	lds	r22, 0x2804	; 0x802804 <__data_end>
     8e6:	ce 01       	movw	r24, r28
     8e8:	01 96       	adiw	r24, 0x01	; 1
     8ea:	0e 94 f4 02 	call	0x5e8	; 0x5e8 <parse_cmd>

	switch (pcmd[cstack].cverb) {
     8ee:	80 91 04 28 	lds	r24, 0x2804	; 0x802804 <__data_end>
     8f2:	24 e3       	ldi	r18, 0x34	; 52
     8f4:	82 9f       	mul	r24, r18
     8f6:	f0 01       	movw	r30, r0
     8f8:	11 24       	eor	r1, r1
     8fa:	e9 5f       	subi	r30, 0xF9	; 249
     8fc:	f7 4d       	sbci	r31, 0xD7	; 215
     8fe:	e0 81       	ld	r30, Z
     900:	4e 2f       	mov	r20, r30
     902:	50 e0       	ldi	r21, 0x00	; 0
     904:	fa 01       	movw	r30, r20
     906:	e2 55       	subi	r30, 0x52	; 82
     908:	f1 09       	sbc	r31, r1
     90a:	e3 32       	cpi	r30, 0x23	; 35
     90c:	f1 05       	cpc	r31, r1
     90e:	20 f5       	brcc	.+72     	; 0x958 <commands+0xba>
     910:	e0 5b       	subi	r30, 0xB0	; 176
     912:	ff 4f       	sbci	r31, 0xFF	; 255
     914:	0c 94 8e 21 	jmp	0x431c	; 0x431c <__tablejump2__>
		case 'c':				// close
			close_PNEU(cstack);
     918:	0e 94 eb 0c 	call	0x19d6	; 0x19d6 <close_PNEU>
			break;
     91c:	23 c0       	rjmp	.+70     	; 0x964 <commands+0xc6>

		case 'o':				// open
			open_PNEU(cstack);
     91e:	0e 94 95 0d 	call	0x1b2a	; 0x1b2a <open_PNEU>
			break;
     922:	20 c0       	rjmp	.+64     	; 0x964 <commands+0xc6>

		case 'm':				// move
			move_MOTOR(cstack);
     924:	0e 94 89 16 	call	0x2d12	; 0x2d12 <move_MOTOR>
			break;
     928:	1d c0       	rjmp	.+58     	; 0x964 <commands+0xc6>

		case 'r':				// report
			report(cstack);
     92a:	0e 94 a6 0e 	call	0x1d4c	; 0x1d4c <report>
			break;
     92e:	1a c0       	rjmp	.+52     	; 0x964 <commands+0xc6>

		case 's':				// set
			set(cstack);
     930:	0e 94 eb 17 	call	0x2fd6	; 0x2fd6 <set>
			break;
     934:	17 c0       	rjmp	.+46     	; 0x964 <commands+0xc6>

		case 't':
			testroutine();
     936:	0e 94 58 18 	call	0x30b0	; 0x30b0 <testroutine>
			break;
     93a:	14 c0       	rjmp	.+40     	; 0x964 <commands+0xc6>

		case 'R':				// Reboot
			send_prompt('>');	// Aidan request
     93c:	8e e3       	ldi	r24, 0x3E	; 62
     93e:	0e 94 11 04 	call	0x822	; 0x822 <send_prompt>
	#else
		//round up by default
		__ticks_dc = (uint32_t)(ceil(fabs(__tmp)));
	#endif

	__builtin_avr_delay_cycles(__ticks_dc);
     942:	8a e6       	ldi	r24, 0x6A	; 106
     944:	94 e0       	ldi	r25, 0x04	; 4
     946:	21 e0       	ldi	r18, 0x01	; 1
     948:	81 50       	subi	r24, 0x01	; 1
     94a:	90 40       	sbci	r25, 0x00	; 0
     94c:	20 40       	sbci	r18, 0x00	; 0
     94e:	e1 f7       	brne	.-8      	; 0x948 <commands+0xaa>
     950:	00 c0       	rjmp	.+0      	; 0x952 <commands+0xb4>
			_delay_ms(100);		// Avoids finishing the command loop before reboot
			reboot();
     952:	0e 94 95 1b 	call	0x372a	; 0x372a <reboot>
			return;
     956:	13 c0       	rjmp	.+38     	; 0x97e <commands+0xe0>

		default:
			printError(ERR_BADCOMMAND, "Not a command");
     958:	67 eb       	ldi	r22, 0xB7	; 183
     95a:	78 e8       	ldi	r23, 0x88	; 136
     95c:	89 ec       	ldi	r24, 0xC9	; 201
     95e:	90 e0       	ldi	r25, 0x00	; 0
     960:	0e 94 75 06 	call	0xcea	; 0xcea <printError>
			break;			
	}

	cstack = (cstack + 1) % CSTACKSIZE;
     964:	80 91 04 28 	lds	r24, 0x2804	; 0x802804 <__data_end>
     968:	90 e0       	ldi	r25, 0x00	; 0
     96a:	01 96       	adiw	r24, 0x01	; 1
     96c:	6a e0       	ldi	r22, 0x0A	; 10
     96e:	70 e0       	ldi	r23, 0x00	; 0
     970:	0e 94 5b 21 	call	0x42b6	; 0x42b6 <__divmodhi4>
     974:	80 93 04 28 	sts	0x2804, r24	; 0x802804 <__data_end>
	send_prompt('>');
     978:	8e e3       	ldi	r24, 0x3E	; 62
     97a:	0e 94 11 04 	call	0x822	; 0x822 <send_prompt>

}
     97e:	c1 50       	subi	r28, 0x01	; 1
     980:	df 4f       	sbci	r29, 0xFF	; 255
     982:	cd bf       	out	0x3d, r28	; 61
     984:	de bf       	out	0x3e, r29	; 62
     986:	df 91       	pop	r29
     988:	cf 91       	pop	r28
     98a:	08 95       	ret

0000098c <convert_ds2iso>:
	Output:
		isotime - 20 character array with the UTC time in ISO format:
			YYYY-MM-DDThh:mm:ss
------------------------------------------------------------------------------*/
void convert_ds2iso(char *isotime, uint8_t *ds3231time)
{
     98c:	0f 93       	push	r16
     98e:	1f 93       	push	r17
     990:	cf 93       	push	r28
     992:	df 93       	push	r29
     994:	cd b7       	in	r28, 0x3d	; 61
     996:	de b7       	in	r29, 0x3e	; 62
     998:	a0 97       	sbiw	r28, 0x20	; 32
     99a:	cd bf       	out	0x3d, r28	; 61
     99c:	de bf       	out	0x3e, r29	; 62

	const char format_ISO[] = "20%02x-%02x-%02xT%02x:%02x:%02x";
     99e:	40 e2       	ldi	r20, 0x20	; 32
     9a0:	e5 ec       	ldi	r30, 0xC5	; 197
     9a2:	f8 e8       	ldi	r31, 0x88	; 136
     9a4:	9e 01       	movw	r18, r28
     9a6:	2f 5f       	subi	r18, 0xFF	; 255
     9a8:	3f 4f       	sbci	r19, 0xFF	; 255
     9aa:	d9 01       	movw	r26, r18
     9ac:	01 90       	ld	r0, Z+
     9ae:	0d 92       	st	X+, r0
     9b0:	4a 95       	dec	r20
     9b2:	e1 f7       	brne	.-8      	; 0x9ac <convert_ds2iso+0x20>
	uint8_t year, month, date, hours, minutes, seconds;

	seconds = (*ds3231time++);
     9b4:	fb 01       	movw	r30, r22
     9b6:	b0 81       	ld	r27, Z
	minutes = (*ds3231time++);
     9b8:	a1 81       	ldd	r26, Z+1	; 0x01
	hours = (*ds3231time++);
     9ba:	12 81       	ldd	r17, Z+2	; 0x02
	date = (*ds3231time++);		// dummy assignment for day of week
	date = (*ds3231time++);
     9bc:	04 81       	ldd	r16, Z+4	; 0x04
	month = (*ds3231time++);
     9be:	55 81       	ldd	r21, Z+5	; 0x05
	year = (*ds3231time);
     9c0:	46 81       	ldd	r20, Z+6	; 0x06

	sprintf(isotime, format_ISO, year, month, date, hours, minutes, seconds);
     9c2:	1f 92       	push	r1
     9c4:	bf 93       	push	r27
     9c6:	1f 92       	push	r1
     9c8:	af 93       	push	r26
     9ca:	1f 92       	push	r1
     9cc:	1f 93       	push	r17
     9ce:	1f 92       	push	r1
     9d0:	0f 93       	push	r16
     9d2:	1f 92       	push	r1
     9d4:	5f 93       	push	r21
     9d6:	1f 92       	push	r1
     9d8:	4f 93       	push	r20
     9da:	3f 93       	push	r19
     9dc:	2f 93       	push	r18
     9de:	9f 93       	push	r25
     9e0:	8f 93       	push	r24
     9e2:	0e 94 8d 23 	call	0x471a	; 0x471a <sprintf>

}
     9e6:	cd bf       	out	0x3d, r28	; 61
     9e8:	de bf       	out	0x3e, r29	; 62
     9ea:	a0 96       	adiw	r28, 0x20	; 32
     9ec:	cd bf       	out	0x3d, r28	; 61
     9ee:	de bf       	out	0x3e, r29	; 62
     9f0:	df 91       	pop	r29
     9f2:	cf 91       	pop	r28
     9f4:	1f 91       	pop	r17
     9f6:	0f 91       	pop	r16
     9f8:	08 95       	ret

000009fa <convert_iso2ds>:
	Creates a 7-byte ds3231time array.

	ISO time format is YYYY-MM-DDThh:mm:ss
------------------------------------------------------------------------------*/
void convert_iso2ds(uint8_t *ds3231time, char *isotime)
{
     9fa:	dc 01       	movw	r26, r24
     9fc:	fb 01       	movw	r30, r22

	ds3231time[0] = (((isotime[17]-48) << 4) | (isotime[18]-48));	// sec
     9fe:	81 89       	ldd	r24, Z+17	; 0x11
     a00:	90 e0       	ldi	r25, 0x00	; 0
     a02:	c0 97       	sbiw	r24, 0x30	; 48
     a04:	82 95       	swap	r24
     a06:	92 95       	swap	r25
     a08:	90 7f       	andi	r25, 0xF0	; 240
     a0a:	98 27       	eor	r25, r24
     a0c:	80 7f       	andi	r24, 0xF0	; 240
     a0e:	98 27       	eor	r25, r24
     a10:	92 89       	ldd	r25, Z+18	; 0x12
     a12:	90 53       	subi	r25, 0x30	; 48
     a14:	89 2b       	or	r24, r25
     a16:	8c 93       	st	X, r24
	ds3231time[1] = (((isotime[14]-48) << 4) | (isotime[15]-48));	// min
     a18:	86 85       	ldd	r24, Z+14	; 0x0e
     a1a:	90 e0       	ldi	r25, 0x00	; 0
     a1c:	c0 97       	sbiw	r24, 0x30	; 48
     a1e:	82 95       	swap	r24
     a20:	92 95       	swap	r25
     a22:	90 7f       	andi	r25, 0xF0	; 240
     a24:	98 27       	eor	r25, r24
     a26:	80 7f       	andi	r24, 0xF0	; 240
     a28:	98 27       	eor	r25, r24
     a2a:	97 85       	ldd	r25, Z+15	; 0x0f
     a2c:	90 53       	subi	r25, 0x30	; 48
     a2e:	89 2b       	or	r24, r25
     a30:	11 96       	adiw	r26, 0x01	; 1
     a32:	8c 93       	st	X, r24
     a34:	11 97       	sbiw	r26, 0x01	; 1
	ds3231time[2] = (((isotime[11]-48) << 4) | (isotime[12]-48));	// hr
     a36:	83 85       	ldd	r24, Z+11	; 0x0b
     a38:	90 e0       	ldi	r25, 0x00	; 0
     a3a:	c0 97       	sbiw	r24, 0x30	; 48
     a3c:	82 95       	swap	r24
     a3e:	92 95       	swap	r25
     a40:	90 7f       	andi	r25, 0xF0	; 240
     a42:	98 27       	eor	r25, r24
     a44:	80 7f       	andi	r24, 0xF0	; 240
     a46:	98 27       	eor	r25, r24
     a48:	94 85       	ldd	r25, Z+12	; 0x0c
     a4a:	90 53       	subi	r25, 0x30	; 48
     a4c:	89 2b       	or	r24, r25
     a4e:	12 96       	adiw	r26, 0x02	; 2
     a50:	8c 93       	st	X, r24
     a52:	12 97       	sbiw	r26, 0x02	; 2
	ds3231time[3] = 1;												// day of wk
     a54:	81 e0       	ldi	r24, 0x01	; 1
     a56:	13 96       	adiw	r26, 0x03	; 3
     a58:	8c 93       	st	X, r24
     a5a:	13 97       	sbiw	r26, 0x03	; 3
	ds3231time[4] = (((isotime[8]-48) << 4) | (isotime[9]-48));		// date
     a5c:	80 85       	ldd	r24, Z+8	; 0x08
     a5e:	90 e0       	ldi	r25, 0x00	; 0
     a60:	c0 97       	sbiw	r24, 0x30	; 48
     a62:	82 95       	swap	r24
     a64:	92 95       	swap	r25
     a66:	90 7f       	andi	r25, 0xF0	; 240
     a68:	98 27       	eor	r25, r24
     a6a:	80 7f       	andi	r24, 0xF0	; 240
     a6c:	98 27       	eor	r25, r24
     a6e:	91 85       	ldd	r25, Z+9	; 0x09
     a70:	90 53       	subi	r25, 0x30	; 48
     a72:	89 2b       	or	r24, r25
     a74:	14 96       	adiw	r26, 0x04	; 4
     a76:	8c 93       	st	X, r24
     a78:	14 97       	sbiw	r26, 0x04	; 4
	ds3231time[5] = (((isotime[5]-48) << 4) | (isotime[6]-48));		// mon
     a7a:	25 81       	ldd	r18, Z+5	; 0x05
     a7c:	30 e0       	ldi	r19, 0x00	; 0
     a7e:	20 53       	subi	r18, 0x30	; 48
     a80:	31 09       	sbc	r19, r1
     a82:	22 95       	swap	r18
     a84:	32 95       	swap	r19
     a86:	30 7f       	andi	r19, 0xF0	; 240
     a88:	32 27       	eor	r19, r18
     a8a:	20 7f       	andi	r18, 0xF0	; 240
     a8c:	32 27       	eor	r19, r18
     a8e:	86 81       	ldd	r24, Z+6	; 0x06
     a90:	80 53       	subi	r24, 0x30	; 48
     a92:	28 2b       	or	r18, r24
     a94:	15 96       	adiw	r26, 0x05	; 5
     a96:	2c 93       	st	X, r18
     a98:	15 97       	sbiw	r26, 0x05	; 5
	ds3231time[6] = (((isotime[2]-48) << 4) | (isotime[3]-48));		// yr
     a9a:	22 81       	ldd	r18, Z+2	; 0x02
     a9c:	30 e0       	ldi	r19, 0x00	; 0
     a9e:	20 53       	subi	r18, 0x30	; 48
     aa0:	31 09       	sbc	r19, r1
     aa2:	22 95       	swap	r18
     aa4:	32 95       	swap	r19
     aa6:	30 7f       	andi	r19, 0xF0	; 240
     aa8:	32 27       	eor	r19, r18
     aaa:	20 7f       	andi	r18, 0xF0	; 240
     aac:	32 27       	eor	r19, r18
     aae:	83 81       	ldd	r24, Z+3	; 0x03
     ab0:	80 53       	subi	r24, 0x30	; 48
     ab2:	28 2b       	or	r18, r24
     ab4:	16 96       	adiw	r26, 0x06	; 6
     ab6:	2c 93       	st	X, r18
     ab8:	08 95       	ret

00000aba <read_DS3231>:

	The clock time is UTC. Communications to the outside is via the ISO time
	format: YYYY-MM-DDThh:mm:ss (19 characters).
------------------------------------------------------------------------------*/
uint8_t read_DS3231(uint8_t addr, uint8_t ds3231time[])
{
     aba:	ef 92       	push	r14
     abc:	ff 92       	push	r15
     abe:	0f 93       	push	r16
     ac0:	1f 93       	push	r17
     ac2:	cf 93       	push	r28
     ac4:	7b 01       	movw	r14, r22

	uint8_t i;

	if (start_TWI(addr, TWIWRITE) == ERROR) {
     ac6:	60 e0       	ldi	r22, 0x00	; 0
     ac8:	0e 94 f2 18 	call	0x31e4	; 0x31e4 <start_TWI>
     acc:	c8 2f       	mov	r28, r24
     ace:	83 36       	cpi	r24, 0x63	; 99
     ad0:	19 f4       	brne	.+6      	; 0xad8 <read_DS3231+0x1e>
		stop_TWI();
     ad2:	0e 94 33 19 	call	0x3266	; 0x3266 <stop_TWI>
		return(ERROR);
     ad6:	26 c0       	rjmp	.+76     	; 0xb24 <read_DS3231+0x6a>
    }  

	if (write_TWI(0x00) == ERROR) {	// Register 00h
     ad8:	80 e0       	ldi	r24, 0x00	; 0
     ada:	0e 94 37 19 	call	0x326e	; 0x326e <write_TWI>
     ade:	c8 2f       	mov	r28, r24
     ae0:	83 36       	cpi	r24, 0x63	; 99
     ae2:	19 f4       	brne	.+6      	; 0xaea <read_DS3231+0x30>
		stop_TWI();
     ae4:	0e 94 33 19 	call	0x3266	; 0x3266 <stop_TWI>
		return(ERROR);
     ae8:	1d c0       	rjmp	.+58     	; 0xb24 <read_DS3231+0x6a>
	}

	if (start_TWI(DS3231ADDR, TWIREAD) == ERROR) {
     aea:	61 e0       	ldi	r22, 0x01	; 1
     aec:	88 e6       	ldi	r24, 0x68	; 104
     aee:	0e 94 f2 18 	call	0x31e4	; 0x31e4 <start_TWI>
     af2:	c8 2f       	mov	r28, r24
     af4:	83 36       	cpi	r24, 0x63	; 99
     af6:	61 f4       	brne	.+24     	; 0xb10 <read_DS3231+0x56>
		stop_TWI();
     af8:	0e 94 33 19 	call	0x3266	; 0x3266 <stop_TWI>
		return(ERROR);
     afc:	13 c0       	rjmp	.+38     	; 0xb24 <read_DS3231+0x6a>
	}

	for (i = 0; i < 6; i++) {
		ds3231time[i] = read_TWI();
     afe:	87 01       	movw	r16, r14
     b00:	0c 0f       	add	r16, r28
     b02:	11 1d       	adc	r17, r1
     b04:	0e 94 d5 18 	call	0x31aa	; 0x31aa <read_TWI>
     b08:	f8 01       	movw	r30, r16
     b0a:	80 83       	st	Z, r24
	if (start_TWI(DS3231ADDR, TWIREAD) == ERROR) {
		stop_TWI();
		return(ERROR);
	}

	for (i = 0; i < 6; i++) {
     b0c:	cf 5f       	subi	r28, 0xFF	; 255
     b0e:	01 c0       	rjmp	.+2      	; 0xb12 <read_DS3231+0x58>
     b10:	c0 e0       	ldi	r28, 0x00	; 0
     b12:	c6 30       	cpi	r28, 0x06	; 6
     b14:	a0 f3       	brcs	.-24     	; 0xafe <read_DS3231+0x44>
		ds3231time[i] = read_TWI();
	}

	ds3231time[6] = readlast_TWI();
     b16:	0e 94 e5 18 	call	0x31ca	; 0x31ca <readlast_TWI>
     b1a:	f7 01       	movw	r30, r14
     b1c:	86 83       	std	Z+6, r24	; 0x06

	stop_TWI();
     b1e:	0e 94 33 19 	call	0x3266	; 0x3266 <stop_TWI>

	return(NOERROR);
     b22:	c0 e0       	ldi	r28, 0x00	; 0

}
     b24:	8c 2f       	mov	r24, r28
     b26:	cf 91       	pop	r28
     b28:	1f 91       	pop	r17
     b2a:	0f 91       	pop	r16
     b2c:	ff 90       	pop	r15
     b2e:	ef 90       	pop	r14
     b30:	08 95       	ret

00000b32 <get_time>:

	Returns
		0 on success or TWI error
------------------------------------------------------------------------------*/
uint8_t get_time(char *isotime)
{
     b32:	ef 92       	push	r14
     b34:	ff 92       	push	r15
     b36:	1f 93       	push	r17
     b38:	cf 93       	push	r28
     b3a:	df 93       	push	r29
     b3c:	cd b7       	in	r28, 0x3d	; 61
     b3e:	de b7       	in	r29, 0x3e	; 62
     b40:	27 97       	sbiw	r28, 0x07	; 7
     b42:	cd bf       	out	0x3d, r28	; 61
     b44:	de bf       	out	0x3e, r29	; 62
     b46:	7c 01       	movw	r14, r24

	uint8_t ds3231time[7];

	if (read_DS3231(DS3231ADDR, ds3231time) == ERROR) {
     b48:	be 01       	movw	r22, r28
     b4a:	6f 5f       	subi	r22, 0xFF	; 255
     b4c:	7f 4f       	sbci	r23, 0xFF	; 255
     b4e:	88 e6       	ldi	r24, 0x68	; 104
     b50:	0e 94 5d 05 	call	0xaba	; 0xaba <read_DS3231>
     b54:	18 2f       	mov	r17, r24
     b56:	83 36       	cpi	r24, 0x63	; 99
     b58:	79 f4       	brne	.+30     	; 0xb78 <get_time+0x46>
		printError(ERR_GETTIME, "get_time DS3231");
     b5a:	65 ee       	ldi	r22, 0xE5	; 229
     b5c:	78 e8       	ldi	r23, 0x88	; 136
     b5e:	85 e6       	ldi	r24, 0x65	; 101
     b60:	90 e0       	ldi	r25, 0x00	; 0
     b62:	0e 94 75 06 	call	0xcea	; 0xcea <printError>
		strcpy(isotime, "DateTime?");
     b66:	8a e0       	ldi	r24, 0x0A	; 10
     b68:	e5 ef       	ldi	r30, 0xF5	; 245
     b6a:	f8 e8       	ldi	r31, 0x88	; 136
     b6c:	d7 01       	movw	r26, r14
     b6e:	01 90       	ld	r0, Z+
     b70:	0d 92       	st	X+, r0
     b72:	8a 95       	dec	r24
     b74:	e1 f7       	brne	.-8      	; 0xb6e <get_time+0x3c>
		return(ERROR);
     b76:	07 c0       	rjmp	.+14     	; 0xb86 <get_time+0x54>
	}

	convert_ds2iso(isotime, ds3231time);
     b78:	be 01       	movw	r22, r28
     b7a:	6f 5f       	subi	r22, 0xFF	; 255
     b7c:	7f 4f       	sbci	r23, 0xFF	; 255
     b7e:	c7 01       	movw	r24, r14
     b80:	0e 94 c6 04 	call	0x98c	; 0x98c <convert_ds2iso>
	return(NOERROR);
     b84:	10 e0       	ldi	r17, 0x00	; 0

}
     b86:	81 2f       	mov	r24, r17
     b88:	27 96       	adiw	r28, 0x07	; 7
     b8a:	cd bf       	out	0x3d, r28	; 61
     b8c:	de bf       	out	0x3e, r29	; 62
     b8e:	df 91       	pop	r29
     b90:	cf 91       	pop	r28
     b92:	1f 91       	pop	r17
     b94:	ff 90       	pop	r15
     b96:	ef 90       	pop	r14
     b98:	08 95       	ret

00000b9a <write_DS3231>:
	Returns:
		ERROR for TWI start error
		NOERROR otherwise
------------------------------------------------------------------------------*/
uint8_t write_DS3231(uint8_t addr, uint8_t *ds3231time)
{
     b9a:	ef 92       	push	r14
     b9c:	ff 92       	push	r15
     b9e:	0f 93       	push	r16
     ba0:	1f 93       	push	r17
     ba2:	cf 93       	push	r28
     ba4:	df 93       	push	r29
     ba6:	8b 01       	movw	r16, r22

	uint8_t i;

	if (start_TWI(addr, TWIWRITE) == ERROR) {
     ba8:	60 e0       	ldi	r22, 0x00	; 0
     baa:	0e 94 f2 18 	call	0x31e4	; 0x31e4 <start_TWI>
     bae:	c8 2f       	mov	r28, r24
     bb0:	83 36       	cpi	r24, 0x63	; 99
     bb2:	19 f4       	brne	.+6      	; 0xbba <write_DS3231+0x20>
		stop_TWI();
     bb4:	0e 94 33 19 	call	0x3266	; 0x3266 <stop_TWI>
		return(ERROR);
     bb8:	20 c0       	rjmp	.+64     	; 0xbfa <write_DS3231+0x60>
	}

	if (write_TWI(0x00) == ERROR) {	// Start with register 0x00 (seconds)
     bba:	80 e0       	ldi	r24, 0x00	; 0
     bbc:	0e 94 37 19 	call	0x326e	; 0x326e <write_TWI>
     bc0:	c8 2f       	mov	r28, r24
     bc2:	83 36       	cpi	r24, 0x63	; 99
     bc4:	a1 f4       	brne	.+40     	; 0xbee <write_DS3231+0x54>
		stop_TWI();
     bc6:	0e 94 33 19 	call	0x3266	; 0x3266 <stop_TWI>
		return(ERROR);
     bca:	17 c0       	rjmp	.+46     	; 0xbfa <write_DS3231+0x60>
	}

	for (i = 0; i < 7; i++) {
		if (write_TWI(*ds3231time++) == ERROR) {	// send the new time
     bcc:	78 01       	movw	r14, r16
     bce:	8f ef       	ldi	r24, 0xFF	; 255
     bd0:	e8 1a       	sub	r14, r24
     bd2:	f8 0a       	sbc	r15, r24
     bd4:	f8 01       	movw	r30, r16
     bd6:	80 81       	ld	r24, Z
     bd8:	0e 94 37 19 	call	0x326e	; 0x326e <write_TWI>
     bdc:	c8 2f       	mov	r28, r24
     bde:	83 36       	cpi	r24, 0x63	; 99
     be0:	19 f4       	brne	.+6      	; 0xbe8 <write_DS3231+0x4e>
			stop_TWI();
     be2:	0e 94 33 19 	call	0x3266	; 0x3266 <stop_TWI>
			return(ERROR);
     be6:	09 c0       	rjmp	.+18     	; 0xbfa <write_DS3231+0x60>
	if (write_TWI(0x00) == ERROR) {	// Start with register 0x00 (seconds)
		stop_TWI();
		return(ERROR);
	}

	for (i = 0; i < 7; i++) {
     be8:	df 5f       	subi	r29, 0xFF	; 255
		if (write_TWI(*ds3231time++) == ERROR) {	// send the new time
     bea:	87 01       	movw	r16, r14
     bec:	01 c0       	rjmp	.+2      	; 0xbf0 <write_DS3231+0x56>
     bee:	d0 e0       	ldi	r29, 0x00	; 0
	if (write_TWI(0x00) == ERROR) {	// Start with register 0x00 (seconds)
		stop_TWI();
		return(ERROR);
	}

	for (i = 0; i < 7; i++) {
     bf0:	d7 30       	cpi	r29, 0x07	; 7
     bf2:	60 f3       	brcs	.-40     	; 0xbcc <write_DS3231+0x32>
		if (write_TWI(*ds3231time++) == ERROR) {	// send the new time
			stop_TWI();
			return(ERROR);
		}
	}
	stop_TWI();
     bf4:	0e 94 33 19 	call	0x3266	; 0x3266 <stop_TWI>

	return(NOERROR);
     bf8:	c0 e0       	ldi	r28, 0x00	; 0

}
     bfa:	8c 2f       	mov	r24, r28
     bfc:	df 91       	pop	r29
     bfe:	cf 91       	pop	r28
     c00:	1f 91       	pop	r17
     c02:	0f 91       	pop	r16
     c04:	ff 90       	pop	r15
     c06:	ef 90       	pop	r14
     c08:	08 95       	ret

00000c0a <put_time>:

	Returns
		0 on success or TWI error
------------------------------------------------------------------------------*/
uint8_t put_time(char *isotime)
{
     c0a:	1f 93       	push	r17
     c0c:	cf 93       	push	r28
     c0e:	df 93       	push	r29
     c10:	cd b7       	in	r28, 0x3d	; 61
     c12:	de b7       	in	r29, 0x3e	; 62
     c14:	27 97       	sbiw	r28, 0x07	; 7
     c16:	cd bf       	out	0x3d, r28	; 61
     c18:	de bf       	out	0x3e, r29	; 62

	uint8_t ds3231time[7];

	convert_iso2ds(ds3231time, isotime);
     c1a:	bc 01       	movw	r22, r24
     c1c:	ce 01       	movw	r24, r28
     c1e:	01 96       	adiw	r24, 0x01	; 1
     c20:	0e 94 fd 04 	call	0x9fa	; 0x9fa <convert_iso2ds>
	if (write_DS3231(DS3231ADDR, ds3231time) == ERROR) {
     c24:	be 01       	movw	r22, r28
     c26:	6f 5f       	subi	r22, 0xFF	; 255
     c28:	7f 4f       	sbci	r23, 0xFF	; 255
     c2a:	88 e6       	ldi	r24, 0x68	; 104
     c2c:	0e 94 cd 05 	call	0xb9a	; 0xb9a <write_DS3231>
     c30:	18 2f       	mov	r17, r24
     c32:	83 36       	cpi	r24, 0x63	; 99
     c34:	39 f4       	brne	.+14     	; 0xc44 <put_time+0x3a>
		printError(ERR_PUTTIME, "put_time DS3231");
     c36:	6f ef       	ldi	r22, 0xFF	; 255
     c38:	78 e8       	ldi	r23, 0x88	; 136
     c3a:	86 e6       	ldi	r24, 0x66	; 102
     c3c:	90 e0       	ldi	r25, 0x00	; 0
     c3e:	0e 94 75 06 	call	0xcea	; 0xcea <printError>
		return(ERROR);
     c42:	01 c0       	rjmp	.+2      	; 0xc46 <put_time+0x3c>
	}
	return(NOERROR);
     c44:	10 e0       	ldi	r17, 0x00	; 0

}
     c46:	81 2f       	mov	r24, r17
     c48:	27 96       	adiw	r28, 0x07	; 7
     c4a:	cd bf       	out	0x3d, r28	; 61
     c4c:	de bf       	out	0x3e, r29	; 62
     c4e:	df 91       	pop	r29
     c50:	cf 91       	pop	r28
     c52:	1f 91       	pop	r17
     c54:	08 95       	ret

00000c56 <get_BOOTTIME>:
	TWI must be enabled first (init_TWI()) since it calls get_time().
------------------------------------------------------------------------------*/
void get_BOOTTIME(char *boottime)
{

	eeprom_read_block((void *)boottime, (const void *)BOOTTIMEADDR, BOOTTIMESIZE);
     c56:	45 e1       	ldi	r20, 0x15	; 21
     c58:	50 e0       	ldi	r21, 0x00	; 0
     c5a:	6b e0       	ldi	r22, 0x0B	; 11
     c5c:	70 e0       	ldi	r23, 0x00	; 0
     c5e:	0e 94 0d 24 	call	0x481a	; 0x481a <eeprom_read_block>
     c62:	08 95       	ret

00000c64 <get_VERSION>:
}

void get_VERSION(char *version)
{

	eeprom_read_block((void *)version, (const void *)VERSIONADDR, VERSIONSIZE);
     c64:	4b e0       	ldi	r20, 0x0B	; 11
     c66:	50 e0       	ldi	r21, 0x00	; 0
     c68:	60 e0       	ldi	r22, 0x00	; 0
     c6a:	70 e0       	ldi	r23, 0x00	; 0
     c6c:	0e 94 0d 24 	call	0x481a	; 0x481a <eeprom_read_block>
     c70:	08 95       	ret

00000c72 <update_BOOTTIME>:
	update_VERSION();

}

void update_BOOTTIME(void)
{
     c72:	cf 93       	push	r28
     c74:	df 93       	push	r29
     c76:	cd b7       	in	r28, 0x3d	; 61
     c78:	de b7       	in	r29, 0x3e	; 62
     c7a:	65 97       	sbiw	r28, 0x15	; 21
     c7c:	cd bf       	out	0x3d, r28	; 61
     c7e:	de bf       	out	0x3e, r29	; 62

	char boottime[21];

	get_time(boottime);
     c80:	ce 01       	movw	r24, r28
     c82:	01 96       	adiw	r24, 0x01	; 1
     c84:	0e 94 99 05 	call	0xb32	; 0xb32 <get_time>
	eeprom_update_block((const void *)boottime, (void *)BOOTTIMEADDR, BOOTTIMESIZE);
     c88:	45 e1       	ldi	r20, 0x15	; 21
     c8a:	50 e0       	ldi	r21, 0x00	; 0
     c8c:	6b e0       	ldi	r22, 0x0B	; 11
     c8e:	70 e0       	ldi	r23, 0x00	; 0
     c90:	ce 01       	movw	r24, r28
     c92:	01 96       	adiw	r24, 0x01	; 1
     c94:	0e 94 11 24 	call	0x4822	; 0x4822 <eeprom_update_block>

}
     c98:	65 96       	adiw	r28, 0x15	; 21
     c9a:	cd bf       	out	0x3d, r28	; 61
     c9c:	de bf       	out	0x3e, r29	; 62
     c9e:	df 91       	pop	r29
     ca0:	cf 91       	pop	r28
     ca2:	08 95       	ret

00000ca4 <update_VERSION>:

void update_VERSION(void)
{
     ca4:	cf 93       	push	r28
     ca6:	df 93       	push	r29
     ca8:	cd b7       	in	r28, 0x3d	; 61
     caa:	de b7       	in	r29, 0x3e	; 62
     cac:	2b 97       	sbiw	r28, 0x0b	; 11
     cae:	cd bf       	out	0x3d, r28	; 61
     cb0:	de bf       	out	0x3e, r29	; 62

	char version[11];

	strcpy(version, VERSION);
     cb2:	8b e0       	ldi	r24, 0x0B	; 11
     cb4:	ef e0       	ldi	r30, 0x0F	; 15
     cb6:	f9 e8       	ldi	r31, 0x89	; 137
     cb8:	de 01       	movw	r26, r28
     cba:	11 96       	adiw	r26, 0x01	; 1
     cbc:	01 90       	ld	r0, Z+
     cbe:	0d 92       	st	X+, r0
     cc0:	8a 95       	dec	r24
     cc2:	e1 f7       	brne	.-8      	; 0xcbc <update_VERSION+0x18>
	eeprom_update_block((const void *)version, (void *)VERSIONADDR, VERSIONSIZE);
     cc4:	4b e0       	ldi	r20, 0x0B	; 11
     cc6:	50 e0       	ldi	r21, 0x00	; 0
     cc8:	60 e0       	ldi	r22, 0x00	; 0
     cca:	70 e0       	ldi	r23, 0x00	; 0
     ccc:	ce 01       	movw	r24, r28
     cce:	01 96       	adiw	r24, 0x01	; 1
     cd0:	0e 94 11 24 	call	0x4822	; 0x4822 <eeprom_update_block>

}
     cd4:	2b 96       	adiw	r28, 0x0b	; 11
     cd6:	cd bf       	out	0x3d, r28	; 61
     cd8:	de bf       	out	0x3e, r29	; 62
     cda:	df 91       	pop	r29
     cdc:	cf 91       	pop	r28
     cde:	08 95       	ret

00000ce0 <init_EEPROM>:
}

void init_EEPROM(void)
{

	update_BOOTTIME();
     ce0:	0e 94 39 06 	call	0xc72	; 0xc72 <update_BOOTTIME>
	update_VERSION();
     ce4:	0e 94 52 06 	call	0xca4	; 0xca4 <update_VERSION>
     ce8:	08 95       	ret

00000cea <printError>:
/*------------------------------------------------------------------------------
void printError(uint8_t errorNumber, char *errorString)
	Prints an error report on USART0
------------------------------------------------------------------------------*/
void printError(uint16_t errorNumber, char *errorString)
{
     cea:	0f 93       	push	r16
     cec:	1f 93       	push	r17
     cee:	cf 93       	push	r28
     cf0:	df 93       	push	r29
     cf2:	cd b7       	in	r28, 0x3d	; 61
     cf4:	de b7       	in	r29, 0x3e	; 62
     cf6:	c9 50       	subi	r28, 0x09	; 9
     cf8:	d1 40       	sbci	r29, 0x01	; 1
     cfa:	cd bf       	out	0x3d, r28	; 61
     cfc:	de bf       	out	0x3e, r29	; 62

	char strbuf[BUFSIZE];
	const char errorFormat[] = "ERR,%d,%s";
     cfe:	9e 01       	movw	r18, r28
     d00:	33 95       	inc	r19
     d02:	4a e0       	ldi	r20, 0x0A	; 10
     d04:	ea e1       	ldi	r30, 0x1A	; 26
     d06:	f9 e8       	ldi	r31, 0x89	; 137
     d08:	d9 01       	movw	r26, r18
     d0a:	01 90       	ld	r0, Z+
     d0c:	0d 92       	st	X+, r0
     d0e:	4a 95       	dec	r20
     d10:	e1 f7       	brne	.-8      	; 0xd0a <printError+0x20>

	sprintf(strbuf, errorFormat, errorNumber, errorString);
     d12:	7f 93       	push	r23
     d14:	6f 93       	push	r22
     d16:	9f 93       	push	r25
     d18:	8f 93       	push	r24
     d1a:	3f 93       	push	r19
     d1c:	2f 93       	push	r18
     d1e:	8e 01       	movw	r16, r28
     d20:	0f 5f       	subi	r16, 0xFF	; 255
     d22:	1f 4f       	sbci	r17, 0xFF	; 255
     d24:	1f 93       	push	r17
     d26:	0f 93       	push	r16
     d28:	0e 94 8d 23 	call	0x471a	; 0x471a <sprintf>
	printLine(strbuf);
     d2c:	c8 01       	movw	r24, r16
     d2e:	0e 94 88 03 	call	0x710	; 0x710 <printLine>

}
     d32:	cd bf       	out	0x3d, r28	; 61
     d34:	de bf       	out	0x3e, r29	; 62
     d36:	c7 5f       	subi	r28, 0xF7	; 247
     d38:	de 4f       	sbci	r29, 0xFE	; 254
     d3a:	cd bf       	out	0x3d, r28	; 61
     d3c:	de bf       	out	0x3e, r29	; 62
     d3e:	df 91       	pop	r29
     d40:	cf 91       	pop	r28
     d42:	1f 91       	pop	r17
     d44:	0f 91       	pop	r16
     d46:	08 95       	ret

00000d48 <read_FRAM>:
	Returns:
		ERROR on start_TWI error (NACK)
		NOERROR otherwise
------------------------------------------------------------------------------*/
uint8_t read_FRAM(uint8_t addr, uint16_t memaddr, uint8_t *val, uint8_t nbytes)
{
     d48:	cf 92       	push	r12
     d4a:	df 92       	push	r13
     d4c:	ef 92       	push	r14
     d4e:	ff 92       	push	r15
     d50:	0f 93       	push	r16
     d52:	1f 93       	push	r17
     d54:	cf 93       	push	r28
     d56:	df 93       	push	r29
     d58:	d8 2f       	mov	r29, r24
     d5a:	d6 2e       	mov	r13, r22
     d5c:	e7 2e       	mov	r14, r23
     d5e:	8a 01       	movw	r16, r20
     d60:	f2 2e       	mov	r15, r18

	uint8_t i, memhigh, memlow;

	strcpy((char*) val, "SavedTime?");
     d62:	8b e0       	ldi	r24, 0x0B	; 11
     d64:	e4 e2       	ldi	r30, 0x24	; 36
     d66:	f9 e8       	ldi	r31, 0x89	; 137
     d68:	da 01       	movw	r26, r20
     d6a:	01 90       	ld	r0, Z+
     d6c:	0d 92       	st	X+, r0
     d6e:	8a 95       	dec	r24
     d70:	e1 f7       	brne	.-8      	; 0xd6a <read_FRAM+0x22>

	memlow = memaddr & 0xFF;						// high byte
	memhigh = (memaddr >> 8);						// low byte

	if (start_TWI(addr, TWIWRITE) == ERROR) {		// TWI start
     d72:	60 e0       	ldi	r22, 0x00	; 0
     d74:	8d 2f       	mov	r24, r29
     d76:	0e 94 f2 18 	call	0x31e4	; 0x31e4 <start_TWI>
     d7a:	c8 2f       	mov	r28, r24
     d7c:	83 36       	cpi	r24, 0x63	; 99
     d7e:	19 f4       	brne	.+6      	; 0xd86 <read_FRAM+0x3e>
		stop_TWI();
     d80:	0e 94 33 19 	call	0x3266	; 0x3266 <stop_TWI>
		return(ERROR);
     d84:	31 c0       	rjmp	.+98     	; 0xde8 <read_FRAM+0xa0>
	}

	if (write_TWI(memhigh) == ERROR) {			// Send memory address
     d86:	8e 2d       	mov	r24, r14
     d88:	0e 94 37 19 	call	0x326e	; 0x326e <write_TWI>
     d8c:	c8 2f       	mov	r28, r24
     d8e:	83 36       	cpi	r24, 0x63	; 99
     d90:	59 f1       	breq	.+86     	; 0xde8 <read_FRAM+0xa0>
		return(ERROR);
	}
	if (write_TWI(memlow) == ERROR) {
     d92:	8d 2d       	mov	r24, r13
     d94:	0e 94 37 19 	call	0x326e	; 0x326e <write_TWI>
     d98:	c8 2f       	mov	r28, r24
     d9a:	83 36       	cpi	r24, 0x63	; 99
     d9c:	29 f1       	breq	.+74     	; 0xde8 <read_FRAM+0xa0>
		return(ERROR);
	}

	if (start_TWI(addr, TWIREAD) == ERROR) {		// Repeated start
     d9e:	61 e0       	ldi	r22, 0x01	; 1
     da0:	8d 2f       	mov	r24, r29
     da2:	0e 94 f2 18 	call	0x31e4	; 0x31e4 <start_TWI>
     da6:	c8 2f       	mov	r28, r24
     da8:	83 36       	cpi	r24, 0x63	; 99
     daa:	f1 f0       	breq	.+60     	; 0xde8 <read_FRAM+0xa0>
     dac:	c0 e0       	ldi	r28, 0x00	; 0
     dae:	08 c0       	rjmp	.+16     	; 0xdc0 <read_FRAM+0x78>
		return(ERROR);
	}

	for (i = 0; i < (nbytes-1); i++) {
		val[i] = read_TWI();						// Read memory
     db0:	68 01       	movw	r12, r16
     db2:	cc 0e       	add	r12, r28
     db4:	d1 1c       	adc	r13, r1
     db6:	0e 94 d5 18 	call	0x31aa	; 0x31aa <read_TWI>
     dba:	f6 01       	movw	r30, r12
     dbc:	80 83       	st	Z, r24

	if (start_TWI(addr, TWIREAD) == ERROR) {		// Repeated start
		return(ERROR);
	}

	for (i = 0; i < (nbytes-1); i++) {
     dbe:	cf 5f       	subi	r28, 0xFF	; 255
     dc0:	2c 2f       	mov	r18, r28
     dc2:	30 e0       	ldi	r19, 0x00	; 0
     dc4:	8f 2d       	mov	r24, r15
     dc6:	90 e0       	ldi	r25, 0x00	; 0
     dc8:	01 97       	sbiw	r24, 0x01	; 1
     dca:	28 17       	cp	r18, r24
     dcc:	39 07       	cpc	r19, r25
     dce:	84 f3       	brlt	.-32     	; 0xdb0 <read_FRAM+0x68>
		val[i] = read_TWI();						// Read memory
	}
	val[nbytes-1] = readlast_TWI();
     dd0:	8f 2d       	mov	r24, r15
     dd2:	90 e0       	ldi	r25, 0x00	; 0
     dd4:	01 97       	sbiw	r24, 0x01	; 1
     dd6:	e8 01       	movw	r28, r16
     dd8:	c8 0f       	add	r28, r24
     dda:	d9 1f       	adc	r29, r25
     ddc:	0e 94 e5 18 	call	0x31ca	; 0x31ca <readlast_TWI>
     de0:	88 83       	st	Y, r24

	stop_TWI();
     de2:	0e 94 33 19 	call	0x3266	; 0x3266 <stop_TWI>

	return(NOERROR);
     de6:	c0 e0       	ldi	r28, 0x00	; 0

}
     de8:	8c 2f       	mov	r24, r28
     dea:	df 91       	pop	r29
     dec:	cf 91       	pop	r28
     dee:	1f 91       	pop	r17
     df0:	0f 91       	pop	r16
     df2:	ff 90       	pop	r15
     df4:	ef 90       	pop	r14
     df6:	df 90       	pop	r13
     df8:	cf 90       	pop	r12
     dfa:	08 95       	ret

00000dfc <get_SETTIME>:
#include "errors.h"
#include "twi.h"
#include "fram.h"

uint8_t get_SETTIME(char *lastsettime)
{
     dfc:	ef 92       	push	r14
     dfe:	ff 92       	push	r15
     e00:	1f 93       	push	r17
     e02:	cf 93       	push	r28
     e04:	df 93       	push	r29
     e06:	cd b7       	in	r28, 0x3d	; 61
     e08:	de b7       	in	r29, 0x3e	; 62
     e0a:	2a 97       	sbiw	r28, 0x0a	; 10
     e0c:	cd bf       	out	0x3d, r28	; 61
     e0e:	de bf       	out	0x3e, r29	; 62
     e10:	7c 01       	movw	r14, r24

	const char timeset[] = "Time Set?";
     e12:	8a e0       	ldi	r24, 0x0A	; 10
     e14:	ef e2       	ldi	r30, 0x2F	; 47
     e16:	f9 e8       	ldi	r31, 0x89	; 137
     e18:	de 01       	movw	r26, r28
     e1a:	11 96       	adiw	r26, 0x01	; 1
     e1c:	01 90       	ld	r0, Z+
     e1e:	0d 92       	st	X+, r0
     e20:	8a 95       	dec	r24
     e22:	e1 f7       	brne	.-8      	; 0xe1c <get_SETTIME+0x20>
	if (read_FRAM(FRAMTWIADDR, SETTIMEADDR, (uint8_t*) lastsettime, ISOTIMELEN) == ERROR) {;
     e24:	24 e1       	ldi	r18, 0x14	; 20
     e26:	a7 01       	movw	r20, r14
     e28:	60 e0       	ldi	r22, 0x00	; 0
     e2a:	70 e0       	ldi	r23, 0x00	; 0
     e2c:	80 e5       	ldi	r24, 0x50	; 80
     e2e:	0e 94 a4 06 	call	0xd48	; 0xd48 <read_FRAM>
     e32:	18 2f       	mov	r17, r24
     e34:	83 36       	cpi	r24, 0x63	; 99
     e36:	39 f4       	brne	.+14     	; 0xe46 <get_SETTIME+0x4a>
		strcpy(lastsettime, timeset);
     e38:	be 01       	movw	r22, r28
     e3a:	6f 5f       	subi	r22, 0xFF	; 255
     e3c:	7f 4f       	sbci	r23, 0xFF	; 255
     e3e:	c7 01       	movw	r24, r14
     e40:	0e 94 2a 23 	call	0x4654	; 0x4654 <strcpy>
		return(ERROR);
     e44:	01 c0       	rjmp	.+2      	; 0xe48 <get_SETTIME+0x4c>
	}
	return(NOERROR);
     e46:	10 e0       	ldi	r17, 0x00	; 0
}
     e48:	81 2f       	mov	r24, r17
     e4a:	2a 96       	adiw	r28, 0x0a	; 10
     e4c:	cd bf       	out	0x3d, r28	; 61
     e4e:	de bf       	out	0x3e, r29	; 62
     e50:	df 91       	pop	r29
     e52:	cf 91       	pop	r28
     e54:	1f 91       	pop	r17
     e56:	ff 90       	pop	r15
     e58:	ef 90       	pop	r14
     e5a:	08 95       	ret

00000e5c <write_FRAM>:
	Returns:
		ERROR if start_TWI fails (NACK)
		NOERROR otherwise
------------------------------------------------------------------------------*/
uint8_t write_FRAM(uint8_t addr, uint16_t memaddr, uint8_t *val, uint8_t nbytes)
{
     e5c:	ef 92       	push	r14
     e5e:	ff 92       	push	r15
     e60:	0f 93       	push	r16
     e62:	1f 93       	push	r17
     e64:	cf 93       	push	r28
     e66:	df 93       	push	r29
     e68:	f6 2e       	mov	r15, r22
     e6a:	17 2f       	mov	r17, r23
     e6c:	ea 01       	movw	r28, r20
     e6e:	02 2f       	mov	r16, r18
	uint8_t i, memhigh, memlow;

	memlow = memaddr & 0xFF;
	memhigh = (memaddr >> 8);

	if (start_TWI(addr, TWIWRITE) == ERROR) {	// TWI START
     e70:	60 e0       	ldi	r22, 0x00	; 0
     e72:	0e 94 f2 18 	call	0x31e4	; 0x31e4 <start_TWI>
     e76:	83 36       	cpi	r24, 0x63	; 99
     e78:	e1 f0       	breq	.+56     	; 0xeb2 <write_FRAM+0x56>
		return(ERROR);
	}

	if (write_TWI(memhigh) == ERROR) {			// FRAM address to write
     e7a:	81 2f       	mov	r24, r17
     e7c:	0e 94 37 19 	call	0x326e	; 0x326e <write_TWI>
     e80:	83 36       	cpi	r24, 0x63	; 99
     e82:	b9 f0       	breq	.+46     	; 0xeb2 <write_FRAM+0x56>
		return(ERROR);
	}
	if (write_TWI(memlow) == ERROR) {			// FRAM address to write
     e84:	8f 2d       	mov	r24, r15
     e86:	0e 94 37 19 	call	0x326e	; 0x326e <write_TWI>
     e8a:	83 36       	cpi	r24, 0x63	; 99
     e8c:	91 f0       	breq	.+36     	; 0xeb2 <write_FRAM+0x56>
     e8e:	10 e0       	ldi	r17, 0x00	; 0
     e90:	0b c0       	rjmp	.+22     	; 0xea8 <write_FRAM+0x4c>
		return(ERROR);
	}

	for (i = 0; i < nbytes; i++) {
		if (write_TWI(*val++) == ERROR) {		// Write to FRAM
     e92:	7e 01       	movw	r14, r28
     e94:	8f ef       	ldi	r24, 0xFF	; 255
     e96:	e8 1a       	sub	r14, r24
     e98:	f8 0a       	sbc	r15, r24
     e9a:	88 81       	ld	r24, Y
     e9c:	0e 94 37 19 	call	0x326e	; 0x326e <write_TWI>
     ea0:	83 36       	cpi	r24, 0x63	; 99
     ea2:	39 f0       	breq	.+14     	; 0xeb2 <write_FRAM+0x56>
	}
	if (write_TWI(memlow) == ERROR) {			// FRAM address to write
		return(ERROR);
	}

	for (i = 0; i < nbytes; i++) {
     ea4:	1f 5f       	subi	r17, 0xFF	; 255
		if (write_TWI(*val++) == ERROR) {		// Write to FRAM
     ea6:	e7 01       	movw	r28, r14
	}
	if (write_TWI(memlow) == ERROR) {			// FRAM address to write
		return(ERROR);
	}

	for (i = 0; i < nbytes; i++) {
     ea8:	10 17       	cp	r17, r16
     eaa:	98 f3       	brcs	.-26     	; 0xe92 <write_FRAM+0x36>
		if (write_TWI(*val++) == ERROR) {		// Write to FRAM
			return(ERROR);
		}
	}

	stop_TWI();
     eac:	0e 94 33 19 	call	0x3266	; 0x3266 <stop_TWI>

	return(NOERROR);
     eb0:	80 e0       	ldi	r24, 0x00	; 0

}
     eb2:	df 91       	pop	r29
     eb4:	cf 91       	pop	r28
     eb6:	1f 91       	pop	r17
     eb8:	0f 91       	pop	r16
     eba:	ff 90       	pop	r15
     ebc:	ef 90       	pop	r14
     ebe:	08 95       	ret

00000ec0 <get_humidity>:

	Honeywell HiH-4031 humidity sensors. Voltage output is roughly 0.75 V to
	4.0 V, 0% to 100% RH at 0 C. There is a temperature correction required.
------------------------------------------------------------------------------*/
float get_humidity(uint8_t sensor)
{
     ec0:	8f 92       	push	r8
     ec2:	9f 92       	push	r9
     ec4:	af 92       	push	r10
     ec6:	bf 92       	push	r11
     ec8:	cf 92       	push	r12
     eca:	df 92       	push	r13
     ecc:	ef 92       	push	r14
     ece:	ff 92       	push	r15
     ed0:	0f 93       	push	r16
     ed2:	1f 93       	push	r17
     ed4:	cf 93       	push	r28
     ed6:	df 93       	push	r29
     ed8:	00 d0       	rcall	.+0      	; 0xeda <get_humidity+0x1a>
     eda:	00 d0       	rcall	.+0      	; 0xedc <get_humidity+0x1c>
     edc:	cd b7       	in	r28, 0x3d	; 61
     ede:	de b7       	in	r29, 0x3e	; 62

	uint8_t adcpin;
	float voltage, humidity, temperature;

	switch (sensor) {
     ee0:	81 30       	cpi	r24, 0x01	; 1
     ee2:	59 f0       	breq	.+22     	; 0xefa <get_humidity+0x3a>
     ee4:	18 f0       	brcs	.+6      	; 0xeec <get_humidity+0x2c>
     ee6:	82 30       	cpi	r24, 0x02	; 2
     ee8:	79 f0       	breq	.+30     	; 0xf08 <get_humidity+0x48>
     eea:	15 c0       	rjmp	.+42     	; 0xf16 <get_humidity+0x56>
		case 0:
			temperature = get_temperature(0);
     eec:	80 e0       	ldi	r24, 0x00	; 0
     eee:	0e 94 30 18 	call	0x3060	; 0x3060 <get_temperature>
     ef2:	6b 01       	movw	r12, r22
     ef4:	7c 01       	movw	r14, r24
			adcpin = AIN0;		// production
     ef6:	40 e4       	ldi	r20, 0x40	; 64
			break;
     ef8:	17 c0       	rjmp	.+46     	; 0xf28 <get_humidity+0x68>

		case 1:
			temperature = get_temperature(1);
     efa:	81 e0       	ldi	r24, 0x01	; 1
     efc:	0e 94 30 18 	call	0x3060	; 0x3060 <get_temperature>
     f00:	6b 01       	movw	r12, r22
     f02:	7c 01       	movw	r14, r24
			adcpin = AIN1;
     f04:	40 e5       	ldi	r20, 0x50	; 80
			break;
     f06:	10 c0       	rjmp	.+32     	; 0xf28 <get_humidity+0x68>

		case 2:
			temperature = get_temperature(2);
     f08:	82 e0       	ldi	r24, 0x02	; 2
     f0a:	0e 94 30 18 	call	0x3060	; 0x3060 <get_temperature>
     f0e:	6b 01       	movw	r12, r22
     f10:	7c 01       	movw	r14, r24
			adcpin = AIN2;
     f12:	40 e6       	ldi	r20, 0x60	; 96
			break;
     f14:	09 c0       	rjmp	.+18     	; 0xf28 <get_humidity+0x68>

		default:
			// flag an error
			adcpin = AIN1;			// to avoid uninitialized note
			temperature = 20.0;		// to avoid uninitialized note
     f16:	0f 2e       	mov	r0, r31
     f18:	c1 2c       	mov	r12, r1
     f1a:	d1 2c       	mov	r13, r1
     f1c:	f0 ea       	ldi	r31, 0xA0	; 160
     f1e:	ef 2e       	mov	r14, r31
     f20:	f1 e4       	ldi	r31, 0x41	; 65
     f22:	ff 2e       	mov	r15, r31
     f24:	f0 2d       	mov	r31, r0
			adcpin = AIN2;
			break;

		default:
			// flag an error
			adcpin = AIN1;			// to avoid uninitialized note
     f26:	40 e5       	ldi	r20, 0x50	; 80
			temperature = 20.0;		// to avoid uninitialized note
			break;
	}

	if (read_ADS1115(ADC_RH, PGA6144, adcpin, DR128, &voltage) == ERROR) {
     f28:	8e 01       	movw	r16, r28
     f2a:	0f 5f       	subi	r16, 0xFF	; 255
     f2c:	1f 4f       	sbci	r17, 0xFF	; 255
     f2e:	20 e8       	ldi	r18, 0x80	; 128
     f30:	60 e0       	ldi	r22, 0x00	; 0
     f32:	88 e4       	ldi	r24, 0x48	; 72
     f34:	0e 94 ca 01 	call	0x394	; 0x394 <read_ADS1115>
     f38:	83 36       	cpi	r24, 0x63	; 99
     f3a:	79 f1       	breq	.+94     	; 0xf9a <get_humidity+0xda>
		humidity = BADFLOAT;
	}
	else {
		humidity = ((voltage / 5.0) - 0.16) / 0.0062;
     f3c:	20 e0       	ldi	r18, 0x00	; 0
     f3e:	30 e0       	ldi	r19, 0x00	; 0
     f40:	40 ea       	ldi	r20, 0xA0	; 160
     f42:	50 e4       	ldi	r21, 0x40	; 64
     f44:	69 81       	ldd	r22, Y+1	; 0x01
     f46:	7a 81       	ldd	r23, Y+2	; 0x02
     f48:	8b 81       	ldd	r24, Y+3	; 0x03
     f4a:	9c 81       	ldd	r25, Y+4	; 0x04
     f4c:	0e 94 48 1c 	call	0x3890	; 0x3890 <__divsf3>
     f50:	2a e0       	ldi	r18, 0x0A	; 10
     f52:	37 ed       	ldi	r19, 0xD7	; 215
     f54:	43 e2       	ldi	r20, 0x23	; 35
     f56:	5e e3       	ldi	r21, 0x3E	; 62
     f58:	0e 94 d6 1b 	call	0x37ac	; 0x37ac <__subsf3>
     f5c:	2f e5       	ldi	r18, 0x5F	; 95
     f5e:	39 e2       	ldi	r19, 0x29	; 41
     f60:	4b ec       	ldi	r20, 0xCB	; 203
     f62:	5b e3       	ldi	r21, 0x3B	; 59
     f64:	0e 94 48 1c 	call	0x3890	; 0x3890 <__divsf3>
     f68:	4b 01       	movw	r8, r22
     f6a:	5c 01       	movw	r10, r24
		humidity = (humidity / (1.0546 - 0.00216 * temperature));
     f6c:	29 ec       	ldi	r18, 0xC9	; 201
     f6e:	3e e8       	ldi	r19, 0x8E	; 142
     f70:	4d e0       	ldi	r20, 0x0D	; 13
     f72:	5b e3       	ldi	r21, 0x3B	; 59
     f74:	c7 01       	movw	r24, r14
     f76:	b6 01       	movw	r22, r12
     f78:	0e 94 71 1d 	call	0x3ae2	; 0x3ae2 <__mulsf3>
     f7c:	9b 01       	movw	r18, r22
     f7e:	ac 01       	movw	r20, r24
     f80:	62 e2       	ldi	r22, 0x22	; 34
     f82:	7d ef       	ldi	r23, 0xFD	; 253
     f84:	86 e8       	ldi	r24, 0x86	; 134
     f86:	9f e3       	ldi	r25, 0x3F	; 63
     f88:	0e 94 d6 1b 	call	0x37ac	; 0x37ac <__subsf3>
     f8c:	9b 01       	movw	r18, r22
     f8e:	ac 01       	movw	r20, r24
     f90:	c5 01       	movw	r24, r10
     f92:	b4 01       	movw	r22, r8
     f94:	0e 94 48 1c 	call	0x3890	; 0x3890 <__divsf3>
     f98:	04 c0       	rjmp	.+8      	; 0xfa2 <get_humidity+0xe2>
			temperature = 20.0;		// to avoid uninitialized note
			break;
	}

	if (read_ADS1115(ADC_RH, PGA6144, adcpin, DR128, &voltage) == ERROR) {
		humidity = BADFLOAT;
     f9a:	60 e0       	ldi	r22, 0x00	; 0
     f9c:	70 e8       	ldi	r23, 0x80	; 128
     f9e:	86 e2       	ldi	r24, 0x26	; 38
     fa0:	94 ec       	ldi	r25, 0xC4	; 196
		humidity = (humidity / (1.0546 - 0.00216 * temperature));
	}

	return(humidity);

}
     fa2:	24 96       	adiw	r28, 0x04	; 4
     fa4:	cd bf       	out	0x3d, r28	; 61
     fa6:	de bf       	out	0x3e, r29	; 62
     fa8:	df 91       	pop	r29
     faa:	cf 91       	pop	r28
     fac:	1f 91       	pop	r17
     fae:	0f 91       	pop	r16
     fb0:	ff 90       	pop	r15
     fb2:	ef 90       	pop	r14
     fb4:	df 90       	pop	r13
     fb6:	cf 90       	pop	r12
     fb8:	bf 90       	pop	r11
     fba:	af 90       	pop	r10
     fbc:	9f 90       	pop	r9
     fbe:	8f 90       	pop	r8
     fc0:	08 95       	ret

00000fc2 <initialize0>:
*/

void initialize0(void)
{

	init_PORTS();
     fc2:	0e 94 6e 0e 	call	0x1cdc	; 0x1cdc <init_PORTS>
	PORTF.PIN6CTRL = PORT_PULLUPEN_bm | PORT_ISC_FALLING_gc;	// Pushbutton setup
     fc6:	8b e0       	ldi	r24, 0x0B	; 11
     fc8:	80 93 b6 04 	sts	0x04B6, r24	; 0x8004b6 <__TEXT_REGION_LENGTH__+0x7f44b6>
	init_XPORT();
     fcc:	0e 94 ca 1b 	call	0x3794	; 0x3794 <init_XPORT>
	init_SPECID();
     fd0:	0e 94 28 18 	call	0x3050	; 0x3050 <init_SPECID>
	init_LED();
     fd4:	0e 94 96 08 	call	0x112c	; 0x112c <init_LED>
	init_BEEPER();
     fd8:	0e 94 b4 02 	call	0x568	; 0x568 <init_BEEPER>
	init_TWI();
     fdc:	0e 94 ca 18 	call	0x3194	; 0x3194 <init_TWI>
	init_RTC(32);	// Fast, 1/16 sec, for blinking LED at startup
     fe0:	80 e2       	ldi	r24, 0x20	; 32
     fe2:	90 e0       	ldi	r25, 0x00	; 0
     fe4:	0e 94 73 17 	call	0x2ee6	; 0x2ee6 <init_RTC>
	init_USART();
     fe8:	0e 94 5c 19 	call	0x32b8	; 0x32b8 <init_USART>
     fec:	08 95       	ret

00000fee <initialize1>:

}

void initialize1(void)
{
     fee:	cf 93       	push	r28
     ff0:	df 93       	push	r29
     ff2:	cd b7       	in	r28, 0x3d	; 61
     ff4:	de b7       	in	r29, 0x3e	; 62
     ff6:	2b 97       	sbiw	r28, 0x0b	; 11
     ff8:	cd bf       	out	0x3d, r28	; 61
     ffa:	de bf       	out	0x3e, r29	; 62

	char versionstr[11];

	rebootackd = NO;
     ffc:	10 92 06 28 	sts	0x2806, r1	; 0x802806 <rebootackd>
	init_MOTORS();
    1000:	0e 94 3f 17 	call	0x2e7e	; 0x2e7e <init_MOTORS>
	init_MMA8451();
    1004:	0e 94 68 0a 	call	0x14d0	; 0x14d0 <init_MMA8451>
	init_PNEU();
    1008:	0e 94 30 0c 	call	0x1860	; 0x1860 <init_PNEU>
	init_OLED(0);
    100c:	80 e0       	ldi	r24, 0x00	; 0
    100e:	0e 94 f5 0a 	call	0x15ea	; 0x15ea <init_OLED>
	init_OLED(1);
    1012:	81 e0       	ldi	r24, 0x01	; 1
    1014:	0e 94 f5 0a 	call	0x15ea	; 0x15ea <init_OLED>
	init_EEPROM();	// Needs TWI
    1018:	0e 94 70 06 	call	0xce0	; 0xce0 <init_EEPROM>
	timeoutOLED = 30 * (512/32);	// 30 seconds for version display
    101c:	80 ee       	ldi	r24, 0xE0	; 224
    101e:	91 e0       	ldi	r25, 0x01	; 1
    1020:	80 93 11 2a 	sts	0x2A11, r24	; 0x802a11 <timeoutOLED>
    1024:	90 93 12 2a 	sts	0x2A12, r25	; 0x802a12 <timeoutOLED+0x1>
	get_VERSION(versionstr);
    1028:	ce 01       	movw	r24, r28
    102a:	01 96       	adiw	r24, 0x01	; 1
    102c:	0e 94 32 06 	call	0xc64	; 0xc64 <get_VERSION>
	writestr_OLED(1,"specMech Version", 1);
    1030:	41 e0       	ldi	r20, 0x01	; 1
    1032:	69 e3       	ldi	r22, 0x39	; 57
    1034:	79 e8       	ldi	r23, 0x89	; 137
    1036:	81 e0       	ldi	r24, 0x01	; 1
    1038:	0e 94 b5 0b 	call	0x176a	; 0x176a <writestr_OLED>
	writestr_OLED(1, versionstr, 2);
    103c:	42 e0       	ldi	r20, 0x02	; 2
    103e:	be 01       	movw	r22, r28
    1040:	6f 5f       	subi	r22, 0xFF	; 255
    1042:	7f 4f       	sbci	r23, 0xFF	; 255
    1044:	81 e0       	ldi	r24, 0x01	; 1
    1046:	0e 94 b5 0b 	call	0x176a	; 0x176a <writestr_OLED>

}
    104a:	2b 96       	adiw	r28, 0x0b	; 11
    104c:	cd bf       	out	0x3d, r28	; 61
    104e:	de bf       	out	0x3e, r29	; 62
    1050:	df 91       	pop	r29
    1052:	cf 91       	pop	r28
    1054:	08 95       	ret

00001056 <read_ionpump>:
	Returns:
		The log10(pressure) where pressure is in Pascals. Subtracting 2.125
		from this value provides the log10(pressure) for pressure in Torr.
		If the voltage is out of range, -999.9 is returned..
------------------------------------------------------------------------------*/
float read_ionpump(uint8_t pumpid) {
    1056:	cf 92       	push	r12
    1058:	df 92       	push	r13
    105a:	ef 92       	push	r14
    105c:	ff 92       	push	r15
    105e:	0f 93       	push	r16
    1060:	1f 93       	push	r17
    1062:	cf 93       	push	r28
    1064:	df 93       	push	r29
    1066:	00 d0       	rcall	.+0      	; 0x1068 <read_ionpump+0x12>
    1068:	00 d0       	rcall	.+0      	; 0x106a <read_ionpump+0x14>
    106a:	cd b7       	in	r28, 0x3d	; 61
    106c:	de b7       	in	r29, 0x3e	; 62

	uint8_t pins;
	float voltage, vacuum;

	if (pumpid == REDPUMP) {
    106e:	81 30       	cpi	r24, 0x01	; 1
    1070:	21 f0       	breq	.+8      	; 0x107a <read_ionpump+0x24>
		pins = AIN01;
	} else if (pumpid == BLUEPUMP) {
    1072:	82 30       	cpi	r24, 0x02	; 2
    1074:	c1 f5       	brne	.+112    	; 0x10e6 <read_ionpump+0x90>
		pins = AIN23;
    1076:	40 e3       	ldi	r20, 0x30	; 48
    1078:	01 c0       	rjmp	.+2      	; 0x107c <read_ionpump+0x26>

	uint8_t pins;
	float voltage, vacuum;

	if (pumpid == REDPUMP) {
		pins = AIN01;
    107a:	40 e0       	ldi	r20, 0x00	; 0
		pins = AIN23;
	} else {
		return(BADFLOAT);
	}

	if (read_ADS1115(ADC_IP, PGA4096, pins, DR128, &voltage) == ERROR) {
    107c:	8e 01       	movw	r16, r28
    107e:	0f 5f       	subi	r16, 0xFF	; 255
    1080:	1f 4f       	sbci	r17, 0xFF	; 255
    1082:	20 e8       	ldi	r18, 0x80	; 128
    1084:	62 e0       	ldi	r22, 0x02	; 2
    1086:	89 e4       	ldi	r24, 0x49	; 73
    1088:	0e 94 ca 01 	call	0x394	; 0x394 <read_ADS1115>
    108c:	83 36       	cpi	r24, 0x63	; 99
    108e:	81 f1       	breq	.+96     	; 0x10f0 <read_ionpump+0x9a>
		return(BADFLOAT);
	}
	if (voltage < 0.4) {						// Useful range for the Modion pump
    1090:	c9 80       	ldd	r12, Y+1	; 0x01
    1092:	da 80       	ldd	r13, Y+2	; 0x02
    1094:	eb 80       	ldd	r14, Y+3	; 0x03
    1096:	fc 80       	ldd	r15, Y+4	; 0x04
    1098:	2d ec       	ldi	r18, 0xCD	; 205
    109a:	3c ec       	ldi	r19, 0xCC	; 204
    109c:	4c ec       	ldi	r20, 0xCC	; 204
    109e:	5e e3       	ldi	r21, 0x3E	; 62
    10a0:	c7 01       	movw	r24, r14
    10a2:	b6 01       	movw	r22, r12
    10a4:	0e 94 43 1c 	call	0x3886	; 0x3886 <__cmpsf2>
    10a8:	88 23       	and	r24, r24
    10aa:	3c f1       	brlt	.+78     	; 0x10fa <read_ionpump+0xa4>
		return(BADFLOAT);							// after ISO224 op-amp is 0.5 to 2.0 V
	} else if (voltage > 2.0) {
    10ac:	20 e0       	ldi	r18, 0x00	; 0
    10ae:	30 e0       	ldi	r19, 0x00	; 0
    10b0:	40 e0       	ldi	r20, 0x00	; 0
    10b2:	50 e4       	ldi	r21, 0x40	; 64
    10b4:	c7 01       	movw	r24, r14
    10b6:	b6 01       	movw	r22, r12
    10b8:	0e 94 6c 1d 	call	0x3ad8	; 0x3ad8 <__gesf2>
    10bc:	18 16       	cp	r1, r24
    10be:	14 f1       	brlt	.+68     	; 0x1104 <read_ionpump+0xae>
		return(BADFLOAT);
	}

	vacuum = ISO224SLOPE * voltage + ISO224INTER;
    10c0:	29 e7       	ldi	r18, 0x79	; 121
    10c2:	39 ee       	ldi	r19, 0xE9	; 233
    10c4:	42 e0       	ldi	r20, 0x02	; 2
    10c6:	50 e4       	ldi	r21, 0x40	; 64
    10c8:	c7 01       	movw	r24, r14
    10ca:	b6 01       	movw	r22, r12
    10cc:	0e 94 71 1d 	call	0x3ae2	; 0x3ae2 <__mulsf3>
    10d0:	2e e6       	ldi	r18, 0x6E	; 110
    10d2:	33 ea       	ldi	r19, 0xA3	; 163
    10d4:	4b ed       	ldi	r20, 0xDB	; 219
    10d6:	50 e4       	ldi	r21, 0x40	; 64
    10d8:	0e 94 d6 1b 	call	0x37ac	; 0x37ac <__subsf3>
	return(vacuum);
    10dc:	56 2f       	mov	r21, r22
    10de:	47 2f       	mov	r20, r23
    10e0:	38 2f       	mov	r19, r24
    10e2:	29 2f       	mov	r18, r25
    10e4:	13 c0       	rjmp	.+38     	; 0x110c <read_ionpump+0xb6>
	if (pumpid == REDPUMP) {
		pins = AIN01;
	} else if (pumpid == BLUEPUMP) {
		pins = AIN23;
	} else {
		return(BADFLOAT);
    10e6:	50 e0       	ldi	r21, 0x00	; 0
    10e8:	40 e8       	ldi	r20, 0x80	; 128
    10ea:	36 e2       	ldi	r19, 0x26	; 38
    10ec:	24 ec       	ldi	r18, 0xC4	; 196
    10ee:	0e c0       	rjmp	.+28     	; 0x110c <read_ionpump+0xb6>
	}

	if (read_ADS1115(ADC_IP, PGA4096, pins, DR128, &voltage) == ERROR) {
		return(BADFLOAT);
    10f0:	50 e0       	ldi	r21, 0x00	; 0
    10f2:	40 e8       	ldi	r20, 0x80	; 128
    10f4:	36 e2       	ldi	r19, 0x26	; 38
    10f6:	24 ec       	ldi	r18, 0xC4	; 196
    10f8:	09 c0       	rjmp	.+18     	; 0x110c <read_ionpump+0xb6>
	}
	if (voltage < 0.4) {						// Useful range for the Modion pump
		return(BADFLOAT);							// after ISO224 op-amp is 0.5 to 2.0 V
    10fa:	50 e0       	ldi	r21, 0x00	; 0
    10fc:	40 e8       	ldi	r20, 0x80	; 128
    10fe:	36 e2       	ldi	r19, 0x26	; 38
    1100:	24 ec       	ldi	r18, 0xC4	; 196
    1102:	04 c0       	rjmp	.+8      	; 0x110c <read_ionpump+0xb6>
	} else if (voltage > 2.0) {
		return(BADFLOAT);
    1104:	50 e0       	ldi	r21, 0x00	; 0
    1106:	40 e8       	ldi	r20, 0x80	; 128
    1108:	36 e2       	ldi	r19, 0x26	; 38
    110a:	24 ec       	ldi	r18, 0xC4	; 196
	}

	vacuum = ISO224SLOPE * voltage + ISO224INTER;
	return(vacuum);

}
    110c:	65 2f       	mov	r22, r21
    110e:	74 2f       	mov	r23, r20
    1110:	83 2f       	mov	r24, r19
    1112:	92 2f       	mov	r25, r18
    1114:	24 96       	adiw	r28, 0x04	; 4
    1116:	cd bf       	out	0x3d, r28	; 61
    1118:	de bf       	out	0x3e, r29	; 62
    111a:	df 91       	pop	r29
    111c:	cf 91       	pop	r28
    111e:	1f 91       	pop	r17
    1120:	0f 91       	pop	r16
    1122:	ff 90       	pop	r15
    1124:	ef 90       	pop	r14
    1126:	df 90       	pop	r13
    1128:	cf 90       	pop	r12
    112a:	08 95       	ret

0000112c <init_LED>:
#include "globals.h"

void init_LED(void)
{
	PORTF.OUTSET = PIN5_bm;
    112c:	e0 ea       	ldi	r30, 0xA0	; 160
    112e:	f4 e0       	ldi	r31, 0x04	; 4
    1130:	80 e2       	ldi	r24, 0x20	; 32
    1132:	85 83       	std	Z+5, r24	; 0x05
	PORTF.DIRSET = PIN5_bm;
    1134:	81 83       	std	Z+1, r24	; 0x01
    1136:	08 95       	ret

00001138 <main>:
uint8_t firstpass;

int main(void)
{

	firstpass = YES;		// Set to YES in commands.c
    1138:	81 e0       	ldi	r24, 0x01	; 1
    113a:	80 93 05 28 	sts	0x2805, r24	; 0x802805 <firstpass>
	initialize0();
    113e:	0e 94 e1 07 	call	0xfc2	; 0xfc2 <initialize0>
	sei();
    1142:	78 94       	sei
	initialize1();
    1144:	0e 94 f7 07 	call	0xfee	; 0xfee <initialize1>

	for (;;) {
		if (recv0_buf.done) {
    1148:	80 91 20 2c 	lds	r24, 0x2C20	; 0x802c20 <recv0_buf+0x104>
    114c:	88 23       	and	r24, r24
    114e:	e1 f3       	breq	.-8      	; 0x1148 <main+0x10>
			recv0_buf.done = NO;
    1150:	10 92 20 2c 	sts	0x2C20, r1	; 0x802c20 <recv0_buf+0x104>
			commands();
    1154:	0e 94 4f 04 	call	0x89e	; 0x89e <commands>
    1158:	f7 cf       	rjmp	.-18     	; 0x1148 <main+0x10>

0000115a <read_MCP23008>:
	Returns:
		ERROR if TWI error
		NOERROR Otherwise
------------------------------------------------------------------------------*/
uint8_t read_MCP23008(uint8_t addr, uint8_t reg)
{
    115a:	cf 93       	push	r28
    115c:	df 93       	push	r29
    115e:	c8 2f       	mov	r28, r24
    1160:	d6 2f       	mov	r29, r22

	uint8_t value;

	if (start_TWI(addr, TWIWRITE) == ERROR) {
    1162:	60 e0       	ldi	r22, 0x00	; 0
    1164:	0e 94 f2 18 	call	0x31e4	; 0x31e4 <start_TWI>
    1168:	83 36       	cpi	r24, 0x63	; 99
    116a:	51 f4       	brne	.+20     	; 0x1180 <read_MCP23008+0x26>
		printError(ERR_MCP23008, "MCP23008 read error");
    116c:	6a e4       	ldi	r22, 0x4A	; 74
    116e:	79 e8       	ldi	r23, 0x89	; 137
    1170:	82 e9       	ldi	r24, 0x92	; 146
    1172:	91 e0       	ldi	r25, 0x01	; 1
    1174:	0e 94 75 06 	call	0xcea	; 0xcea <printError>
		stop_TWI();
    1178:	0e 94 33 19 	call	0x3266	; 0x3266 <stop_TWI>
		return(0xFF);
    117c:	8f ef       	ldi	r24, 0xFF	; 255
    117e:	0d c0       	rjmp	.+26     	; 0x119a <read_MCP23008+0x40>
	}
	write_TWI(reg);
    1180:	8d 2f       	mov	r24, r29
    1182:	0e 94 37 19 	call	0x326e	; 0x326e <write_TWI>
	start_TWI(addr, TWIREAD);
    1186:	61 e0       	ldi	r22, 0x01	; 1
    1188:	8c 2f       	mov	r24, r28
    118a:	0e 94 f2 18 	call	0x31e4	; 0x31e4 <start_TWI>
	value = readlast_TWI();
    118e:	0e 94 e5 18 	call	0x31ca	; 0x31ca <readlast_TWI>
    1192:	c8 2f       	mov	r28, r24
	stop_TWI();
    1194:	0e 94 33 19 	call	0x3266	; 0x3266 <stop_TWI>
	return(value);
    1198:	8c 2f       	mov	r24, r28

}
    119a:	df 91       	pop	r29
    119c:	cf 91       	pop	r28
    119e:	08 95       	ret

000011a0 <write_MCP23008>:

	Returns:
		0 if OK, TWI error if not (see twi.c)
------------------------------------------------------------------------------*/
uint8_t write_MCP23008(uint8_t addr, uint8_t reg, uint8_t val)
{
    11a0:	1f 93       	push	r17
    11a2:	cf 93       	push	r28
    11a4:	df 93       	push	r29
    11a6:	d6 2f       	mov	r29, r22
    11a8:	14 2f       	mov	r17, r20

	uint8_t retval;

	if (start_TWI(addr, TWIWRITE) == ERROR) {
    11aa:	60 e0       	ldi	r22, 0x00	; 0
    11ac:	0e 94 f2 18 	call	0x31e4	; 0x31e4 <start_TWI>
    11b0:	c8 2f       	mov	r28, r24
    11b2:	83 36       	cpi	r24, 0x63	; 99
    11b4:	49 f4       	brne	.+18     	; 0x11c8 <write_MCP23008+0x28>
		printError(ERR_MCP23008, "MCP23008 write error");
    11b6:	6e e5       	ldi	r22, 0x5E	; 94
    11b8:	79 e8       	ldi	r23, 0x89	; 137
    11ba:	82 e9       	ldi	r24, 0x92	; 146
    11bc:	91 e0       	ldi	r25, 0x01	; 1
    11be:	0e 94 75 06 	call	0xcea	; 0xcea <printError>
		stop_TWI();
    11c2:	0e 94 33 19 	call	0x3266	; 0x3266 <stop_TWI>
		return(ERROR);
    11c6:	15 c0       	rjmp	.+42     	; 0x11f2 <write_MCP23008+0x52>
	}
	if ((retval = write_TWI(reg))) {
    11c8:	8d 2f       	mov	r24, r29
    11ca:	0e 94 37 19 	call	0x326e	; 0x326e <write_TWI>
    11ce:	88 23       	and	r24, r24
    11d0:	21 f0       	breq	.+8      	; 0x11da <write_MCP23008+0x3a>
		stop_TWI();
    11d2:	0e 94 33 19 	call	0x3266	; 0x3266 <stop_TWI>
		return(ERROR);
    11d6:	c3 e6       	ldi	r28, 0x63	; 99
    11d8:	0c c0       	rjmp	.+24     	; 0x11f2 <write_MCP23008+0x52>
	}
	if ((retval = write_TWI(val))) {
    11da:	81 2f       	mov	r24, r17
    11dc:	0e 94 37 19 	call	0x326e	; 0x326e <write_TWI>
    11e0:	88 23       	and	r24, r24
    11e2:	21 f0       	breq	.+8      	; 0x11ec <write_MCP23008+0x4c>
		stop_TWI();
    11e4:	0e 94 33 19 	call	0x3266	; 0x3266 <stop_TWI>
		return(ERROR);
    11e8:	c3 e6       	ldi	r28, 0x63	; 99
    11ea:	03 c0       	rjmp	.+6      	; 0x11f2 <write_MCP23008+0x52>
	}
	stop_TWI();
    11ec:	0e 94 33 19 	call	0x3266	; 0x3266 <stop_TWI>
	return(NOERROR);
    11f0:	c0 e0       	ldi	r28, 0x00	; 0
	
}
    11f2:	8c 2f       	mov	r24, r28
    11f4:	df 91       	pop	r29
    11f6:	cf 91       	pop	r28
    11f8:	1f 91       	pop	r17
    11fa:	08 95       	ret

000011fc <read_MCP9808>:
#include "errors.h"
#include "mcp9808.h"
#include "twi.h"

uint8_t read_MCP9808(float *temperature)
{
    11fc:	8f 92       	push	r8
    11fe:	9f 92       	push	r9
    1200:	af 92       	push	r10
    1202:	bf 92       	push	r11
    1204:	ff 92       	push	r15
    1206:	0f 93       	push	r16
    1208:	1f 93       	push	r17
    120a:	cf 93       	push	r28
    120c:	df 93       	push	r29
    120e:	8c 01       	movw	r16, r24

	uint8_t highbyte, lowbyte, sign;
	float temp;

	if (start_TWI(MCP9808ADDR, TWIWRITE) == ERROR) {
    1210:	60 e0       	ldi	r22, 0x00	; 0
    1212:	88 e1       	ldi	r24, 0x18	; 24
    1214:	0e 94 f2 18 	call	0x31e4	; 0x31e4 <start_TWI>
    1218:	83 36       	cpi	r24, 0x63	; 99
    121a:	51 f4       	brne	.+20     	; 0x1230 <read_MCP9808+0x34>
		*temperature = BADFLOAT;
    121c:	40 e0       	ldi	r20, 0x00	; 0
    121e:	50 e8       	ldi	r21, 0x80	; 128
    1220:	66 e2       	ldi	r22, 0x26	; 38
    1222:	74 ec       	ldi	r23, 0xC4	; 196
    1224:	f8 01       	movw	r30, r16
    1226:	40 83       	st	Z, r20
    1228:	51 83       	std	Z+1, r21	; 0x01
    122a:	62 83       	std	Z+2, r22	; 0x02
    122c:	73 83       	std	Z+3, r23	; 0x03
		return(ERROR);
    122e:	43 c0       	rjmp	.+134    	; 0x12b6 <read_MCP9808+0xba>
	}
	write_TWI(TEMPREGISTER);
    1230:	85 e0       	ldi	r24, 0x05	; 5
    1232:	0e 94 37 19 	call	0x326e	; 0x326e <write_TWI>
	start_TWI(MCP9808ADDR, TWIREAD);
    1236:	61 e0       	ldi	r22, 0x01	; 1
    1238:	88 e1       	ldi	r24, 0x18	; 24
    123a:	0e 94 f2 18 	call	0x31e4	; 0x31e4 <start_TWI>
	highbyte = read_TWI();
    123e:	0e 94 d5 18 	call	0x31aa	; 0x31aa <read_TWI>
    1242:	c8 2f       	mov	r28, r24
	lowbyte = readlast_TWI();
    1244:	0e 94 e5 18 	call	0x31ca	; 0x31ca <readlast_TWI>
    1248:	d8 2f       	mov	r29, r24
	stop_TWI();
    124a:	0e 94 33 19 	call	0x3266	; 0x3266 <stop_TWI>

	sign = highbyte & 0x10;				// Save sign
    124e:	fc 2f       	mov	r31, r28
    1250:	f0 71       	andi	r31, 0x10	; 16
    1252:	ff 2e       	mov	r15, r31
	highbyte &= 0x0F;					// Clear threshold & sign bits
    1254:	6c 2f       	mov	r22, r28
    1256:	6f 70       	andi	r22, 0x0F	; 15
	temp = (((float)highbyte * 16.0) + ((float)lowbyte / 16.0));
    1258:	70 e0       	ldi	r23, 0x00	; 0
    125a:	80 e0       	ldi	r24, 0x00	; 0
    125c:	90 e0       	ldi	r25, 0x00	; 0
    125e:	0e 94 ba 1c 	call	0x3974	; 0x3974 <__floatunsisf>
    1262:	20 e0       	ldi	r18, 0x00	; 0
    1264:	30 e0       	ldi	r19, 0x00	; 0
    1266:	40 e8       	ldi	r20, 0x80	; 128
    1268:	51 e4       	ldi	r21, 0x41	; 65
    126a:	0e 94 71 1d 	call	0x3ae2	; 0x3ae2 <__mulsf3>
    126e:	4b 01       	movw	r8, r22
    1270:	5c 01       	movw	r10, r24
    1272:	6d 2f       	mov	r22, r29
    1274:	70 e0       	ldi	r23, 0x00	; 0
    1276:	80 e0       	ldi	r24, 0x00	; 0
    1278:	90 e0       	ldi	r25, 0x00	; 0
    127a:	0e 94 ba 1c 	call	0x3974	; 0x3974 <__floatunsisf>
    127e:	20 e0       	ldi	r18, 0x00	; 0
    1280:	30 e0       	ldi	r19, 0x00	; 0
    1282:	40 e8       	ldi	r20, 0x80	; 128
    1284:	5d e3       	ldi	r21, 0x3D	; 61
    1286:	0e 94 71 1d 	call	0x3ae2	; 0x3ae2 <__mulsf3>
    128a:	9b 01       	movw	r18, r22
    128c:	ac 01       	movw	r20, r24
    128e:	c5 01       	movw	r24, r10
    1290:	b4 01       	movw	r22, r8
    1292:	0e 94 d7 1b 	call	0x37ae	; 0x37ae <__addsf3>
	if (sign) {
    1296:	ff 20       	and	r15, r15
    1298:	41 f0       	breq	.+16     	; 0x12aa <read_MCP9808+0xae>
		temp = 256.0 - temp;
    129a:	9b 01       	movw	r18, r22
    129c:	ac 01       	movw	r20, r24
    129e:	60 e0       	ldi	r22, 0x00	; 0
    12a0:	70 e0       	ldi	r23, 0x00	; 0
    12a2:	80 e8       	ldi	r24, 0x80	; 128
    12a4:	93 e4       	ldi	r25, 0x43	; 67
    12a6:	0e 94 d6 1b 	call	0x37ac	; 0x37ac <__subsf3>
	}
	*temperature = temp;
    12aa:	f8 01       	movw	r30, r16
    12ac:	60 83       	st	Z, r22
    12ae:	71 83       	std	Z+1, r23	; 0x01
    12b0:	82 83       	std	Z+2, r24	; 0x02
    12b2:	93 83       	std	Z+3, r25	; 0x03
	return(NOERROR);
    12b4:	80 e0       	ldi	r24, 0x00	; 0
}
    12b6:	df 91       	pop	r29
    12b8:	cf 91       	pop	r28
    12ba:	1f 91       	pop	r17
    12bc:	0f 91       	pop	r16
    12be:	ff 90       	pop	r15
    12c0:	bf 90       	pop	r11
    12c2:	af 90       	pop	r10
    12c4:	9f 90       	pop	r9
    12c6:	8f 90       	pop	r8
    12c8:	08 95       	ret

000012ca <read_MMA8451>:
	Returns:
		val - data starting in the MMA8451 register reg
		Function returns 0 if OK, TWI-error if not (see twi.c)
------------------------------------------------------------------------------*/
uint8_t read_MMA8451(uint8_t addr, uint8_t reg, uint8_t *val, uint8_t nbytes)
{
    12ca:	ef 92       	push	r14
    12cc:	ff 92       	push	r15
    12ce:	0f 93       	push	r16
    12d0:	1f 93       	push	r17
    12d2:	cf 93       	push	r28
    12d4:	df 93       	push	r29
    12d6:	f8 2e       	mov	r15, r24
    12d8:	e6 2e       	mov	r14, r22
    12da:	ea 01       	movw	r28, r20
    12dc:	02 2f       	mov	r16, r18

	uint8_t i;

	if (start_TWI(addr, TWIWRITE) == ERROR) {
    12de:	60 e0       	ldi	r22, 0x00	; 0
    12e0:	0e 94 f2 18 	call	0x31e4	; 0x31e4 <start_TWI>
    12e4:	18 2f       	mov	r17, r24
    12e6:	83 36       	cpi	r24, 0x63	; 99
    12e8:	19 f4       	brne	.+6      	; 0x12f0 <read_MMA8451+0x26>
		stop_TWI();
    12ea:	0e 94 33 19 	call	0x3266	; 0x3266 <stop_TWI>
		return(ERROR);
    12ee:	23 c0       	rjmp	.+70     	; 0x1336 <read_MMA8451+0x6c>
	}
	if (write_TWI(reg) == ERROR) {
    12f0:	8e 2d       	mov	r24, r14
    12f2:	0e 94 37 19 	call	0x326e	; 0x326e <write_TWI>
    12f6:	18 2f       	mov	r17, r24
    12f8:	83 36       	cpi	r24, 0x63	; 99
    12fa:	e9 f0       	breq	.+58     	; 0x1336 <read_MMA8451+0x6c>
		return(ERROR);
	}
	if (start_TWI(addr, TWIREAD) == ERROR) {
    12fc:	61 e0       	ldi	r22, 0x01	; 1
    12fe:	8f 2d       	mov	r24, r15
    1300:	0e 94 f2 18 	call	0x31e4	; 0x31e4 <start_TWI>
    1304:	18 2f       	mov	r17, r24
    1306:	83 36       	cpi	r24, 0x63	; 99
    1308:	69 f4       	brne	.+26     	; 0x1324 <read_MMA8451+0x5a>
		stop_TWI();
    130a:	0e 94 33 19 	call	0x3266	; 0x3266 <stop_TWI>
		return(ERROR);
    130e:	13 c0       	rjmp	.+38     	; 0x1336 <read_MMA8451+0x6c>
	}
	for (i = 1; i < nbytes; i++) {
		*val++ = read_TWI();
    1310:	7e 01       	movw	r14, r28
    1312:	8f ef       	ldi	r24, 0xFF	; 255
    1314:	e8 1a       	sub	r14, r24
    1316:	f8 0a       	sbc	r15, r24
    1318:	0e 94 d5 18 	call	0x31aa	; 0x31aa <read_TWI>
    131c:	88 83       	st	Y, r24
	}
	if (start_TWI(addr, TWIREAD) == ERROR) {
		stop_TWI();
		return(ERROR);
	}
	for (i = 1; i < nbytes; i++) {
    131e:	1f 5f       	subi	r17, 0xFF	; 255
		*val++ = read_TWI();
    1320:	e7 01       	movw	r28, r14
    1322:	01 c0       	rjmp	.+2      	; 0x1326 <read_MMA8451+0x5c>
    1324:	11 e0       	ldi	r17, 0x01	; 1
	}
	if (start_TWI(addr, TWIREAD) == ERROR) {
		stop_TWI();
		return(ERROR);
	}
	for (i = 1; i < nbytes; i++) {
    1326:	10 17       	cp	r17, r16
    1328:	98 f3       	brcs	.-26     	; 0x1310 <read_MMA8451+0x46>
		*val++ = read_TWI();
	}
	*val = readlast_TWI();
    132a:	0e 94 e5 18 	call	0x31ca	; 0x31ca <readlast_TWI>
    132e:	88 83       	st	Y, r24
	stop_TWI();
    1330:	0e 94 33 19 	call	0x3266	; 0x3266 <stop_TWI>
	return(NOERROR);
    1334:	10 e0       	ldi	r17, 0x00	; 0

}
    1336:	81 2f       	mov	r24, r17
    1338:	df 91       	pop	r29
    133a:	cf 91       	pop	r28
    133c:	1f 91       	pop	r17
    133e:	0f 91       	pop	r16
    1340:	ff 90       	pop	r15
    1342:	ef 90       	pop	r14
    1344:	08 95       	ret

00001346 <get_orientation>:
	Put the accelerometer readout into x, y, and z after scaling to 980.6
	cm/s/s gravity.
------------------------------------------------------------------------------*/
//uint8_t get_orientation(uint8_t addr, float *x, float *y, float *z)
uint8_t get_orientation(float *x, float *y, float *z)
{
    1346:	cf 92       	push	r12
    1348:	df 92       	push	r13
    134a:	ef 92       	push	r14
    134c:	ff 92       	push	r15
    134e:	0f 93       	push	r16
    1350:	1f 93       	push	r17
    1352:	cf 93       	push	r28
    1354:	df 93       	push	r29
    1356:	cd b7       	in	r28, 0x3d	; 61
    1358:	de b7       	in	r29, 0x3e	; 62
    135a:	26 97       	sbiw	r28, 0x06	; 6
    135c:	cd bf       	out	0x3d, r28	; 61
    135e:	de bf       	out	0x3e, r29	; 62
    1360:	6c 01       	movw	r12, r24
    1362:	7b 01       	movw	r14, r22
    1364:	8a 01       	movw	r16, r20

	uint8_t datain[6];
	int16_t ix, iy, iz;

	*x = *y = *z = -666.0;
    1366:	80 e0       	ldi	r24, 0x00	; 0
    1368:	90 e8       	ldi	r25, 0x80	; 128
    136a:	a6 e2       	ldi	r26, 0x26	; 38
    136c:	b4 ec       	ldi	r27, 0xC4	; 196
    136e:	fa 01       	movw	r30, r20
    1370:	80 83       	st	Z, r24
    1372:	91 83       	std	Z+1, r25	; 0x01
    1374:	a2 83       	std	Z+2, r26	; 0x02
    1376:	b3 83       	std	Z+3, r27	; 0x03
    1378:	fb 01       	movw	r30, r22
    137a:	80 83       	st	Z, r24
    137c:	91 83       	std	Z+1, r25	; 0x01
    137e:	a2 83       	std	Z+2, r26	; 0x02
    1380:	b3 83       	std	Z+3, r27	; 0x03
    1382:	f6 01       	movw	r30, r12
    1384:	80 83       	st	Z, r24
    1386:	91 83       	std	Z+1, r25	; 0x01
    1388:	a2 83       	std	Z+2, r26	; 0x02
    138a:	b3 83       	std	Z+3, r27	; 0x03

	if (read_MMA8451(MMA8451ADDR, MMA8451OUTXMSB, datain, 6) == ERROR) {
    138c:	26 e0       	ldi	r18, 0x06	; 6
    138e:	ae 01       	movw	r20, r28
    1390:	4f 5f       	subi	r20, 0xFF	; 255
    1392:	5f 4f       	sbci	r21, 0xFF	; 255
    1394:	61 e0       	ldi	r22, 0x01	; 1
    1396:	8d e1       	ldi	r24, 0x1D	; 29
    1398:	0e 94 65 09 	call	0x12ca	; 0x12ca <read_MMA8451>
    139c:	83 36       	cpi	r24, 0x63	; 99
    139e:	09 f4       	brne	.+2      	; 0x13a2 <get_orientation+0x5c>
    13a0:	61 c0       	rjmp	.+194    	; 0x1464 <get_orientation+0x11e>
		return(ERROR);
	}

	ix = datain[0];
    13a2:	89 81       	ldd	r24, Y+1	; 0x01
    13a4:	90 e0       	ldi	r25, 0x00	; 0
	ix <<= 8;
    13a6:	98 2f       	mov	r25, r24
    13a8:	88 27       	eor	r24, r24
	ix |= datain[1];
    13aa:	2a 81       	ldd	r18, Y+2	; 0x02
    13ac:	82 2b       	or	r24, r18
	ix /= 4;
    13ae:	bc 01       	movw	r22, r24
    13b0:	77 23       	and	r23, r23
    13b2:	14 f4       	brge	.+4      	; 0x13b8 <get_orientation+0x72>
    13b4:	6d 5f       	subi	r22, 0xFD	; 253
    13b6:	7f 4f       	sbci	r23, 0xFF	; 255
    13b8:	75 95       	asr	r23
    13ba:	67 95       	ror	r22
    13bc:	75 95       	asr	r23
    13be:	67 95       	ror	r22
	*x = (980.6/4096.0) * (float) ix;
    13c0:	07 2e       	mov	r0, r23
    13c2:	00 0c       	add	r0, r0
    13c4:	88 0b       	sbc	r24, r24
    13c6:	99 0b       	sbc	r25, r25
    13c8:	0e 94 bc 1c 	call	0x3978	; 0x3978 <__floatsisf>
    13cc:	26 e6       	ldi	r18, 0x66	; 102
    13ce:	36 e2       	ldi	r19, 0x26	; 38
    13d0:	45 e7       	ldi	r20, 0x75	; 117
    13d2:	5e e3       	ldi	r21, 0x3E	; 62
    13d4:	0e 94 71 1d 	call	0x3ae2	; 0x3ae2 <__mulsf3>
    13d8:	f6 01       	movw	r30, r12
    13da:	60 83       	st	Z, r22
    13dc:	71 83       	std	Z+1, r23	; 0x01
    13de:	82 83       	std	Z+2, r24	; 0x02
    13e0:	93 83       	std	Z+3, r25	; 0x03

	iy = datain[2];
    13e2:	8b 81       	ldd	r24, Y+3	; 0x03
    13e4:	90 e0       	ldi	r25, 0x00	; 0
	iy <<= 8;
    13e6:	98 2f       	mov	r25, r24
    13e8:	88 27       	eor	r24, r24
	iy |= datain[3];
    13ea:	2c 81       	ldd	r18, Y+4	; 0x04
    13ec:	82 2b       	or	r24, r18
	iy /= 4;
    13ee:	bc 01       	movw	r22, r24
    13f0:	77 23       	and	r23, r23
    13f2:	14 f4       	brge	.+4      	; 0x13f8 <get_orientation+0xb2>
    13f4:	6d 5f       	subi	r22, 0xFD	; 253
    13f6:	7f 4f       	sbci	r23, 0xFF	; 255
    13f8:	75 95       	asr	r23
    13fa:	67 95       	ror	r22
    13fc:	75 95       	asr	r23
    13fe:	67 95       	ror	r22
	*y = (980.6/4096.0) * (float) iy;
    1400:	07 2e       	mov	r0, r23
    1402:	00 0c       	add	r0, r0
    1404:	88 0b       	sbc	r24, r24
    1406:	99 0b       	sbc	r25, r25
    1408:	0e 94 bc 1c 	call	0x3978	; 0x3978 <__floatsisf>
    140c:	26 e6       	ldi	r18, 0x66	; 102
    140e:	36 e2       	ldi	r19, 0x26	; 38
    1410:	45 e7       	ldi	r20, 0x75	; 117
    1412:	5e e3       	ldi	r21, 0x3E	; 62
    1414:	0e 94 71 1d 	call	0x3ae2	; 0x3ae2 <__mulsf3>
    1418:	f7 01       	movw	r30, r14
    141a:	60 83       	st	Z, r22
    141c:	71 83       	std	Z+1, r23	; 0x01
    141e:	82 83       	std	Z+2, r24	; 0x02
    1420:	93 83       	std	Z+3, r25	; 0x03

	iz = datain[4];
    1422:	8d 81       	ldd	r24, Y+5	; 0x05
    1424:	90 e0       	ldi	r25, 0x00	; 0
	iz <<= 8;
    1426:	98 2f       	mov	r25, r24
    1428:	88 27       	eor	r24, r24
	iz |= datain[5];
    142a:	2e 81       	ldd	r18, Y+6	; 0x06
    142c:	82 2b       	or	r24, r18
	iz /= 4;
    142e:	bc 01       	movw	r22, r24
    1430:	77 23       	and	r23, r23
    1432:	14 f4       	brge	.+4      	; 0x1438 <get_orientation+0xf2>
    1434:	6d 5f       	subi	r22, 0xFD	; 253
    1436:	7f 4f       	sbci	r23, 0xFF	; 255
    1438:	75 95       	asr	r23
    143a:	67 95       	ror	r22
    143c:	75 95       	asr	r23
    143e:	67 95       	ror	r22
	*z = (980.6/4096.0) * (float) iz;
    1440:	07 2e       	mov	r0, r23
    1442:	00 0c       	add	r0, r0
    1444:	88 0b       	sbc	r24, r24
    1446:	99 0b       	sbc	r25, r25
    1448:	0e 94 bc 1c 	call	0x3978	; 0x3978 <__floatsisf>
    144c:	26 e6       	ldi	r18, 0x66	; 102
    144e:	36 e2       	ldi	r19, 0x26	; 38
    1450:	45 e7       	ldi	r20, 0x75	; 117
    1452:	5e e3       	ldi	r21, 0x3E	; 62
    1454:	0e 94 71 1d 	call	0x3ae2	; 0x3ae2 <__mulsf3>
    1458:	f8 01       	movw	r30, r16
    145a:	60 83       	st	Z, r22
    145c:	71 83       	std	Z+1, r23	; 0x01
    145e:	82 83       	std	Z+2, r24	; 0x02
    1460:	93 83       	std	Z+3, r25	; 0x03

	return(0);
    1462:	80 e0       	ldi	r24, 0x00	; 0

}
    1464:	26 96       	adiw	r28, 0x06	; 6
    1466:	cd bf       	out	0x3d, r28	; 61
    1468:	de bf       	out	0x3e, r29	; 62
    146a:	df 91       	pop	r29
    146c:	cf 91       	pop	r28
    146e:	1f 91       	pop	r17
    1470:	0f 91       	pop	r16
    1472:	ff 90       	pop	r15
    1474:	ef 90       	pop	r14
    1476:	df 90       	pop	r13
    1478:	cf 90       	pop	r12
    147a:	08 95       	ret

0000147c <write_MMA8451>:

	Returns:
		0 if OK, TWI error if not (see twi.c)
------------------------------------------------------------------------------*/
uint8_t write_MMA8451(uint8_t addr, uint8_t reg, uint8_t val)
{
    147c:	1f 93       	push	r17
    147e:	cf 93       	push	r28
    1480:	df 93       	push	r29
    1482:	d6 2f       	mov	r29, r22
    1484:	14 2f       	mov	r17, r20

	uint8_t retval;

	if ((retval = start_TWI(addr, TWIWRITE))) {
    1486:	60 e0       	ldi	r22, 0x00	; 0
    1488:	0e 94 f2 18 	call	0x31e4	; 0x31e4 <start_TWI>
    148c:	c8 2f       	mov	r28, r24
    148e:	88 23       	and	r24, r24
    1490:	21 f0       	breq	.+8      	; 0x149a <write_MMA8451+0x1e>
		stop_TWI();
    1492:	0e 94 33 19 	call	0x3266	; 0x3266 <stop_TWI>
		return(retval);
    1496:	8c 2f       	mov	r24, r28
    1498:	17 c0       	rjmp	.+46     	; 0x14c8 <write_MMA8451+0x4c>
	}
	if ((retval = write_TWI(reg))) {
    149a:	8d 2f       	mov	r24, r29
    149c:	0e 94 37 19 	call	0x326e	; 0x326e <write_TWI>
    14a0:	c8 2f       	mov	r28, r24
    14a2:	88 23       	and	r24, r24
    14a4:	21 f0       	breq	.+8      	; 0x14ae <write_MMA8451+0x32>
		stop_TWI();
    14a6:	0e 94 33 19 	call	0x3266	; 0x3266 <stop_TWI>
		return(retval);
    14aa:	8c 2f       	mov	r24, r28
    14ac:	0d c0       	rjmp	.+26     	; 0x14c8 <write_MMA8451+0x4c>
	}
	if ((retval = write_TWI(val))) {
    14ae:	81 2f       	mov	r24, r17
    14b0:	0e 94 37 19 	call	0x326e	; 0x326e <write_TWI>
    14b4:	c8 2f       	mov	r28, r24
    14b6:	88 23       	and	r24, r24
    14b8:	21 f0       	breq	.+8      	; 0x14c2 <write_MMA8451+0x46>
		stop_TWI();
    14ba:	0e 94 33 19 	call	0x3266	; 0x3266 <stop_TWI>
		return(retval);
    14be:	8c 2f       	mov	r24, r28
    14c0:	03 c0       	rjmp	.+6      	; 0x14c8 <write_MMA8451+0x4c>
	}
	stop_TWI();
    14c2:	0e 94 33 19 	call	0x3266	; 0x3266 <stop_TWI>
	return(0);
    14c6:	80 e0       	ldi	r24, 0x00	; 0
	
}
    14c8:	df 91       	pop	r29
    14ca:	cf 91       	pop	r28
    14cc:	1f 91       	pop	r17
    14ce:	08 95       	ret

000014d0 <init_MMA8451>:
	filter (2.0 Hz), and oversampling and resolution. This gives us good
	consistency (better than 0.5 cm/s/s) at the cost of longer sampling times.
------------------------------------------------------------------------------*/

uint8_t init_MMA8451(void)
{
    14d0:	cf 93       	push	r28
    14d2:	df 93       	push	r29
    14d4:	1f 92       	push	r1
    14d6:	cd b7       	in	r28, 0x3d	; 61
    14d8:	de b7       	in	r29, 0x3e	; 62

	uint8_t addr, retval;

	addr = MMA8451ADDR;
	write_MMA8451(addr, MMA8451CTRLREG2, 0x40);			// reset
    14da:	40 e4       	ldi	r20, 0x40	; 64
    14dc:	6b e2       	ldi	r22, 0x2B	; 43
    14de:	8d e1       	ldi	r24, 0x1D	; 29
    14e0:	0e 94 3e 0a 	call	0x147c	; 0x147c <write_MMA8451>
	read_MMA8451(addr, MMA8451CTRLREG2, &retval, 1);	// Wait to finish
    14e4:	21 e0       	ldi	r18, 0x01	; 1
    14e6:	ae 01       	movw	r20, r28
    14e8:	4f 5f       	subi	r20, 0xFF	; 255
    14ea:	5f 4f       	sbci	r21, 0xFF	; 255
    14ec:	6b e2       	ldi	r22, 0x2B	; 43
    14ee:	8d e1       	ldi	r24, 0x1D	; 29
    14f0:	0e 94 65 09 	call	0x12ca	; 0x12ca <read_MMA8451>
	while (retval & 0x40) {
    14f4:	08 c0       	rjmp	.+16     	; 0x1506 <init_MMA8451+0x36>
		read_MMA8451(addr, MMA8451CTRLREG2, &retval, 1);
    14f6:	21 e0       	ldi	r18, 0x01	; 1
    14f8:	ae 01       	movw	r20, r28
    14fa:	4f 5f       	subi	r20, 0xFF	; 255
    14fc:	5f 4f       	sbci	r21, 0xFF	; 255
    14fe:	6b e2       	ldi	r22, 0x2B	; 43
    1500:	8d e1       	ldi	r24, 0x1D	; 29
    1502:	0e 94 65 09 	call	0x12ca	; 0x12ca <read_MMA8451>
	uint8_t addr, retval;

	addr = MMA8451ADDR;
	write_MMA8451(addr, MMA8451CTRLREG2, 0x40);			// reset
	read_MMA8451(addr, MMA8451CTRLREG2, &retval, 1);	// Wait to finish
	while (retval & 0x40) {
    1506:	89 81       	ldd	r24, Y+1	; 0x01
    1508:	86 fd       	sbrc	r24, 6
    150a:	f5 cf       	rjmp	.-22     	; 0x14f6 <init_MMA8451+0x26>
		read_MMA8451(addr, MMA8451CTRLREG2, &retval, 1);
	}

		// 2.0 Hz high frequency filter cutoff
	write_MMA8451(addr, MMA8451HFCUTOFF, 0b11000000);
    150c:	40 ec       	ldi	r20, 0xC0	; 192
    150e:	6f e0       	ldi	r22, 0x0F	; 15
    1510:	8d e1       	ldi	r24, 0x1D	; 29
    1512:	0e 94 3e 0a 	call	0x147c	; 0x147c <write_MMA8451>

		// High resolution mode
	write_MMA8451(addr, MMA8451CTRLREG2, 0b00000010);
    1516:	42 e0       	ldi	r20, 0x02	; 2
    1518:	6b e2       	ldi	r22, 0x2B	; 43
    151a:	8d e1       	ldi	r24, 0x1D	; 29
    151c:	0e 94 3e 0a 	call	0x147c	; 0x147c <write_MMA8451>

		// 1.56 Hz sampling, low noise, set active
	write_MMA8451(addr, MMA8451CTRLREG1, 0b00111101);
    1520:	4d e3       	ldi	r20, 0x3D	; 61
    1522:	6a e2       	ldi	r22, 0x2A	; 42
    1524:	8d e1       	ldi	r24, 0x1D	; 29
    1526:	0e 94 3e 0a 	call	0x147c	; 0x147c <write_MMA8451>

	return(retval);

}
    152a:	89 81       	ldd	r24, Y+1	; 0x01
    152c:	0f 90       	pop	r0
    152e:	df 91       	pop	r29
    1530:	cf 91       	pop	r28
    1532:	08 95       	ret

00001534 <checksum_NMEA>:
/*------------------------------------------------------------------------------
void checksum_NMEA(char *str)
	Append checksum to a string
------------------------------------------------------------------------------*/
void checksum_NMEA(char *str)
{
    1534:	ef 92       	push	r14
    1536:	ff 92       	push	r15
    1538:	0f 93       	push	r16
    153a:	1f 93       	push	r17
    153c:	cf 93       	push	r28
    153e:	df 93       	push	r29
    1540:	cd b7       	in	r28, 0x3d	; 61
    1542:	de b7       	in	r29, 0x3e	; 62
    1544:	2e 97       	sbiw	r28, 0x0e	; 14
    1546:	cd bf       	out	0x3d, r28	; 61
    1548:	de bf       	out	0x3e, r29	; 62
    154a:	8c 01       	movw	r16, r24
	const char format_CSM[] = "*%02X\r\n";
    154c:	88 e0       	ldi	r24, 0x08	; 8
    154e:	e3 e7       	ldi	r30, 0x73	; 115
    1550:	f9 e8       	ldi	r31, 0x89	; 137
    1552:	de 01       	movw	r26, r28
    1554:	11 96       	adiw	r26, 0x01	; 1
    1556:	01 90       	ld	r0, Z+
    1558:	0d 92       	st	X+, r0
    155a:	8a 95       	dec	r24
    155c:	e1 f7       	brne	.-8      	; 0x1556 <checksum_NMEA+0x22>

	char chksum[6];
	uint8_t i, nchar, checksum;

	checksum = 0;
	nchar = strlen(str);
    155e:	f8 01       	movw	r30, r16
    1560:	01 90       	ld	r0, Z+
    1562:	00 20       	and	r0, r0
    1564:	e9 f7       	brne	.-6      	; 0x1560 <checksum_NMEA+0x2c>
    1566:	31 97       	sbiw	r30, 0x01	; 1
    1568:	3e 2f       	mov	r19, r30
    156a:	30 1b       	sub	r19, r16
	const char format_CSM[] = "*%02X\r\n";

	char chksum[6];
	uint8_t i, nchar, checksum;

	checksum = 0;
    156c:	90 e0       	ldi	r25, 0x00	; 0
	nchar = strlen(str);
	for (i = 1; i < nchar; i++) {
    156e:	81 e0       	ldi	r24, 0x01	; 1
    1570:	06 c0       	rjmp	.+12     	; 0x157e <checksum_NMEA+0x4a>
		checksum ^= str[i];
    1572:	f8 01       	movw	r30, r16
    1574:	e8 0f       	add	r30, r24
    1576:	f1 1d       	adc	r31, r1
    1578:	20 81       	ld	r18, Z
    157a:	92 27       	eor	r25, r18
	char chksum[6];
	uint8_t i, nchar, checksum;

	checksum = 0;
	nchar = strlen(str);
	for (i = 1; i < nchar; i++) {
    157c:	8f 5f       	subi	r24, 0xFF	; 255
    157e:	83 17       	cp	r24, r19
    1580:	c0 f3       	brcs	.-16     	; 0x1572 <checksum_NMEA+0x3e>
		checksum ^= str[i];
	}
	sprintf(chksum, format_CSM, checksum);
    1582:	1f 92       	push	r1
    1584:	9f 93       	push	r25
    1586:	ce 01       	movw	r24, r28
    1588:	01 96       	adiw	r24, 0x01	; 1
    158a:	9f 93       	push	r25
    158c:	8f 93       	push	r24
    158e:	7e 01       	movw	r14, r28
    1590:	89 e0       	ldi	r24, 0x09	; 9
    1592:	e8 0e       	add	r14, r24
    1594:	f1 1c       	adc	r15, r1
    1596:	ff 92       	push	r15
    1598:	ef 92       	push	r14
    159a:	0e 94 8d 23 	call	0x471a	; 0x471a <sprintf>
	strcat(str, chksum);
    159e:	b7 01       	movw	r22, r14
    15a0:	c8 01       	movw	r24, r16
    15a2:	0e 94 1f 23 	call	0x463e	; 0x463e <strcat>

}
    15a6:	0f 90       	pop	r0
    15a8:	0f 90       	pop	r0
    15aa:	0f 90       	pop	r0
    15ac:	0f 90       	pop	r0
    15ae:	0f 90       	pop	r0
    15b0:	0f 90       	pop	r0
    15b2:	2e 96       	adiw	r28, 0x0e	; 14
    15b4:	cd bf       	out	0x3d, r28	; 61
    15b6:	de bf       	out	0x3e, r29	; 62
    15b8:	df 91       	pop	r29
    15ba:	cf 91       	pop	r28
    15bc:	1f 91       	pop	r17
    15be:	0f 91       	pop	r16
    15c0:	ff 90       	pop	r15
    15c2:	ef 90       	pop	r14
    15c4:	08 95       	ret

000015c6 <write_OLED>:
	the screen. The next byte sent is either the  command or the screen
	character.

------------------------------------------------------------------------------*/
void write_OLED(uint8_t twiaddr, uint8_t type, uint8_t byteToSend)
{
    15c6:	cf 93       	push	r28
    15c8:	df 93       	push	r29
    15ca:	d6 2f       	mov	r29, r22
    15cc:	c4 2f       	mov	r28, r20

	start_TWI(twiaddr, TWIWRITE);
    15ce:	60 e0       	ldi	r22, 0x00	; 0
    15d0:	0e 94 f2 18 	call	0x31e4	; 0x31e4 <start_TWI>
	write_TWI(type);
    15d4:	8d 2f       	mov	r24, r29
    15d6:	0e 94 37 19 	call	0x326e	; 0x326e <write_TWI>
	write_TWI(byteToSend);
    15da:	8c 2f       	mov	r24, r28
    15dc:	0e 94 37 19 	call	0x326e	; 0x326e <write_TWI>
	stop_TWI();
    15e0:	0e 94 33 19 	call	0x3266	; 0x3266 <stop_TWI>

}
    15e4:	df 91       	pop	r29
    15e6:	cf 91       	pop	r28
    15e8:	08 95       	ret

000015ea <init_OLED>:

	The displaynumber can be either 0 or 1. When the SA0 pin is grounded, you
	get displaynumber 0. A displaynumber not 0 acts on the other display.
------------------------------------------------------------------------------*/
void init_OLED(uint8_t displaynumber)
{
    15ea:	cf 93       	push	r28

	uint8_t twiaddr;

	PORTD.OUTCLR = PIN6_bm;		// PD6 is the /RESET pin for the OLED displays
    15ec:	e0 e6       	ldi	r30, 0x60	; 96
    15ee:	f4 e0       	ldi	r31, 0x04	; 4
    15f0:	90 e4       	ldi	r25, 0x40	; 64
    15f2:	96 83       	std	Z+6, r25	; 0x06
	PORTD.DIRSET = PIN6_bm;
    15f4:	91 83       	std	Z+1, r25	; 0x01
    15f6:	a1 e4       	ldi	r26, 0x41	; 65
    15f8:	b3 e0       	ldi	r27, 0x03	; 3
    15fa:	11 97       	sbiw	r26, 0x01	; 1
    15fc:	f1 f7       	brne	.-4      	; 0x15fa <init_OLED+0x10>
    15fe:	00 00       	nop
	_delay_ms(1);				// Reset time
	PORTD.OUTSET = PIN6_bm;
    1600:	95 83       	std	Z+5, r25	; 0x05

	if (displaynumber == 0) {
    1602:	81 11       	cpse	r24, r1
    1604:	02 c0       	rjmp	.+4      	; 0x160a <init_OLED+0x20>
		twiaddr = OLEDADDR0;
    1606:	cc e3       	ldi	r28, 0x3C	; 60
    1608:	01 c0       	rjmp	.+2      	; 0x160c <init_OLED+0x22>
	} else {
		twiaddr = OLEDADDR1;
    160a:	cd e3       	ldi	r28, 0x3D	; 61
	}

	write_OLED(twiaddr, OLEDCMD, 0x2A);	// Function set (extended command set)
    160c:	4a e2       	ldi	r20, 0x2A	; 42
    160e:	60 e0       	ldi	r22, 0x00	; 0
    1610:	8c 2f       	mov	r24, r28
    1612:	0e 94 e3 0a 	call	0x15c6	; 0x15c6 <write_OLED>
	write_OLED(twiaddr, OLEDCMD, 0x71);	//function selection A
    1616:	41 e7       	ldi	r20, 0x71	; 113
    1618:	60 e0       	ldi	r22, 0x00	; 0
    161a:	8c 2f       	mov	r24, r28
    161c:	0e 94 e3 0a 	call	0x15c6	; 0x15c6 <write_OLED>
//	write_OLED(twiaddr, OLEDDATA, 0x00);	// disable internal VDD regulator (2.8V I/O). data(0x5C) = enable regulator (5V I/O)
	write_OLED(twiaddr, OLEDDATA, 0x5C);	// Enable internal VDD regulator (data(0x5C) = enable regulator (5V I/O)
    1620:	4c e5       	ldi	r20, 0x5C	; 92
    1622:	60 e4       	ldi	r22, 0x40	; 64
    1624:	8c 2f       	mov	r24, r28
    1626:	0e 94 e3 0a 	call	0x15c6	; 0x15c6 <write_OLED>
	write_OLED(twiaddr, OLEDCMD, 0x28);	//function set (fundamental command set)
    162a:	48 e2       	ldi	r20, 0x28	; 40
    162c:	60 e0       	ldi	r22, 0x00	; 0
    162e:	8c 2f       	mov	r24, r28
    1630:	0e 94 e3 0a 	call	0x15c6	; 0x15c6 <write_OLED>
	write_OLED(twiaddr, OLEDCMD, 0x08);	//display off, cursor off, blink off
    1634:	48 e0       	ldi	r20, 0x08	; 8
    1636:	60 e0       	ldi	r22, 0x00	; 0
    1638:	8c 2f       	mov	r24, r28
    163a:	0e 94 e3 0a 	call	0x15c6	; 0x15c6 <write_OLED>
	write_OLED(twiaddr, OLEDCMD, 0x2A);	//function set (extended command set)
    163e:	4a e2       	ldi	r20, 0x2A	; 42
    1640:	60 e0       	ldi	r22, 0x00	; 0
    1642:	8c 2f       	mov	r24, r28
    1644:	0e 94 e3 0a 	call	0x15c6	; 0x15c6 <write_OLED>
	write_OLED(twiaddr, OLEDCMD, 0x79);	//OLED command set enabled
    1648:	49 e7       	ldi	r20, 0x79	; 121
    164a:	60 e0       	ldi	r22, 0x00	; 0
    164c:	8c 2f       	mov	r24, r28
    164e:	0e 94 e3 0a 	call	0x15c6	; 0x15c6 <write_OLED>
	write_OLED(twiaddr, OLEDCMD, 0xD5);	//set display clock divide ratio/oscillator frequency
    1652:	45 ed       	ldi	r20, 0xD5	; 213
    1654:	60 e0       	ldi	r22, 0x00	; 0
    1656:	8c 2f       	mov	r24, r28
    1658:	0e 94 e3 0a 	call	0x15c6	; 0x15c6 <write_OLED>
	write_OLED(twiaddr, OLEDCMD, 0x70);	//set display clock divide ratio/oscillator frequency
    165c:	40 e7       	ldi	r20, 0x70	; 112
    165e:	60 e0       	ldi	r22, 0x00	; 0
    1660:	8c 2f       	mov	r24, r28
    1662:	0e 94 e3 0a 	call	0x15c6	; 0x15c6 <write_OLED>
	write_OLED(twiaddr, OLEDCMD, 0x78);	//OLED command set disabled
    1666:	48 e7       	ldi	r20, 0x78	; 120
    1668:	60 e0       	ldi	r22, 0x00	; 0
    166a:	8c 2f       	mov	r24, r28
    166c:	0e 94 e3 0a 	call	0x15c6	; 0x15c6 <write_OLED>
	write_OLED(twiaddr, OLEDCMD, 0x08);	//extended function set (2-lines)
    1670:	48 e0       	ldi	r20, 0x08	; 8
    1672:	60 e0       	ldi	r22, 0x00	; 0
    1674:	8c 2f       	mov	r24, r28
    1676:	0e 94 e3 0a 	call	0x15c6	; 0x15c6 <write_OLED>
	write_OLED(twiaddr, OLEDCMD, 0x06);	//COM SEG direction
    167a:	46 e0       	ldi	r20, 0x06	; 6
    167c:	60 e0       	ldi	r22, 0x00	; 0
    167e:	8c 2f       	mov	r24, r28
    1680:	0e 94 e3 0a 	call	0x15c6	; 0x15c6 <write_OLED>
	write_OLED(twiaddr, OLEDCMD, 0x72);	//function selection B
    1684:	42 e7       	ldi	r20, 0x72	; 114
    1686:	60 e0       	ldi	r22, 0x00	; 0
    1688:	8c 2f       	mov	r24, r28
    168a:	0e 94 e3 0a 	call	0x15c6	; 0x15c6 <write_OLED>
	write_OLED(twiaddr, OLEDDATA, 0x00);	//ROM CGRAM selection
    168e:	40 e0       	ldi	r20, 0x00	; 0
    1690:	60 e4       	ldi	r22, 0x40	; 64
    1692:	8c 2f       	mov	r24, r28
    1694:	0e 94 e3 0a 	call	0x15c6	; 0x15c6 <write_OLED>
	write_OLED(twiaddr, OLEDCMD, 0x2A);	//function set (extended command set)
    1698:	4a e2       	ldi	r20, 0x2A	; 42
    169a:	60 e0       	ldi	r22, 0x00	; 0
    169c:	8c 2f       	mov	r24, r28
    169e:	0e 94 e3 0a 	call	0x15c6	; 0x15c6 <write_OLED>
	write_OLED(twiaddr, OLEDCMD, 0x79);	//OLED command set enabled
    16a2:	49 e7       	ldi	r20, 0x79	; 121
    16a4:	60 e0       	ldi	r22, 0x00	; 0
    16a6:	8c 2f       	mov	r24, r28
    16a8:	0e 94 e3 0a 	call	0x15c6	; 0x15c6 <write_OLED>
	write_OLED(twiaddr, OLEDCMD, 0xDA);	//set SEG pins hardware configuration
    16ac:	4a ed       	ldi	r20, 0xDA	; 218
    16ae:	60 e0       	ldi	r22, 0x00	; 0
    16b0:	8c 2f       	mov	r24, r28
    16b2:	0e 94 e3 0a 	call	0x15c6	; 0x15c6 <write_OLED>
	write_OLED(twiaddr, OLEDCMD, 0x00);	//set SEG pins hardware configuration
    16b6:	40 e0       	ldi	r20, 0x00	; 0
    16b8:	60 e0       	ldi	r22, 0x00	; 0
    16ba:	8c 2f       	mov	r24, r28
    16bc:	0e 94 e3 0a 	call	0x15c6	; 0x15c6 <write_OLED>
	write_OLED(twiaddr, OLEDCMD, 0xDC);	//function selection C
    16c0:	4c ed       	ldi	r20, 0xDC	; 220
    16c2:	60 e0       	ldi	r22, 0x00	; 0
    16c4:	8c 2f       	mov	r24, r28
    16c6:	0e 94 e3 0a 	call	0x15c6	; 0x15c6 <write_OLED>
	write_OLED(twiaddr, OLEDCMD, 0x00);	//function selection C
    16ca:	40 e0       	ldi	r20, 0x00	; 0
    16cc:	60 e0       	ldi	r22, 0x00	; 0
    16ce:	8c 2f       	mov	r24, r28
    16d0:	0e 94 e3 0a 	call	0x15c6	; 0x15c6 <write_OLED>
	write_OLED(twiaddr, OLEDCMD, 0x81);	//set contrast control
    16d4:	41 e8       	ldi	r20, 0x81	; 129
    16d6:	60 e0       	ldi	r22, 0x00	; 0
    16d8:	8c 2f       	mov	r24, r28
    16da:	0e 94 e3 0a 	call	0x15c6	; 0x15c6 <write_OLED>
	write_OLED(twiaddr, OLEDCMD, 0x7F);	//set contrast control
    16de:	4f e7       	ldi	r20, 0x7F	; 127
    16e0:	60 e0       	ldi	r22, 0x00	; 0
    16e2:	8c 2f       	mov	r24, r28
    16e4:	0e 94 e3 0a 	call	0x15c6	; 0x15c6 <write_OLED>
	write_OLED(twiaddr, OLEDCMD, 0xD9);	//set phase length
    16e8:	49 ed       	ldi	r20, 0xD9	; 217
    16ea:	60 e0       	ldi	r22, 0x00	; 0
    16ec:	8c 2f       	mov	r24, r28
    16ee:	0e 94 e3 0a 	call	0x15c6	; 0x15c6 <write_OLED>
	write_OLED(twiaddr, OLEDCMD, 0xF1);	//set phase length
    16f2:	41 ef       	ldi	r20, 0xF1	; 241
    16f4:	60 e0       	ldi	r22, 0x00	; 0
    16f6:	8c 2f       	mov	r24, r28
    16f8:	0e 94 e3 0a 	call	0x15c6	; 0x15c6 <write_OLED>
	write_OLED(twiaddr, OLEDCMD, 0xDB);	//set VCOMH deselect level
    16fc:	4b ed       	ldi	r20, 0xDB	; 219
    16fe:	60 e0       	ldi	r22, 0x00	; 0
    1700:	8c 2f       	mov	r24, r28
    1702:	0e 94 e3 0a 	call	0x15c6	; 0x15c6 <write_OLED>
	write_OLED(twiaddr, OLEDCMD, 0x40);	//set VCOMH deselect level
    1706:	40 e4       	ldi	r20, 0x40	; 64
    1708:	60 e0       	ldi	r22, 0x00	; 0
    170a:	8c 2f       	mov	r24, r28
    170c:	0e 94 e3 0a 	call	0x15c6	; 0x15c6 <write_OLED>
	write_OLED(twiaddr, OLEDCMD, 0x78);	//OLED command set disabled
    1710:	48 e7       	ldi	r20, 0x78	; 120
    1712:	60 e0       	ldi	r22, 0x00	; 0
    1714:	8c 2f       	mov	r24, r28
    1716:	0e 94 e3 0a 	call	0x15c6	; 0x15c6 <write_OLED>
	write_OLED(twiaddr, OLEDCMD, 0x28);	//function set (fundamental command set)
    171a:	48 e2       	ldi	r20, 0x28	; 40
    171c:	60 e0       	ldi	r22, 0x00	; 0
    171e:	8c 2f       	mov	r24, r28
    1720:	0e 94 e3 0a 	call	0x15c6	; 0x15c6 <write_OLED>
	write_OLED(twiaddr, OLEDCMD, 0x01);	//clear display
    1724:	41 e0       	ldi	r20, 0x01	; 1
    1726:	60 e0       	ldi	r22, 0x00	; 0
    1728:	8c 2f       	mov	r24, r28
    172a:	0e 94 e3 0a 	call	0x15c6	; 0x15c6 <write_OLED>
	write_OLED(twiaddr, OLEDCMD, 0x80);	//set DDRAM address to 0x00
    172e:	40 e8       	ldi	r20, 0x80	; 128
    1730:	60 e0       	ldi	r22, 0x00	; 0
    1732:	8c 2f       	mov	r24, r28
    1734:	0e 94 e3 0a 	call	0x15c6	; 0x15c6 <write_OLED>
	write_OLED(twiaddr, OLEDCMD, 0x0C);	// Display ON
    1738:	4c e0       	ldi	r20, 0x0C	; 12
    173a:	60 e0       	ldi	r22, 0x00	; 0
    173c:	8c 2f       	mov	r24, r28
    173e:	0e 94 e3 0a 	call	0x15c6	; 0x15c6 <write_OLED>
    1742:	ba e6       	ldi	r27, 0x6A	; 106
    1744:	24 e0       	ldi	r18, 0x04	; 4
    1746:	81 e0       	ldi	r24, 0x01	; 1
    1748:	b1 50       	subi	r27, 0x01	; 1
    174a:	20 40       	sbci	r18, 0x00	; 0
    174c:	80 40       	sbci	r24, 0x00	; 0
    174e:	e1 f7       	brne	.-8      	; 0x1748 <init_OLED+0x15e>
    1750:	00 c0       	rjmp	.+0      	; 0x1752 <init_OLED+0x168>
	_delay_ms(100);				// Wait after display-on command

	timerOLED = 0;
    1752:	10 92 0f 2a 	sts	0x2A0F, r1	; 0x802a0f <timerOLED>
    1756:	10 92 10 2a 	sts	0x2A10, r1	; 0x802a10 <timerOLED+0x1>
	timeoutOLED = 5;
    175a:	85 e0       	ldi	r24, 0x05	; 5
    175c:	90 e0       	ldi	r25, 0x00	; 0
    175e:	80 93 11 2a 	sts	0x2A11, r24	; 0x802a11 <timeoutOLED>
    1762:	90 93 12 2a 	sts	0x2A12, r25	; 0x802a12 <timeoutOLED+0x1>

}
    1766:	cf 91       	pop	r28
    1768:	08 95       	ret

0000176a <writestr_OLED>:
	This routine positions the cursor at the beginning of a line (1 or 2) pads
	the string with blanks, then writes the full 16 characters to the display.

------------------------------------------------------------------------------*/
void writestr_OLED(uint8_t displaynumber, char *str, uint8_t lineno)
{
    176a:	ef 92       	push	r14
    176c:	ff 92       	push	r15
    176e:	0f 93       	push	r16
    1770:	1f 93       	push	r17
    1772:	cf 93       	push	r28
    1774:	df 93       	push	r29
    1776:	cd b7       	in	r28, 0x3d	; 61
    1778:	de b7       	in	r29, 0x3e	; 62
    177a:	e2 97       	sbiw	r28, 0x32	; 50
    177c:	cd bf       	out	0x3d, r28	; 61
    177e:	de bf       	out	0x3e, r29	; 62
    1780:	14 2f       	mov	r17, r20

	uint8_t i, twiaddr;
	char strbuf[33];
	const char blanks[] = "                ";
    1782:	91 e1       	ldi	r25, 0x11	; 17
    1784:	eb e7       	ldi	r30, 0x7B	; 123
    1786:	f9 e8       	ldi	r31, 0x89	; 137
    1788:	de 01       	movw	r26, r28
    178a:	92 96       	adiw	r26, 0x22	; 34
    178c:	01 90       	ld	r0, Z+
    178e:	0d 92       	st	X+, r0
    1790:	9a 95       	dec	r25
    1792:	e1 f7       	brne	.-8      	; 0x178c <writestr_OLED+0x22>

	if (displaynumber == 0) {
    1794:	81 11       	cpse	r24, r1
    1796:	02 c0       	rjmp	.+4      	; 0x179c <writestr_OLED+0x32>
		twiaddr = OLEDADDR0;
    1798:	0c e3       	ldi	r16, 0x3C	; 60
    179a:	01 c0       	rjmp	.+2      	; 0x179e <writestr_OLED+0x34>
	} else {
		twiaddr = OLEDADDR1;
    179c:	0d e3       	ldi	r16, 0x3D	; 61
	}
	strcpy(strbuf, str);
    179e:	ce 01       	movw	r24, r28
    17a0:	01 96       	adiw	r24, 0x01	; 1
    17a2:	7c 01       	movw	r14, r24
    17a4:	0e 94 2a 23 	call	0x4654	; 0x4654 <strcpy>
	if (strlen(strbuf) > 16) {
    17a8:	f7 01       	movw	r30, r14
    17aa:	01 90       	ld	r0, Z+
    17ac:	00 20       	and	r0, r0
    17ae:	e9 f7       	brne	.-6      	; 0x17aa <writestr_OLED+0x40>
    17b0:	31 97       	sbiw	r30, 0x01	; 1
    17b2:	ee 19       	sub	r30, r14
    17b4:	ff 09       	sbc	r31, r15
    17b6:	71 97       	sbiw	r30, 0x11	; 17
    17b8:	08 f0       	brcs	.+2      	; 0x17bc <writestr_OLED+0x52>
		strbuf[16] = '\0';
    17ba:	19 8a       	std	Y+17, r1	; 0x11
	}
	strcat(strbuf, blanks);		// pad with blanks
    17bc:	be 01       	movw	r22, r28
    17be:	6e 5d       	subi	r22, 0xDE	; 222
    17c0:	7f 4f       	sbci	r23, 0xFF	; 255
    17c2:	ce 01       	movw	r24, r28
    17c4:	01 96       	adiw	r24, 0x01	; 1
    17c6:	0e 94 1f 23 	call	0x463e	; 0x463e <strcat>

	if (lineno == 1) {
    17ca:	11 30       	cpi	r17, 0x01	; 1
    17cc:	39 f4       	brne	.+14     	; 0x17dc <writestr_OLED+0x72>
		write_OLED(twiaddr, OLEDCMD, OLEDLINE1);
    17ce:	40 e8       	ldi	r20, 0x80	; 128
    17d0:	60 e0       	ldi	r22, 0x00	; 0
    17d2:	80 2f       	mov	r24, r16
    17d4:	0e 94 e3 0a 	call	0x15c6	; 0x15c6 <write_OLED>
	const char blanks[] = "                ";

	if (displaynumber == 0) {
		twiaddr = OLEDADDR0;
	} else {
		twiaddr = OLEDADDR1;
    17d8:	10 e0       	ldi	r17, 0x00	; 0
    17da:	12 c0       	rjmp	.+36     	; 0x1800 <__DATA_REGION_LENGTH__>

	if (lineno == 1) {
		write_OLED(twiaddr, OLEDCMD, OLEDLINE1);

	} else {
		write_OLED(twiaddr, OLEDCMD, OLEDLINE2);
    17dc:	40 ec       	ldi	r20, 0xC0	; 192
    17de:	60 e0       	ldi	r22, 0x00	; 0
    17e0:	80 2f       	mov	r24, r16
    17e2:	0e 94 e3 0a 	call	0x15c6	; 0x15c6 <write_OLED>
    17e6:	f8 cf       	rjmp	.-16     	; 0x17d8 <writestr_OLED+0x6e>
	}

	for (i = 0; i < 16; i++) {
		write_OLED(twiaddr, OLEDDATA, strbuf[i]);
    17e8:	e1 e0       	ldi	r30, 0x01	; 1
    17ea:	f0 e0       	ldi	r31, 0x00	; 0
    17ec:	ec 0f       	add	r30, r28
    17ee:	fd 1f       	adc	r31, r29
    17f0:	e1 0f       	add	r30, r17
    17f2:	f1 1d       	adc	r31, r1
    17f4:	40 81       	ld	r20, Z
    17f6:	60 e4       	ldi	r22, 0x40	; 64
    17f8:	80 2f       	mov	r24, r16
    17fa:	0e 94 e3 0a 	call	0x15c6	; 0x15c6 <write_OLED>

	} else {
		write_OLED(twiaddr, OLEDCMD, OLEDLINE2);
	}

	for (i = 0; i < 16; i++) {
    17fe:	1f 5f       	subi	r17, 0xFF	; 255
    1800:	10 31       	cpi	r17, 0x10	; 16
    1802:	90 f3       	brcs	.-28     	; 0x17e8 <writestr_OLED+0x7e>
		write_OLED(twiaddr, OLEDDATA, strbuf[i]);
	}

	timerOLED = 1;
    1804:	81 e0       	ldi	r24, 0x01	; 1
    1806:	90 e0       	ldi	r25, 0x00	; 0
    1808:	80 93 0f 2a 	sts	0x2A0F, r24	; 0x802a0f <timerOLED>
    180c:	90 93 10 2a 	sts	0x2A10, r25	; 0x802a10 <timerOLED+0x1>

}
    1810:	e2 96       	adiw	r28, 0x32	; 50
    1812:	cd bf       	out	0x3d, r28	; 61
    1814:	de bf       	out	0x3e, r29	; 62
    1816:	df 91       	pop	r29
    1818:	cf 91       	pop	r28
    181a:	1f 91       	pop	r17
    181c:	0f 91       	pop	r16
    181e:	ff 90       	pop	r15
    1820:	ef 90       	pop	r14
    1822:	08 95       	ret

00001824 <clear_OLED>:
	Clears the OLED screen by writing blank spaces to both lines.
	
	TRY DOING writestr_OLED with zero length string since writestr pads w/blanks
------------------------------------------------------------------------------*/
void clear_OLED(uint8_t displaynumber)
{
    1824:	1f 93       	push	r17
    1826:	cf 93       	push	r28
    1828:	df 93       	push	r29
    182a:	1f 92       	push	r1
    182c:	cd b7       	in	r28, 0x3d	; 61
    182e:	de b7       	in	r29, 0x3e	; 62
    1830:	18 2f       	mov	r17, r24

	char nullstr[] = "";
    1832:	19 82       	std	Y+1, r1	; 0x01
	writestr_OLED(displaynumber, nullstr, 1);
    1834:	41 e0       	ldi	r20, 0x01	; 1
    1836:	be 01       	movw	r22, r28
    1838:	6f 5f       	subi	r22, 0xFF	; 255
    183a:	7f 4f       	sbci	r23, 0xFF	; 255
    183c:	0e 94 b5 0b 	call	0x176a	; 0x176a <writestr_OLED>
	writestr_OLED(displaynumber, nullstr, 2);
    1840:	42 e0       	ldi	r20, 0x02	; 2
    1842:	be 01       	movw	r22, r28
    1844:	6f 5f       	subi	r22, 0xFF	; 255
    1846:	7f 4f       	sbci	r23, 0xFF	; 255
    1848:	81 2f       	mov	r24, r17
    184a:	0e 94 b5 0b 	call	0x176a	; 0x176a <writestr_OLED>
	timerOLED = 0;
    184e:	10 92 0f 2a 	sts	0x2A0F, r1	; 0x802a0f <timerOLED>
    1852:	10 92 10 2a 	sts	0x2A10, r1	; 0x802a10 <timerOLED+0x1>

}
    1856:	0f 90       	pop	r0
    1858:	df 91       	pop	r29
    185a:	cf 91       	pop	r28
    185c:	1f 91       	pop	r17
    185e:	08 95       	ret

00001860 <init_PNEU>:
*/

uint8_t init_PNEU(void)
{

	if (write_MCP23008(HIGHCURRENT, IODIR, 0x00) == ERROR) {
    1860:	40 e0       	ldi	r20, 0x00	; 0
    1862:	60 e0       	ldi	r22, 0x00	; 0
    1864:	84 e2       	ldi	r24, 0x24	; 36
    1866:	0e 94 d0 08 	call	0x11a0	; 0x11a0 <write_MCP23008>
    186a:	83 36       	cpi	r24, 0x63	; 99
    186c:	a9 f1       	breq	.+106    	; 0x18d8 <init_PNEU+0x78>
		return(ERROR);
	}
	if (write_MCP23008(HIGHCURRENT, OLAT, 0x00) == ERROR) {
    186e:	40 e0       	ldi	r20, 0x00	; 0
    1870:	6a e0       	ldi	r22, 0x0A	; 10
    1872:	84 e2       	ldi	r24, 0x24	; 36
    1874:	0e 94 d0 08 	call	0x11a0	; 0x11a0 <write_MCP23008>
    1878:	83 36       	cpi	r24, 0x63	; 99
    187a:	71 f1       	breq	.+92     	; 0x18d8 <init_PNEU+0x78>
		return(ERROR);
	}
	if (write_MCP23008(PNEUSENSORS, IODIR, 0xFE) == ERROR) {	// Inputs
    187c:	4e ef       	ldi	r20, 0xFE	; 254
    187e:	60 e0       	ldi	r22, 0x00	; 0
    1880:	81 e2       	ldi	r24, 0x21	; 33
    1882:	0e 94 d0 08 	call	0x11a0	; 0x11a0 <write_MCP23008>
    1886:	83 36       	cpi	r24, 0x63	; 99
    1888:	39 f1       	breq	.+78     	; 0x18d8 <init_PNEU+0x78>
		return(ERROR);
	}
	if (write_MCP23008(PNEUSENSORS, IPOL, 0x00) == ERROR) {
    188a:	40 e0       	ldi	r20, 0x00	; 0
    188c:	61 e0       	ldi	r22, 0x01	; 1
    188e:	81 e2       	ldi	r24, 0x21	; 33
    1890:	0e 94 d0 08 	call	0x11a0	; 0x11a0 <write_MCP23008>
    1894:	83 36       	cpi	r24, 0x63	; 99
    1896:	01 f1       	breq	.+64     	; 0x18d8 <init_PNEU+0x78>
		return(ERROR);
	}
	if (write_MCP23008(PNEUSENSORS, GPINTEN, 0b11111100) == ERROR) {
    1898:	4c ef       	ldi	r20, 0xFC	; 252
    189a:	62 e0       	ldi	r22, 0x02	; 2
    189c:	81 e2       	ldi	r24, 0x21	; 33
    189e:	0e 94 d0 08 	call	0x11a0	; 0x11a0 <write_MCP23008>
    18a2:	83 36       	cpi	r24, 0x63	; 99
    18a4:	c9 f0       	breq	.+50     	; 0x18d8 <init_PNEU+0x78>
		return(ERROR);
	}
	if (write_MCP23008(PNEUSENSORS, INTCON, 0x00) == ERROR) {
    18a6:	40 e0       	ldi	r20, 0x00	; 0
    18a8:	64 e0       	ldi	r22, 0x04	; 4
    18aa:	81 e2       	ldi	r24, 0x21	; 33
    18ac:	0e 94 d0 08 	call	0x11a0	; 0x11a0 <write_MCP23008>
    18b0:	83 36       	cpi	r24, 0x63	; 99
    18b2:	91 f0       	breq	.+36     	; 0x18d8 <init_PNEU+0x78>
		return(ERROR);
	}
	if (write_MCP23008(PNEUSENSORS, IOCON, 0x20) == ERROR) { // Don't increment addr
    18b4:	40 e2       	ldi	r20, 0x20	; 32
    18b6:	65 e0       	ldi	r22, 0x05	; 5
    18b8:	81 e2       	ldi	r24, 0x21	; 33
    18ba:	0e 94 d0 08 	call	0x11a0	; 0x11a0 <write_MCP23008>
    18be:	83 36       	cpi	r24, 0x63	; 99
    18c0:	59 f0       	breq	.+22     	; 0x18d8 <init_PNEU+0x78>
		return(ERROR);
	}
	if (write_MCP23008(PNEUSENSORS, GPPU, 0x7F) == ERROR) { // Pullups (not really needed)
    18c2:	4f e7       	ldi	r20, 0x7F	; 127
    18c4:	66 e0       	ldi	r22, 0x06	; 6
    18c6:	81 e2       	ldi	r24, 0x21	; 33
    18c8:	0e 94 d0 08 	call	0x11a0	; 0x11a0 <write_MCP23008>
    18cc:	83 36       	cpi	r24, 0x63	; 99
    18ce:	21 f0       	breq	.+8      	; 0x18d8 <init_PNEU+0x78>
		return(ERROR);
	}
	PORTD.PIN7CTRL = PORT_PULLUPEN_bm | PORT_ISC_BOTHEDGES_gc;	// PNEUSENSORS
    18d0:	89 e0       	ldi	r24, 0x09	; 9
    18d2:	80 93 77 04 	sts	0x0477, r24	; 0x800477 <__TEXT_REGION_LENGTH__+0x7f4477>
	return(NOERROR);
    18d6:	80 e0       	ldi	r24, 0x00	; 0

}
    18d8:	08 95       	ret

000018da <read_PNEUSensors>:
void read_PNEUSensors(char *shutter, char *left, char *right, char *air)
	Reports the GMR sensors on the shutter and Hartmann doors, as well as the
	state of the air pressure switch.
------------------------------------------------------------------------------*/
void read_PNEUSensors(char *shutter, char *left, char *right, char *air)
{
    18da:	cf 92       	push	r12
    18dc:	df 92       	push	r13
    18de:	ef 92       	push	r14
    18e0:	ff 92       	push	r15
    18e2:	0f 93       	push	r16
    18e4:	1f 93       	push	r17
    18e6:	cf 93       	push	r28
    18e8:	df 93       	push	r29
    18ea:	6c 01       	movw	r12, r24
    18ec:	8b 01       	movw	r16, r22
    18ee:	7a 01       	movw	r14, r20
    18f0:	e9 01       	movw	r28, r18

	uint8_t sensors, state;
// CHANGE TO pneuState????
	sensors = read_MCP23008(PNEUSENSORS, GPIO);	// NEEDS ERRORCHECK
    18f2:	69 e0       	ldi	r22, 0x09	; 9
    18f4:	81 e2       	ldi	r24, 0x21	; 33
    18f6:	0e 94 ad 08 	call	0x115a	; 0x115a <read_MCP23008>

	// Shutter
	state = sensors >> 6;
    18fa:	98 2f       	mov	r25, r24
    18fc:	92 95       	swap	r25
    18fe:	96 95       	lsr	r25
    1900:	96 95       	lsr	r25
    1902:	93 70       	andi	r25, 0x03	; 3
	state &= 0b00000011;
	if (state == 1) {
    1904:	91 30       	cpi	r25, 0x01	; 1
    1906:	21 f4       	brne	.+8      	; 0x1910 <read_PNEUSensors+0x36>
		*shutter = 'c';
    1908:	93 e6       	ldi	r25, 0x63	; 99
    190a:	f6 01       	movw	r30, r12
    190c:	90 83       	st	Z, r25
    190e:	0f c0       	rjmp	.+30     	; 0x192e <read_PNEUSensors+0x54>
	} else if (state == 2) {
    1910:	92 30       	cpi	r25, 0x02	; 2
    1912:	21 f4       	brne	.+8      	; 0x191c <read_PNEUSensors+0x42>
		*shutter = 'o';
    1914:	9f e6       	ldi	r25, 0x6F	; 111
    1916:	f6 01       	movw	r30, r12
    1918:	90 83       	st	Z, r25
    191a:	09 c0       	rjmp	.+18     	; 0x192e <read_PNEUSensors+0x54>
	} else if (state == 3) {
    191c:	93 30       	cpi	r25, 0x03	; 3
    191e:	21 f4       	brne	.+8      	; 0x1928 <read_PNEUSensors+0x4e>
		*shutter = 't';
    1920:	94 e7       	ldi	r25, 0x74	; 116
    1922:	f6 01       	movw	r30, r12
    1924:	90 83       	st	Z, r25
    1926:	03 c0       	rjmp	.+6      	; 0x192e <read_PNEUSensors+0x54>
	} else {
		*shutter = 'x';
    1928:	98 e7       	ldi	r25, 0x78	; 120
    192a:	f6 01       	movw	r30, r12
    192c:	90 83       	st	Z, r25
	}

	// Right
	state = sensors >> 2;
    192e:	98 2f       	mov	r25, r24
    1930:	96 95       	lsr	r25
    1932:	96 95       	lsr	r25
	state &= 0b00000011;
    1934:	93 70       	andi	r25, 0x03	; 3
	if (state == 1) {
    1936:	91 30       	cpi	r25, 0x01	; 1
    1938:	21 f4       	brne	.+8      	; 0x1942 <read_PNEUSensors+0x68>
		*right = 'c';
    193a:	93 e6       	ldi	r25, 0x63	; 99
    193c:	f7 01       	movw	r30, r14
    193e:	90 83       	st	Z, r25
    1940:	0f c0       	rjmp	.+30     	; 0x1960 <read_PNEUSensors+0x86>
	} else if (state == 2) {
    1942:	92 30       	cpi	r25, 0x02	; 2
    1944:	21 f4       	brne	.+8      	; 0x194e <read_PNEUSensors+0x74>
		*right = 'o';
    1946:	9f e6       	ldi	r25, 0x6F	; 111
    1948:	f7 01       	movw	r30, r14
    194a:	90 83       	st	Z, r25
    194c:	09 c0       	rjmp	.+18     	; 0x1960 <read_PNEUSensors+0x86>
	} else if (state == 3) {
    194e:	93 30       	cpi	r25, 0x03	; 3
    1950:	21 f4       	brne	.+8      	; 0x195a <read_PNEUSensors+0x80>
		*right = 't';
    1952:	94 e7       	ldi	r25, 0x74	; 116
    1954:	f7 01       	movw	r30, r14
    1956:	90 83       	st	Z, r25
    1958:	03 c0       	rjmp	.+6      	; 0x1960 <read_PNEUSensors+0x86>
	} else {
		*right = 'x';
    195a:	98 e7       	ldi	r25, 0x78	; 120
    195c:	f7 01       	movw	r30, r14
    195e:	90 83       	st	Z, r25
	}

	// Left
	state = sensors >> 4;
    1960:	98 2f       	mov	r25, r24
    1962:	92 95       	swap	r25
    1964:	9f 70       	andi	r25, 0x0F	; 15
	state &= 0b00000011;
    1966:	93 70       	andi	r25, 0x03	; 3
	if (state == 1) {
    1968:	91 30       	cpi	r25, 0x01	; 1
    196a:	21 f4       	brne	.+8      	; 0x1974 <read_PNEUSensors+0x9a>
		*left = 'o';
    196c:	9f e6       	ldi	r25, 0x6F	; 111
    196e:	f8 01       	movw	r30, r16
    1970:	90 83       	st	Z, r25
    1972:	0f c0       	rjmp	.+30     	; 0x1992 <read_PNEUSensors+0xb8>
	} else if (state == 2) {
    1974:	92 30       	cpi	r25, 0x02	; 2
    1976:	21 f4       	brne	.+8      	; 0x1980 <read_PNEUSensors+0xa6>
		*left = 'c';
    1978:	93 e6       	ldi	r25, 0x63	; 99
    197a:	f8 01       	movw	r30, r16
    197c:	90 83       	st	Z, r25
    197e:	09 c0       	rjmp	.+18     	; 0x1992 <read_PNEUSensors+0xb8>
	} else if (state == 3) {
    1980:	93 30       	cpi	r25, 0x03	; 3
    1982:	21 f4       	brne	.+8      	; 0x198c <read_PNEUSensors+0xb2>
		*left = 't';
    1984:	94 e7       	ldi	r25, 0x74	; 116
    1986:	f8 01       	movw	r30, r16
    1988:	90 83       	st	Z, r25
    198a:	03 c0       	rjmp	.+6      	; 0x1992 <read_PNEUSensors+0xb8>
	} else {
		*left = 'x';
    198c:	98 e7       	ldi	r25, 0x78	; 120
    198e:	f8 01       	movw	r30, r16
    1990:	90 83       	st	Z, r25
	}

	// Air
	if (sensors & 0b00000010) {
    1992:	81 ff       	sbrs	r24, 1
    1994:	03 c0       	rjmp	.+6      	; 0x199c <read_PNEUSensors+0xc2>
		*air = '0';
    1996:	80 e3       	ldi	r24, 0x30	; 48
    1998:	88 83       	st	Y, r24
    199a:	02 c0       	rjmp	.+4      	; 0x19a0 <read_PNEUSensors+0xc6>
	} else {
		*air = '1';
    199c:	81 e3       	ldi	r24, 0x31	; 49
    199e:	88 83       	st	Y, r24
	}
}
    19a0:	df 91       	pop	r29
    19a2:	cf 91       	pop	r28
    19a4:	1f 91       	pop	r17
    19a6:	0f 91       	pop	r16
    19a8:	ff 90       	pop	r15
    19aa:	ef 90       	pop	r14
    19ac:	df 90       	pop	r13
    19ae:	cf 90       	pop	r12
    19b0:	08 95       	ret

000019b2 <set_PNEUVALVES>:
	Set the Clippard valves.
	Read the current valve state, AND that value with the new pattern, then
	write the new valve state.
------------------------------------------------------------------------------*/
uint8_t set_PNEUVALVES(uint8_t bitmap, uint8_t action)
{
    19b2:	cf 93       	push	r28
    19b4:	df 93       	push	r29
    19b6:	d8 2f       	mov	r29, r24
    19b8:	c6 2f       	mov	r28, r22

	uint8_t retval, old_state, new_state;

	old_state = read_MCP23008(HIGHCURRENT, GPIO);
    19ba:	69 e0       	ldi	r22, 0x09	; 9
    19bc:	84 e2       	ldi	r24, 0x24	; 36
    19be:	0e 94 ad 08 	call	0x115a	; 0x115a <read_MCP23008>
	new_state = ((old_state | bitmap) & action);
    19c2:	8d 2b       	or	r24, r29
    19c4:	48 2f       	mov	r20, r24
    19c6:	4c 23       	and	r20, r28

	if ((retval = write_MCP23008(HIGHCURRENT, OLAT, new_state))) {
    19c8:	6a e0       	ldi	r22, 0x0A	; 10
    19ca:	84 e2       	ldi	r24, 0x24	; 36
    19cc:	0e 94 d0 08 	call	0x11a0	; 0x11a0 <write_MCP23008>
		return(retval);
	}

	return(0);

}
    19d0:	df 91       	pop	r29
    19d2:	cf 91       	pop	r28
    19d4:	08 95       	ret

000019d6 <close_PNEU>:
	Input:
		mech - a character that selects the shutter, left Hartmann door,
		right Hartmann door, or both doors.
------------------------------------------------------------------------------*/
uint8_t close_PNEU(uint8_t cstack)
{
    19d6:	cf 93       	push	r28
    19d8:	df 93       	push	r29
    19da:	cd b7       	in	r28, 0x3d	; 61
    19dc:	de b7       	in	r29, 0x3e	; 62
    19de:	6a 97       	sbiw	r28, 0x1a	; 26
    19e0:	cd bf       	out	0x3d, r28	; 61
    19e2:	de bf       	out	0x3e, r29	; 62

	const char dformat_CLO[] = "Close %s";
    19e4:	99 e0       	ldi	r25, 0x09	; 9
    19e6:	e6 ec       	ldi	r30, 0xC6	; 198
    19e8:	f9 e8       	ldi	r31, 0x89	; 137
    19ea:	de 01       	movw	r26, r28
    19ec:	11 96       	adiw	r26, 0x01	; 1
    19ee:	01 90       	ld	r0, Z+
    19f0:	0d 92       	st	X+, r0
    19f2:	9a 95       	dec	r25
    19f4:	e1 f7       	brne	.-8      	; 0x19ee <close_PNEU+0x18>
	char outbuf[17];

	switch (pcmd[cstack].cobject) {
    19f6:	24 e3       	ldi	r18, 0x34	; 52
    19f8:	82 9f       	mul	r24, r18
    19fa:	c0 01       	movw	r24, r0
    19fc:	11 24       	eor	r1, r1
    19fe:	fc 01       	movw	r30, r24
    1a00:	e9 5f       	subi	r30, 0xF9	; 249
    1a02:	f7 4d       	sbci	r31, 0xD7	; 215
    1a04:	81 81       	ldd	r24, Z+1	; 0x01
    1a06:	8c 36       	cpi	r24, 0x6C	; 108
    1a08:	31 f1       	breq	.+76     	; 0x1a56 <close_PNEU+0x80>
    1a0a:	18 f4       	brcc	.+6      	; 0x1a12 <close_PNEU+0x3c>
    1a0c:	82 36       	cpi	r24, 0x62	; 98
    1a0e:	39 f0       	breq	.+14     	; 0x1a1e <close_PNEU+0x48>
    1a10:	6a c0       	rjmp	.+212    	; 0x1ae6 <close_PNEU+0x110>
    1a12:	82 37       	cpi	r24, 0x72	; 114
    1a14:	c1 f1       	breq	.+112    	; 0x1a86 <close_PNEU+0xb0>
    1a16:	83 37       	cpi	r24, 0x73	; 115
    1a18:	09 f4       	brne	.+2      	; 0x1a1c <close_PNEU+0x46>
    1a1a:	4d c0       	rjmp	.+154    	; 0x1ab6 <close_PNEU+0xe0>
    1a1c:	64 c0       	rjmp	.+200    	; 0x1ae6 <close_PNEU+0x110>

		case 'b':
			set_PNEUVALVES(LEFTBM, LEFTCLOSE);
    1a1e:	6a ee       	ldi	r22, 0xEA	; 234
    1a20:	84 e4       	ldi	r24, 0x44	; 68
    1a22:	0e 94 d9 0c 	call	0x19b2	; 0x19b2 <set_PNEUVALVES>
			set_PNEUVALVES(RIGHTBM, RIGHTCLOSE);
    1a26:	66 ee       	ldi	r22, 0xE6	; 230
    1a28:	88 e8       	ldi	r24, 0x88	; 136
    1a2a:	0e 94 d9 0c 	call	0x19b2	; 0x19b2 <set_PNEUVALVES>
			sprintf(outbuf, dformat_CLO, "both");
    1a2e:	8c e8       	ldi	r24, 0x8C	; 140
    1a30:	99 e8       	ldi	r25, 0x89	; 137
    1a32:	9f 93       	push	r25
    1a34:	8f 93       	push	r24
    1a36:	ce 01       	movw	r24, r28
    1a38:	01 96       	adiw	r24, 0x01	; 1
    1a3a:	9f 93       	push	r25
    1a3c:	8f 93       	push	r24
    1a3e:	09 96       	adiw	r24, 0x09	; 9
    1a40:	9f 93       	push	r25
    1a42:	8f 93       	push	r24
    1a44:	0e 94 8d 23 	call	0x471a	; 0x471a <sprintf>
			break;
    1a48:	0f 90       	pop	r0
    1a4a:	0f 90       	pop	r0
    1a4c:	0f 90       	pop	r0
    1a4e:	0f 90       	pop	r0
    1a50:	0f 90       	pop	r0
    1a52:	0f 90       	pop	r0
    1a54:	59 c0       	rjmp	.+178    	; 0x1b08 <close_PNEU+0x132>

		case 'l':
			set_PNEUVALVES(LEFTBM, LEFTCLOSE);
    1a56:	6a ee       	ldi	r22, 0xEA	; 234
    1a58:	84 e4       	ldi	r24, 0x44	; 68
    1a5a:	0e 94 d9 0c 	call	0x19b2	; 0x19b2 <set_PNEUVALVES>
			sprintf(outbuf, dformat_CLO, "left");
    1a5e:	81 e9       	ldi	r24, 0x91	; 145
    1a60:	99 e8       	ldi	r25, 0x89	; 137
    1a62:	9f 93       	push	r25
    1a64:	8f 93       	push	r24
    1a66:	ce 01       	movw	r24, r28
    1a68:	01 96       	adiw	r24, 0x01	; 1
    1a6a:	9f 93       	push	r25
    1a6c:	8f 93       	push	r24
    1a6e:	09 96       	adiw	r24, 0x09	; 9
    1a70:	9f 93       	push	r25
    1a72:	8f 93       	push	r24
    1a74:	0e 94 8d 23 	call	0x471a	; 0x471a <sprintf>
			break;
    1a78:	0f 90       	pop	r0
    1a7a:	0f 90       	pop	r0
    1a7c:	0f 90       	pop	r0
    1a7e:	0f 90       	pop	r0
    1a80:	0f 90       	pop	r0
    1a82:	0f 90       	pop	r0
    1a84:	41 c0       	rjmp	.+130    	; 0x1b08 <close_PNEU+0x132>
			
		case 'r':
			set_PNEUVALVES(RIGHTBM, RIGHTCLOSE);
    1a86:	66 ee       	ldi	r22, 0xE6	; 230
    1a88:	88 e8       	ldi	r24, 0x88	; 136
    1a8a:	0e 94 d9 0c 	call	0x19b2	; 0x19b2 <set_PNEUVALVES>
			sprintf(outbuf, dformat_CLO, "right");
    1a8e:	86 e9       	ldi	r24, 0x96	; 150
    1a90:	99 e8       	ldi	r25, 0x89	; 137
    1a92:	9f 93       	push	r25
    1a94:	8f 93       	push	r24
    1a96:	ce 01       	movw	r24, r28
    1a98:	01 96       	adiw	r24, 0x01	; 1
    1a9a:	9f 93       	push	r25
    1a9c:	8f 93       	push	r24
    1a9e:	09 96       	adiw	r24, 0x09	; 9
    1aa0:	9f 93       	push	r25
    1aa2:	8f 93       	push	r24
    1aa4:	0e 94 8d 23 	call	0x471a	; 0x471a <sprintf>
			break;
    1aa8:	0f 90       	pop	r0
    1aaa:	0f 90       	pop	r0
    1aac:	0f 90       	pop	r0
    1aae:	0f 90       	pop	r0
    1ab0:	0f 90       	pop	r0
    1ab2:	0f 90       	pop	r0
    1ab4:	29 c0       	rjmp	.+82     	; 0x1b08 <close_PNEU+0x132>

		case 's':										// Close shutter
			set_PNEUVALVES(SHUTTERBM, SHUTTERCLOSE);
    1ab6:	6c ee       	ldi	r22, 0xEC	; 236
    1ab8:	82 e2       	ldi	r24, 0x22	; 34
    1aba:	0e 94 d9 0c 	call	0x19b2	; 0x19b2 <set_PNEUVALVES>
			sprintf(outbuf, dformat_CLO, "shutter");
    1abe:	8c e9       	ldi	r24, 0x9C	; 156
    1ac0:	99 e8       	ldi	r25, 0x89	; 137
    1ac2:	9f 93       	push	r25
    1ac4:	8f 93       	push	r24
    1ac6:	ce 01       	movw	r24, r28
    1ac8:	01 96       	adiw	r24, 0x01	; 1
    1aca:	9f 93       	push	r25
    1acc:	8f 93       	push	r24
    1ace:	09 96       	adiw	r24, 0x09	; 9
    1ad0:	9f 93       	push	r25
    1ad2:	8f 93       	push	r24
    1ad4:	0e 94 8d 23 	call	0x471a	; 0x471a <sprintf>
			break;
    1ad8:	0f 90       	pop	r0
    1ada:	0f 90       	pop	r0
    1adc:	0f 90       	pop	r0
    1ade:	0f 90       	pop	r0
    1ae0:	0f 90       	pop	r0
    1ae2:	0f 90       	pop	r0
    1ae4:	11 c0       	rjmp	.+34     	; 0x1b08 <close_PNEU+0x132>

		default:
			printError(ERR_PNUMECH, "close_PNEU bad object");
    1ae6:	64 ea       	ldi	r22, 0xA4	; 164
    1ae8:	79 e8       	ldi	r23, 0x89	; 137
    1aea:	85 ef       	ldi	r24, 0xF5	; 245
    1aec:	91 e0       	ldi	r25, 0x01	; 1
    1aee:	0e 94 75 06 	call	0xcea	; 0xcea <printError>
			strcpy(outbuf, "close what?");
    1af2:	8c e0       	ldi	r24, 0x0C	; 12
    1af4:	ea eb       	ldi	r30, 0xBA	; 186
    1af6:	f9 e8       	ldi	r31, 0x89	; 137
    1af8:	de 01       	movw	r26, r28
    1afa:	1a 96       	adiw	r26, 0x0a	; 10
    1afc:	01 90       	ld	r0, Z+
    1afe:	0d 92       	st	X+, r0
    1b00:	8a 95       	dec	r24
    1b02:	e1 f7       	brne	.-8      	; 0x1afc <close_PNEU+0x126>
			return(ERROR);
    1b04:	83 e6       	ldi	r24, 0x63	; 99
    1b06:	0b c0       	rjmp	.+22     	; 0x1b1e <close_PNEU+0x148>
			break;

	}

	clear_OLED(1);
    1b08:	81 e0       	ldi	r24, 0x01	; 1
    1b0a:	0e 94 12 0c 	call	0x1824	; 0x1824 <clear_OLED>
	writestr_OLED(1, outbuf, 1);
    1b0e:	41 e0       	ldi	r20, 0x01	; 1
    1b10:	be 01       	movw	r22, r28
    1b12:	66 5f       	subi	r22, 0xF6	; 246
    1b14:	7f 4f       	sbci	r23, 0xFF	; 255
    1b16:	81 e0       	ldi	r24, 0x01	; 1
    1b18:	0e 94 b5 0b 	call	0x176a	; 0x176a <writestr_OLED>
	return(NOERROR);
    1b1c:	80 e0       	ldi	r24, 0x00	; 0

}
    1b1e:	6a 96       	adiw	r28, 0x1a	; 26
    1b20:	cd bf       	out	0x3d, r28	; 61
    1b22:	de bf       	out	0x3e, r29	; 62
    1b24:	df 91       	pop	r29
    1b26:	cf 91       	pop	r28
    1b28:	08 95       	ret

00001b2a <open_PNEU>:
	Input:
		mechanism - a character that selects the shutter, left Hartmann door,
		right Hartmann door, or both doors.
------------------------------------------------------------------------------*/
uint8_t open_PNEU(uint8_t cstack)
{
    1b2a:	cf 93       	push	r28
    1b2c:	df 93       	push	r29
    1b2e:	cd b7       	in	r28, 0x3d	; 61
    1b30:	de b7       	in	r29, 0x3e	; 62
    1b32:	69 97       	sbiw	r28, 0x19	; 25
    1b34:	cd bf       	out	0x3d, r28	; 61
    1b36:	de bf       	out	0x3e, r29	; 62

	const char dformat_OPE[] = "Open %s";
    1b38:	98 e0       	ldi	r25, 0x08	; 8
    1b3a:	ef ee       	ldi	r30, 0xEF	; 239
    1b3c:	f9 e8       	ldi	r31, 0x89	; 137
    1b3e:	de 01       	movw	r26, r28
    1b40:	11 96       	adiw	r26, 0x01	; 1
    1b42:	01 90       	ld	r0, Z+
    1b44:	0d 92       	st	X+, r0
    1b46:	9a 95       	dec	r25
    1b48:	e1 f7       	brne	.-8      	; 0x1b42 <open_PNEU+0x18>
	char outbuf[17];

	switch (pcmd[cstack].cobject) {
    1b4a:	24 e3       	ldi	r18, 0x34	; 52
    1b4c:	82 9f       	mul	r24, r18
    1b4e:	c0 01       	movw	r24, r0
    1b50:	11 24       	eor	r1, r1
    1b52:	fc 01       	movw	r30, r24
    1b54:	e9 5f       	subi	r30, 0xF9	; 249
    1b56:	f7 4d       	sbci	r31, 0xD7	; 215
    1b58:	81 81       	ldd	r24, Z+1	; 0x01
    1b5a:	8c 36       	cpi	r24, 0x6C	; 108
    1b5c:	31 f1       	breq	.+76     	; 0x1baa <open_PNEU+0x80>
    1b5e:	18 f4       	brcc	.+6      	; 0x1b66 <open_PNEU+0x3c>
    1b60:	82 36       	cpi	r24, 0x62	; 98
    1b62:	39 f0       	breq	.+14     	; 0x1b72 <open_PNEU+0x48>
    1b64:	6a c0       	rjmp	.+212    	; 0x1c3a <open_PNEU+0x110>
    1b66:	82 37       	cpi	r24, 0x72	; 114
    1b68:	c1 f1       	breq	.+112    	; 0x1bda <open_PNEU+0xb0>
    1b6a:	83 37       	cpi	r24, 0x73	; 115
    1b6c:	09 f4       	brne	.+2      	; 0x1b70 <open_PNEU+0x46>
    1b6e:	4d c0       	rjmp	.+154    	; 0x1c0a <open_PNEU+0xe0>
    1b70:	64 c0       	rjmp	.+200    	; 0x1c3a <open_PNEU+0x110>

		case 'b':
			set_PNEUVALVES(LEFTBM, LEFTOPEN);
    1b72:	6e ea       	ldi	r22, 0xAE	; 174
    1b74:	84 e4       	ldi	r24, 0x44	; 68
    1b76:	0e 94 d9 0c 	call	0x19b2	; 0x19b2 <set_PNEUVALVES>
			set_PNEUVALVES(RIGHTBM, RIGHTOPEN);
    1b7a:	6e e6       	ldi	r22, 0x6E	; 110
    1b7c:	88 e8       	ldi	r24, 0x88	; 136
    1b7e:	0e 94 d9 0c 	call	0x19b2	; 0x19b2 <set_PNEUVALVES>
			sprintf(outbuf, dformat_OPE, "both");
    1b82:	8c e8       	ldi	r24, 0x8C	; 140
    1b84:	99 e8       	ldi	r25, 0x89	; 137
    1b86:	9f 93       	push	r25
    1b88:	8f 93       	push	r24
    1b8a:	ce 01       	movw	r24, r28
    1b8c:	01 96       	adiw	r24, 0x01	; 1
    1b8e:	9f 93       	push	r25
    1b90:	8f 93       	push	r24
    1b92:	08 96       	adiw	r24, 0x08	; 8
    1b94:	9f 93       	push	r25
    1b96:	8f 93       	push	r24
    1b98:	0e 94 8d 23 	call	0x471a	; 0x471a <sprintf>
			break;
    1b9c:	0f 90       	pop	r0
    1b9e:	0f 90       	pop	r0
    1ba0:	0f 90       	pop	r0
    1ba2:	0f 90       	pop	r0
    1ba4:	0f 90       	pop	r0
    1ba6:	0f 90       	pop	r0
    1ba8:	59 c0       	rjmp	.+178    	; 0x1c5c <open_PNEU+0x132>

		case 'l':
			set_PNEUVALVES(LEFTBM, LEFTOPEN);
    1baa:	6e ea       	ldi	r22, 0xAE	; 174
    1bac:	84 e4       	ldi	r24, 0x44	; 68
    1bae:	0e 94 d9 0c 	call	0x19b2	; 0x19b2 <set_PNEUVALVES>
			sprintf(outbuf, dformat_OPE, "left");
    1bb2:	81 e9       	ldi	r24, 0x91	; 145
    1bb4:	99 e8       	ldi	r25, 0x89	; 137
    1bb6:	9f 93       	push	r25
    1bb8:	8f 93       	push	r24
    1bba:	ce 01       	movw	r24, r28
    1bbc:	01 96       	adiw	r24, 0x01	; 1
    1bbe:	9f 93       	push	r25
    1bc0:	8f 93       	push	r24
    1bc2:	08 96       	adiw	r24, 0x08	; 8
    1bc4:	9f 93       	push	r25
    1bc6:	8f 93       	push	r24
    1bc8:	0e 94 8d 23 	call	0x471a	; 0x471a <sprintf>
			break;
    1bcc:	0f 90       	pop	r0
    1bce:	0f 90       	pop	r0
    1bd0:	0f 90       	pop	r0
    1bd2:	0f 90       	pop	r0
    1bd4:	0f 90       	pop	r0
    1bd6:	0f 90       	pop	r0
    1bd8:	41 c0       	rjmp	.+130    	; 0x1c5c <open_PNEU+0x132>
		
		case 'r':
			set_PNEUVALVES(RIGHTBM, RIGHTOPEN);
    1bda:	6e e6       	ldi	r22, 0x6E	; 110
    1bdc:	88 e8       	ldi	r24, 0x88	; 136
    1bde:	0e 94 d9 0c 	call	0x19b2	; 0x19b2 <set_PNEUVALVES>
			sprintf(outbuf, dformat_OPE, "right");
    1be2:	86 e9       	ldi	r24, 0x96	; 150
    1be4:	99 e8       	ldi	r25, 0x89	; 137
    1be6:	9f 93       	push	r25
    1be8:	8f 93       	push	r24
    1bea:	ce 01       	movw	r24, r28
    1bec:	01 96       	adiw	r24, 0x01	; 1
    1bee:	9f 93       	push	r25
    1bf0:	8f 93       	push	r24
    1bf2:	08 96       	adiw	r24, 0x08	; 8
    1bf4:	9f 93       	push	r25
    1bf6:	8f 93       	push	r24
    1bf8:	0e 94 8d 23 	call	0x471a	; 0x471a <sprintf>
			break;
    1bfc:	0f 90       	pop	r0
    1bfe:	0f 90       	pop	r0
    1c00:	0f 90       	pop	r0
    1c02:	0f 90       	pop	r0
    1c04:	0f 90       	pop	r0
    1c06:	0f 90       	pop	r0
    1c08:	29 c0       	rjmp	.+82     	; 0x1c5c <open_PNEU+0x132>

		case 's':
			set_PNEUVALVES(SHUTTERBM, SHUTTEROPEN);
    1c0a:	6e ec       	ldi	r22, 0xCE	; 206
    1c0c:	82 e2       	ldi	r24, 0x22	; 34
    1c0e:	0e 94 d9 0c 	call	0x19b2	; 0x19b2 <set_PNEUVALVES>
			sprintf(outbuf, dformat_OPE, "shutter");
    1c12:	8c e9       	ldi	r24, 0x9C	; 156
    1c14:	99 e8       	ldi	r25, 0x89	; 137
    1c16:	9f 93       	push	r25
    1c18:	8f 93       	push	r24
    1c1a:	ce 01       	movw	r24, r28
    1c1c:	01 96       	adiw	r24, 0x01	; 1
    1c1e:	9f 93       	push	r25
    1c20:	8f 93       	push	r24
    1c22:	08 96       	adiw	r24, 0x08	; 8
    1c24:	9f 93       	push	r25
    1c26:	8f 93       	push	r24
    1c28:	0e 94 8d 23 	call	0x471a	; 0x471a <sprintf>
			break;
    1c2c:	0f 90       	pop	r0
    1c2e:	0f 90       	pop	r0
    1c30:	0f 90       	pop	r0
    1c32:	0f 90       	pop	r0
    1c34:	0f 90       	pop	r0
    1c36:	0f 90       	pop	r0
    1c38:	11 c0       	rjmp	.+34     	; 0x1c5c <open_PNEU+0x132>

		default:
			printError(ERR_PNUMECH, "open_PNEU bad object");
    1c3a:	6f ec       	ldi	r22, 0xCF	; 207
    1c3c:	79 e8       	ldi	r23, 0x89	; 137
    1c3e:	85 ef       	ldi	r24, 0xF5	; 245
    1c40:	91 e0       	ldi	r25, 0x01	; 1
    1c42:	0e 94 75 06 	call	0xcea	; 0xcea <printError>
			strcpy(outbuf, "open what?");
    1c46:	8b e0       	ldi	r24, 0x0B	; 11
    1c48:	e4 ee       	ldi	r30, 0xE4	; 228
    1c4a:	f9 e8       	ldi	r31, 0x89	; 137
    1c4c:	de 01       	movw	r26, r28
    1c4e:	19 96       	adiw	r26, 0x09	; 9
    1c50:	01 90       	ld	r0, Z+
    1c52:	0d 92       	st	X+, r0
    1c54:	8a 95       	dec	r24
    1c56:	e1 f7       	brne	.-8      	; 0x1c50 <open_PNEU+0x126>
			return(ERROR);
    1c58:	83 e6       	ldi	r24, 0x63	; 99
    1c5a:	0b c0       	rjmp	.+22     	; 0x1c72 <open_PNEU+0x148>
			break;

	}

	clear_OLED(1);
    1c5c:	81 e0       	ldi	r24, 0x01	; 1
    1c5e:	0e 94 12 0c 	call	0x1824	; 0x1824 <clear_OLED>
	writestr_OLED(1, outbuf, 1);
    1c62:	41 e0       	ldi	r20, 0x01	; 1
    1c64:	be 01       	movw	r22, r28
    1c66:	67 5f       	subi	r22, 0xF7	; 247
    1c68:	7f 4f       	sbci	r23, 0xFF	; 255
    1c6a:	81 e0       	ldi	r24, 0x01	; 1
    1c6c:	0e 94 b5 0b 	call	0x176a	; 0x176a <writestr_OLED>
	return(NOERROR);
    1c70:	80 e0       	ldi	r24, 0x00	; 0

}
    1c72:	69 96       	adiw	r28, 0x19	; 25
    1c74:	cd bf       	out	0x3d, r28	; 61
    1c76:	de bf       	out	0x3e, r29	; 62
    1c78:	df 91       	pop	r29
    1c7a:	cf 91       	pop	r28
    1c7c:	08 95       	ret

00001c7e <__vector_20>:

}
*/

ISR(PORTD_PORT_vect)
{
    1c7e:	1f 92       	push	r1
    1c80:	0f 92       	push	r0
    1c82:	0f b6       	in	r0, 0x3f	; 63
    1c84:	0f 92       	push	r0
    1c86:	11 24       	eor	r1, r1
    1c88:	2f 93       	push	r18
    1c8a:	3f 93       	push	r19
    1c8c:	4f 93       	push	r20
    1c8e:	5f 93       	push	r21
    1c90:	6f 93       	push	r22
    1c92:	7f 93       	push	r23
    1c94:	8f 93       	push	r24
    1c96:	9f 93       	push	r25
    1c98:	af 93       	push	r26
    1c9a:	bf 93       	push	r27
    1c9c:	ef 93       	push	r30
    1c9e:	ff 93       	push	r31

	if (PORTD.INTFLAGS & PIN7_bm) {		// Curiosity Nano button
    1ca0:	80 91 69 04 	lds	r24, 0x0469	; 0x800469 <__TEXT_REGION_LENGTH__+0x7f4469>
    1ca4:	88 23       	and	r24, r24
    1ca6:	4c f4       	brge	.+18     	; 0x1cba <__vector_20+0x3c>
		PORTD.INTFLAGS = PIN7_bm;		// Clear the interrupt flag
    1ca8:	80 e8       	ldi	r24, 0x80	; 128
    1caa:	80 93 69 04 	sts	0x0469, r24	; 0x800469 <__TEXT_REGION_LENGTH__+0x7f4469>
		pneuState = read_MCP23008(PNEUSENSORS, INTCAP);
    1cae:	68 e0       	ldi	r22, 0x08	; 8
    1cb0:	81 e2       	ldi	r24, 0x21	; 33
    1cb2:	0e 94 ad 08 	call	0x115a	; 0x115a <read_MCP23008>
    1cb6:	80 93 13 2a 	sts	0x2A13, r24	; 0x802a13 <pneuState>
	}

}
    1cba:	ff 91       	pop	r31
    1cbc:	ef 91       	pop	r30
    1cbe:	bf 91       	pop	r27
    1cc0:	af 91       	pop	r26
    1cc2:	9f 91       	pop	r25
    1cc4:	8f 91       	pop	r24
    1cc6:	7f 91       	pop	r23
    1cc8:	6f 91       	pop	r22
    1cca:	5f 91       	pop	r21
    1ccc:	4f 91       	pop	r20
    1cce:	3f 91       	pop	r19
    1cd0:	2f 91       	pop	r18
    1cd2:	0f 90       	pop	r0
    1cd4:	0f be       	out	0x3f, r0	; 63
    1cd6:	0f 90       	pop	r0
    1cd8:	1f 90       	pop	r1
    1cda:	18 95       	reti

00001cdc <init_PORTS>:
	sure nothing lurks in the background by accident.
------------------------------------------------------------------------------*/
void init_PORTS(void)
{

	PORTA.PIN0CTRL = PORT_PULLUPEN_bm;
    1cdc:	e0 e0       	ldi	r30, 0x00	; 0
    1cde:	f4 e0       	ldi	r31, 0x04	; 4
    1ce0:	88 e0       	ldi	r24, 0x08	; 8
    1ce2:	80 8b       	std	Z+16, r24	; 0x10
	PORTA.PIN1CTRL = PORT_PULLUPEN_bm;
    1ce4:	81 8b       	std	Z+17, r24	; 0x11
	PORTA.PIN2CTRL = PORT_PULLUPEN_bm;
    1ce6:	82 8b       	std	Z+18, r24	; 0x12
	PORTA.PIN3CTRL = PORT_PULLUPEN_bm;
    1ce8:	83 8b       	std	Z+19, r24	; 0x13
	PORTA.PIN4CTRL = PORT_PULLUPEN_bm;
    1cea:	84 8b       	std	Z+20, r24	; 0x14
	PORTA.PIN5CTRL = PORT_PULLUPEN_bm;
    1cec:	85 8b       	std	Z+21, r24	; 0x15
	PORTA.PIN6CTRL = PORT_PULLUPEN_bm;
    1cee:	86 8b       	std	Z+22, r24	; 0x16
	PORTA.PIN7CTRL = PORT_PULLUPEN_bm;
    1cf0:	87 8b       	std	Z+23, r24	; 0x17

	PORTB.PIN0CTRL = PORT_PULLUPEN_bm;
    1cf2:	e0 e2       	ldi	r30, 0x20	; 32
    1cf4:	f4 e0       	ldi	r31, 0x04	; 4
    1cf6:	80 8b       	std	Z+16, r24	; 0x10
	PORTB.PIN1CTRL = PORT_PULLUPEN_bm;
    1cf8:	81 8b       	std	Z+17, r24	; 0x11
	PORTB.PIN2CTRL = PORT_PULLUPEN_bm;
    1cfa:	82 8b       	std	Z+18, r24	; 0x12
	PORTB.PIN3CTRL = PORT_PULLUPEN_bm;
    1cfc:	83 8b       	std	Z+19, r24	; 0x13
	PORTB.PIN4CTRL = PORT_PULLUPEN_bm;
    1cfe:	84 8b       	std	Z+20, r24	; 0x14
	PORTB.PIN5CTRL = PORT_PULLUPEN_bm;
    1d00:	85 8b       	std	Z+21, r24	; 0x15

	PORTC.PIN0CTRL = PORT_PULLUPEN_bm;
    1d02:	e0 e4       	ldi	r30, 0x40	; 64
    1d04:	f4 e0       	ldi	r31, 0x04	; 4
    1d06:	80 8b       	std	Z+16, r24	; 0x10
	PORTC.PIN1CTRL = PORT_PULLUPEN_bm;
    1d08:	81 8b       	std	Z+17, r24	; 0x11
	PORTC.PIN2CTRL = PORT_PULLUPEN_bm;
    1d0a:	82 8b       	std	Z+18, r24	; 0x12
	PORTC.PIN3CTRL = PORT_PULLUPEN_bm;
    1d0c:	83 8b       	std	Z+19, r24	; 0x13
	PORTC.PIN4CTRL = PORT_PULLUPEN_bm;
    1d0e:	84 8b       	std	Z+20, r24	; 0x14
	PORTC.PIN5CTRL = PORT_PULLUPEN_bm;
    1d10:	85 8b       	std	Z+21, r24	; 0x15
	PORTC.PIN6CTRL = PORT_PULLUPEN_bm;
    1d12:	86 8b       	std	Z+22, r24	; 0x16
	PORTC.PIN7CTRL = PORT_PULLUPEN_bm;
    1d14:	87 8b       	std	Z+23, r24	; 0x17

	// ADC pins are on port D
	PORTD.PIN0CTRL = PORT_ISC_INPUT_DISABLE_gc;
    1d16:	e0 e6       	ldi	r30, 0x60	; 96
    1d18:	f4 e0       	ldi	r31, 0x04	; 4
    1d1a:	94 e0       	ldi	r25, 0x04	; 4
    1d1c:	90 8b       	std	Z+16, r25	; 0x10
	PORTD.PIN1CTRL = PORT_ISC_INPUT_DISABLE_gc;
    1d1e:	91 8b       	std	Z+17, r25	; 0x11
	PORTD.PIN2CTRL = PORT_ISC_INPUT_DISABLE_gc;
    1d20:	92 8b       	std	Z+18, r25	; 0x12
	PORTD.PIN3CTRL = PORT_ISC_INPUT_DISABLE_gc;
    1d22:	93 8b       	std	Z+19, r25	; 0x13
	PORTD.PIN4CTRL = PORT_ISC_INPUT_DISABLE_gc;
    1d24:	94 8b       	std	Z+20, r25	; 0x14
	PORTD.PIN5CTRL = PORT_ISC_INPUT_DISABLE_gc;
    1d26:	95 8b       	std	Z+21, r25	; 0x15
	PORTD.PIN6CTRL = PORT_ISC_INPUT_DISABLE_gc;
    1d28:	96 8b       	std	Z+22, r25	; 0x16
	PORTD.PIN7CTRL = PORT_ISC_INPUT_DISABLE_gc;
    1d2a:	97 8b       	std	Z+23, r25	; 0x17

	PORTE.PIN0CTRL = PORT_PULLUPEN_bm;
    1d2c:	e0 e8       	ldi	r30, 0x80	; 128
    1d2e:	f4 e0       	ldi	r31, 0x04	; 4
    1d30:	80 8b       	std	Z+16, r24	; 0x10
	PORTE.PIN1CTRL = PORT_PULLUPEN_bm;
    1d32:	81 8b       	std	Z+17, r24	; 0x11
	PORTE.PIN2CTRL = PORT_PULLUPEN_bm;
    1d34:	82 8b       	std	Z+18, r24	; 0x12
	PORTE.PIN3CTRL = PORT_PULLUPEN_bm;
    1d36:	83 8b       	std	Z+19, r24	; 0x13

	PORTF.PIN0CTRL = PORT_PULLUPEN_bm;
    1d38:	e0 ea       	ldi	r30, 0xA0	; 160
    1d3a:	f4 e0       	ldi	r31, 0x04	; 4
    1d3c:	80 8b       	std	Z+16, r24	; 0x10
	PORTF.PIN1CTRL = PORT_PULLUPEN_bm;
    1d3e:	81 8b       	std	Z+17, r24	; 0x11
	PORTF.PIN2CTRL = PORT_PULLUPEN_bm;
    1d40:	82 8b       	std	Z+18, r24	; 0x12
	PORTF.PIN3CTRL = PORT_PULLUPEN_bm;
    1d42:	83 8b       	std	Z+19, r24	; 0x13
	PORTF.PIN4CTRL = PORT_PULLUPEN_bm;
    1d44:	84 8b       	std	Z+20, r24	; 0x14
	PORTF.PIN5CTRL = PORT_PULLUPEN_bm;
    1d46:	85 8b       	std	Z+21, r24	; 0x15
	PORTF.PIN6CTRL = PORT_PULLUPEN_bm;
    1d48:	86 8b       	std	Z+22, r24	; 0x16
    1d4a:	08 95       	ret

00001d4c <report>:

	Returns:
		ERROR or NOERROR
------------------------------------------------------------------------------*/
uint8_t report(uint8_t cstack)
{
    1d4c:	2f 92       	push	r2
    1d4e:	3f 92       	push	r3
    1d50:	4f 92       	push	r4
    1d52:	5f 92       	push	r5
    1d54:	6f 92       	push	r6
    1d56:	7f 92       	push	r7
    1d58:	8f 92       	push	r8
    1d5a:	9f 92       	push	r9
    1d5c:	af 92       	push	r10
    1d5e:	bf 92       	push	r11
    1d60:	cf 92       	push	r12
    1d62:	df 92       	push	r13
    1d64:	ef 92       	push	r14
    1d66:	ff 92       	push	r15
    1d68:	0f 93       	push	r16
    1d6a:	1f 93       	push	r17
    1d6c:	cf 93       	push	r28
    1d6e:	df 93       	push	r29
    1d70:	cd b7       	in	r28, 0x3d	; 61
    1d72:	de b7       	in	r29, 0x3e	; 62
    1d74:	ca 5e       	subi	r28, 0xEA	; 234
    1d76:	d2 40       	sbci	r29, 0x02	; 2
    1d78:	cd bf       	out	0x3d, r28	; 61
    1d7a:	de bf       	out	0x3e, r29	; 62

	char outbuf[BUFSIZE+10], version[11];
	char currenttime[20], lastsettime[20], boottime[20];
	char shutter, left, right, air;
	const char format_ENV[] = "ENV,%s,%3.1f,C,%1.0f,%%,%3.1f,C,%1.0f,%%,%3.1f,C,%1.0f,%%,%3.1f,C,%s";
    1d7c:	95 e4       	ldi	r25, 0x45	; 69
    1d7e:	e5 e5       	ldi	r30, 0x55	; 85
    1d80:	fa e8       	ldi	r31, 0x8A	; 138
    1d82:	de 01       	movw	r26, r28
    1d84:	ab 5a       	subi	r26, 0xAB	; 171
    1d86:	be 4f       	sbci	r27, 0xFE	; 254
    1d88:	01 90       	ld	r0, Z+
    1d8a:	0d 92       	st	X+, r0
    1d8c:	9a 95       	dec	r25
    1d8e:	e1 f7       	brne	.-8      	; 0x1d88 <report+0x3c>
	const char format_MTR[] = "MTR,%s,%c,%ld,microns,%ld,microns/sec,%d,mA,%s";
    1d90:	9f e2       	ldi	r25, 0x2F	; 47
    1d92:	ea e9       	ldi	r30, 0x9A	; 154
    1d94:	fa e8       	ldi	r31, 0x8A	; 138
    1d96:	de 01       	movw	r26, r28
    1d98:	a6 56       	subi	r26, 0x66	; 102
    1d9a:	be 4f       	sbci	r27, 0xFE	; 254
    1d9c:	01 90       	ld	r0, Z+
    1d9e:	0d 92       	st	X+, r0
    1da0:	9a 95       	dec	r25
    1da2:	e1 f7       	brne	.-8      	; 0x1d9c <report+0x50>
	const char format_MTV[] = "MTV,%s,%c,%3.1f,V,%3.1f,C,%s";
    1da4:	9d e1       	ldi	r25, 0x1D	; 29
    1da6:	e9 ec       	ldi	r30, 0xC9	; 201
    1da8:	fa e8       	ldi	r31, 0x8A	; 138
    1daa:	de 01       	movw	r26, r28
    1dac:	a7 53       	subi	r26, 0x37	; 55
    1dae:	be 4f       	sbci	r27, 0xFE	; 254
    1db0:	01 90       	ld	r0, Z+
    1db2:	0d 92       	st	X+, r0
    1db4:	9a 95       	dec	r25
    1db6:	e1 f7       	brne	.-8      	; 0x1db0 <report+0x64>
	const char format_ORI[] = "ORI,%s,%3.1f,%3.1f,%3.1f,%s";
    1db8:	9c e1       	ldi	r25, 0x1C	; 28
    1dba:	e6 ee       	ldi	r30, 0xE6	; 230
    1dbc:	fa e8       	ldi	r31, 0x8A	; 138
    1dbe:	de 01       	movw	r26, r28
    1dc0:	aa 51       	subi	r26, 0x1A	; 26
    1dc2:	be 4f       	sbci	r27, 0xFE	; 254
    1dc4:	01 90       	ld	r0, Z+
    1dc6:	0d 92       	st	X+, r0
    1dc8:	9a 95       	dec	r25
    1dca:	e1 f7       	brne	.-8      	; 0x1dc4 <report+0x78>
	const char dformat_ORI[] = "%2.0f %2.0f %2.0f";
    1dcc:	92 e1       	ldi	r25, 0x12	; 18
    1dce:	e2 e0       	ldi	r30, 0x02	; 2
    1dd0:	fb e8       	ldi	r31, 0x8B	; 139
    1dd2:	de 01       	movw	r26, r28
    1dd4:	ae 5f       	subi	r26, 0xFE	; 254
    1dd6:	bd 4f       	sbci	r27, 0xFD	; 253
    1dd8:	01 90       	ld	r0, Z+
    1dda:	0d 92       	st	X+, r0
    1ddc:	9a 95       	dec	r25
    1dde:	e1 f7       	brne	.-8      	; 0x1dd8 <report+0x8c>
	const char format_PNU[] = "PNU,%s,%c,shutter,%c,left,%c,right,%c,air,%s";
    1de0:	9d e2       	ldi	r25, 0x2D	; 45
    1de2:	e4 e1       	ldi	r30, 0x14	; 20
    1de4:	fb e8       	ldi	r31, 0x8B	; 139
    1de6:	de 01       	movw	r26, r28
    1de8:	ac 5e       	subi	r26, 0xEC	; 236
    1dea:	bd 4f       	sbci	r27, 0xFD	; 253
    1dec:	01 90       	ld	r0, Z+
    1dee:	0d 92       	st	X+, r0
    1df0:	9a 95       	dec	r25
    1df2:	e1 f7       	brne	.-8      	; 0x1dec <report+0xa0>
	const char dformat_PN1[] = "left:%c   right:%c";
    1df4:	93 e1       	ldi	r25, 0x13	; 19
    1df6:	e1 e4       	ldi	r30, 0x41	; 65
    1df8:	fb e8       	ldi	r31, 0x8B	; 139
    1dfa:	de 01       	movw	r26, r28
    1dfc:	af 5b       	subi	r26, 0xBF	; 191
    1dfe:	bd 4f       	sbci	r27, 0xFD	; 253
    1e00:	01 90       	ld	r0, Z+
    1e02:	0d 92       	st	X+, r0
    1e04:	9a 95       	dec	r25
    1e06:	e1 f7       	brne	.-8      	; 0x1e00 <report+0xb4>
	const char dformat_PN2[] = "shutter:%c  air:%c";
    1e08:	93 e1       	ldi	r25, 0x13	; 19
    1e0a:	e4 e5       	ldi	r30, 0x54	; 84
    1e0c:	fb e8       	ldi	r31, 0x8B	; 139
    1e0e:	de 01       	movw	r26, r28
    1e10:	ac 5a       	subi	r26, 0xAC	; 172
    1e12:	bd 4f       	sbci	r27, 0xFD	; 253
    1e14:	01 90       	ld	r0, Z+
    1e16:	0d 92       	st	X+, r0
    1e18:	9a 95       	dec	r25
    1e1a:	e1 f7       	brne	.-8      	; 0x1e14 <report+0xc8>
	const char format_TIM[] = "TIM,%s,%s,set,%s,boot,%s";
    1e1c:	99 e1       	ldi	r25, 0x19	; 25
    1e1e:	e7 e6       	ldi	r30, 0x67	; 103
    1e20:	fb e8       	ldi	r31, 0x8B	; 139
    1e22:	de 01       	movw	r26, r28
    1e24:	a9 59       	subi	r26, 0x99	; 153
    1e26:	bd 4f       	sbci	r27, 0xFD	; 253
    1e28:	01 90       	ld	r0, Z+
    1e2a:	0d 92       	st	X+, r0
    1e2c:	9a 95       	dec	r25
    1e2e:	e1 f7       	brne	.-8      	; 0x1e28 <report+0xdc>
	const char format_VAC[] = "VAC,%s,%5.2f,redvac,%5.2f,bluevac,%s";
    1e30:	95 e2       	ldi	r25, 0x25	; 37
    1e32:	e0 e8       	ldi	r30, 0x80	; 128
    1e34:	fb e8       	ldi	r31, 0x8B	; 139
    1e36:	de 01       	movw	r26, r28
    1e38:	a0 58       	subi	r26, 0x80	; 128
    1e3a:	bd 4f       	sbci	r27, 0xFD	; 253
    1e3c:	01 90       	ld	r0, Z+
    1e3e:	0d 92       	st	X+, r0
    1e40:	9a 95       	dec	r25
    1e42:	e1 f7       	brne	.-8      	; 0x1e3c <report+0xf0>
	const char dformat_VAC[] = "%2.2f  %2.2f";
    1e44:	9d e0       	ldi	r25, 0x0D	; 13
    1e46:	e5 ea       	ldi	r30, 0xA5	; 165
    1e48:	fb e8       	ldi	r31, 0x8B	; 139
    1e4a:	de 01       	movw	r26, r28
    1e4c:	ab 55       	subi	r26, 0x5B	; 91
    1e4e:	bd 4f       	sbci	r27, 0xFD	; 253
    1e50:	01 90       	ld	r0, Z+
    1e52:	0d 92       	st	X+, r0
    1e54:	9a 95       	dec	r25
    1e56:	e1 f7       	brne	.-8      	; 0x1e50 <report+0x104>
	const char format_VER[] = "VER,%s,%s,%s";
    1e58:	9d e0       	ldi	r25, 0x0D	; 13
    1e5a:	e2 eb       	ldi	r30, 0xB2	; 178
    1e5c:	fb e8       	ldi	r31, 0x8B	; 139
    1e5e:	de 01       	movw	r26, r28
    1e60:	ae 54       	subi	r26, 0x4E	; 78
    1e62:	bd 4f       	sbci	r27, 0xFD	; 253
    1e64:	01 90       	ld	r0, Z+
    1e66:	0d 92       	st	X+, r0
    1e68:	9a 95       	dec	r25
    1e6a:	e1 f7       	brne	.-8      	; 0x1e64 <report+0x118>
	float voltage;							// voltage
	uint16_t current;
	float x, y, z;							// accelerometer
	float redvac, bluvac;					// red and blue vacuum

	switch(pcmd[cstack].cobject) {
    1e6c:	08 2f       	mov	r16, r24
    1e6e:	10 e0       	ldi	r17, 0x00	; 0
    1e70:	84 e3       	ldi	r24, 0x34	; 52
    1e72:	80 9f       	mul	r24, r16
    1e74:	f0 01       	movw	r30, r0
    1e76:	81 9f       	mul	r24, r17
    1e78:	f0 0d       	add	r31, r0
    1e7a:	11 24       	eor	r1, r1
    1e7c:	e9 5f       	subi	r30, 0xF9	; 249
    1e7e:	f7 4d       	sbci	r31, 0xD7	; 215
    1e80:	e1 81       	ldd	r30, Z+1	; 0x01
    1e82:	8e 2f       	mov	r24, r30
    1e84:	90 e0       	ldi	r25, 0x00	; 0
    1e86:	fc 01       	movw	r30, r24
    1e88:	e1 54       	subi	r30, 0x41	; 65
    1e8a:	f1 09       	sbc	r31, r1
    1e8c:	e6 33       	cpi	r30, 0x36	; 54
    1e8e:	f1 05       	cpc	r31, r1
    1e90:	08 f0       	brcs	.+2      	; 0x1e94 <report+0x148>
    1e92:	ce c4       	rjmp	.+2460   	; 0x2830 <report+0xae4>
    1e94:	ed 58       	subi	r30, 0x8D	; 141
    1e96:	ff 4f       	sbci	r31, 0xFF	; 255
    1e98:	0c 94 8e 21 	jmp	0x431c	; 0x431c <__tablejump2__>

		case 'A':
		case 'B':
		case 'C':
			get_time(currenttime);
    1e9c:	ce 01       	movw	r24, r28
    1e9e:	8b 5e       	subi	r24, 0xEB	; 235
    1ea0:	9e 4f       	sbci	r25, 0xFE	; 254
    1ea2:	0e 94 99 05 	call	0xb32	; 0xb32 <get_time>
			controller = pcmd[cstack].cobject + 63;
    1ea6:	84 e3       	ldi	r24, 0x34	; 52
    1ea8:	80 9f       	mul	r24, r16
    1eaa:	f0 01       	movw	r30, r0
    1eac:	81 9f       	mul	r24, r17
    1eae:	f0 0d       	add	r31, r0
    1eb0:	11 24       	eor	r1, r1
    1eb2:	e9 5f       	subi	r30, 0xF9	; 249
    1eb4:	f7 4d       	sbci	r31, 0xD7	; 215
    1eb6:	f1 80       	ldd	r15, Z+1	; 0x01
    1eb8:	0f 2e       	mov	r0, r31
    1eba:	ff e3       	ldi	r31, 0x3F	; 63
    1ebc:	ef 2e       	mov	r14, r31
    1ebe:	f0 2d       	mov	r31, r0
    1ec0:	ef 0c       	add	r14, r15
			retval = get_MOTORFloat(controller, ROBOREADMAINVOLTAGE, &voltage);
    1ec2:	ae 01       	movw	r20, r28
    1ec4:	41 53       	subi	r20, 0x31	; 49
    1ec6:	5d 4f       	sbci	r21, 0xFD	; 253
    1ec8:	68 e1       	ldi	r22, 0x18	; 24
    1eca:	8e 2d       	mov	r24, r14
    1ecc:	0e 94 0b 15 	call	0x2a16	; 0x2a16 <get_MOTORFloat>
			if (retval == ERROR) {
    1ed0:	83 36       	cpi	r24, 0x63	; 99
    1ed2:	61 f4       	brne	.+24     	; 0x1eec <report+0x1a0>
				voltage = -666.0;
    1ed4:	80 e0       	ldi	r24, 0x00	; 0
    1ed6:	90 e8       	ldi	r25, 0x80	; 128
    1ed8:	a6 e2       	ldi	r26, 0x26	; 38
    1eda:	b4 ec       	ldi	r27, 0xC4	; 196
    1edc:	c1 53       	subi	r28, 0x31	; 49
    1ede:	dd 4f       	sbci	r29, 0xFD	; 253
    1ee0:	88 83       	st	Y, r24
    1ee2:	99 83       	std	Y+1, r25	; 0x01
    1ee4:	aa 83       	std	Y+2, r26	; 0x02
    1ee6:	bb 83       	std	Y+3, r27	; 0x03
    1ee8:	cf 5c       	subi	r28, 0xCF	; 207
    1eea:	d2 40       	sbci	r29, 0x02	; 2
			}
			retval = get_MOTORFloat(controller, ROBOREADTEMPERATURE, &t0);
    1eec:	ae 01       	movw	r20, r28
    1eee:	45 53       	subi	r20, 0x35	; 53
    1ef0:	5d 4f       	sbci	r21, 0xFD	; 253
    1ef2:	62 e5       	ldi	r22, 0x52	; 82
    1ef4:	8e 2d       	mov	r24, r14
    1ef6:	0e 94 0b 15 	call	0x2a16	; 0x2a16 <get_MOTORFloat>
			if (retval == ERROR) {
    1efa:	83 36       	cpi	r24, 0x63	; 99
    1efc:	61 f4       	brne	.+24     	; 0x1f16 <report+0x1ca>
				t0 = -666.0;
    1efe:	80 e0       	ldi	r24, 0x00	; 0
    1f00:	90 e8       	ldi	r25, 0x80	; 128
    1f02:	a6 e2       	ldi	r26, 0x26	; 38
    1f04:	b4 ec       	ldi	r27, 0xC4	; 196
    1f06:	c5 53       	subi	r28, 0x35	; 53
    1f08:	dd 4f       	sbci	r29, 0xFD	; 253
    1f0a:	88 83       	st	Y, r24
    1f0c:	99 83       	std	Y+1, r25	; 0x01
    1f0e:	aa 83       	std	Y+2, r26	; 0x02
    1f10:	bb 83       	std	Y+3, r27	; 0x03
    1f12:	cb 5c       	subi	r28, 0xCB	; 203
    1f14:	d2 40       	sbci	r29, 0x02	; 2
			}
			sprintf(outbuf, format_MTV, currenttime, (char) (controller-63),
				voltage, t0, pcmd[cstack].cid);
    1f16:	24 e3       	ldi	r18, 0x34	; 52
    1f18:	20 9f       	mul	r18, r16
    1f1a:	c0 01       	movw	r24, r0
    1f1c:	21 9f       	mul	r18, r17
    1f1e:	90 0d       	add	r25, r0
    1f20:	11 24       	eor	r1, r1
    1f22:	8e 5c       	subi	r24, 0xCE	; 206
    1f24:	97 4d       	sbci	r25, 0xD7	; 215
			}
			retval = get_MOTORFloat(controller, ROBOREADTEMPERATURE, &t0);
			if (retval == ERROR) {
				t0 = -666.0;
			}
			sprintf(outbuf, format_MTV, currenttime, (char) (controller-63),
    1f26:	9f 93       	push	r25
    1f28:	8f 93       	push	r24
    1f2a:	c2 53       	subi	r28, 0x32	; 50
    1f2c:	dd 4f       	sbci	r29, 0xFD	; 253
    1f2e:	88 81       	ld	r24, Y
    1f30:	ce 5c       	subi	r28, 0xCE	; 206
    1f32:	d2 40       	sbci	r29, 0x02	; 2
    1f34:	8f 93       	push	r24
    1f36:	c3 53       	subi	r28, 0x33	; 51
    1f38:	dd 4f       	sbci	r29, 0xFD	; 253
    1f3a:	88 81       	ld	r24, Y
    1f3c:	cd 5c       	subi	r28, 0xCD	; 205
    1f3e:	d2 40       	sbci	r29, 0x02	; 2
    1f40:	8f 93       	push	r24
    1f42:	c4 53       	subi	r28, 0x34	; 52
    1f44:	dd 4f       	sbci	r29, 0xFD	; 253
    1f46:	88 81       	ld	r24, Y
    1f48:	cc 5c       	subi	r28, 0xCC	; 204
    1f4a:	d2 40       	sbci	r29, 0x02	; 2
    1f4c:	8f 93       	push	r24
    1f4e:	c5 53       	subi	r28, 0x35	; 53
    1f50:	dd 4f       	sbci	r29, 0xFD	; 253
    1f52:	88 81       	ld	r24, Y
    1f54:	cb 5c       	subi	r28, 0xCB	; 203
    1f56:	d2 40       	sbci	r29, 0x02	; 2
    1f58:	8f 93       	push	r24
    1f5a:	ce 52       	subi	r28, 0x2E	; 46
    1f5c:	dd 4f       	sbci	r29, 0xFD	; 253
    1f5e:	88 81       	ld	r24, Y
    1f60:	c2 5d       	subi	r28, 0xD2	; 210
    1f62:	d2 40       	sbci	r29, 0x02	; 2
    1f64:	8f 93       	push	r24
    1f66:	cf 52       	subi	r28, 0x2F	; 47
    1f68:	dd 4f       	sbci	r29, 0xFD	; 253
    1f6a:	88 81       	ld	r24, Y
    1f6c:	c1 5d       	subi	r28, 0xD1	; 209
    1f6e:	d2 40       	sbci	r29, 0x02	; 2
    1f70:	8f 93       	push	r24
    1f72:	c0 53       	subi	r28, 0x30	; 48
    1f74:	dd 4f       	sbci	r29, 0xFD	; 253
    1f76:	88 81       	ld	r24, Y
    1f78:	c0 5d       	subi	r28, 0xD0	; 208
    1f7a:	d2 40       	sbci	r29, 0x02	; 2
    1f7c:	8f 93       	push	r24
    1f7e:	c1 53       	subi	r28, 0x31	; 49
    1f80:	dd 4f       	sbci	r29, 0xFD	; 253
    1f82:	88 81       	ld	r24, Y
    1f84:	cf 5c       	subi	r28, 0xCF	; 207
    1f86:	d2 40       	sbci	r29, 0x02	; 2
    1f88:	8f 93       	push	r24
    1f8a:	1f 92       	push	r1
    1f8c:	ff 92       	push	r15
    1f8e:	ce 01       	movw	r24, r28
    1f90:	8b 5e       	subi	r24, 0xEB	; 235
    1f92:	9e 4f       	sbci	r25, 0xFE	; 254
    1f94:	9f 93       	push	r25
    1f96:	8f 93       	push	r24
    1f98:	8c 54       	subi	r24, 0x4C	; 76
    1f9a:	9f 4f       	sbci	r25, 0xFF	; 255
    1f9c:	9f 93       	push	r25
    1f9e:	8f 93       	push	r24
    1fa0:	8e 01       	movw	r16, r28
    1fa2:	0f 5f       	subi	r16, 0xFF	; 255
    1fa4:	1f 4f       	sbci	r17, 0xFF	; 255
    1fa6:	1f 93       	push	r17
    1fa8:	0f 93       	push	r16
    1faa:	0e 94 8d 23 	call	0x471a	; 0x471a <sprintf>
				voltage, t0, pcmd[cstack].cid);
			printLine(outbuf);
    1fae:	c8 01       	movw	r24, r16
    1fb0:	0e 94 88 03 	call	0x710	; 0x710 <printLine>
			break;
    1fb4:	cd bf       	out	0x3d, r28	; 61
    1fb6:	de bf       	out	0x3e, r29	; 62
			printError(ERR_BADOBJECT, "report: unknown object");
			return(ERROR);
			break;
	}

	return(NOERROR);
    1fb8:	80 e0       	ldi	r24, 0x00	; 0
				t0 = -666.0;
			}
			sprintf(outbuf, format_MTV, currenttime, (char) (controller-63),
				voltage, t0, pcmd[cstack].cid);
			printLine(outbuf);
			break;
    1fba:	41 c4       	rjmp	.+2178   	; 0x283e <report+0xaf2>

		case 'a':
		case 'b':
		case 'c':
			get_time(currenttime);
    1fbc:	ce 01       	movw	r24, r28
    1fbe:	8b 5e       	subi	r24, 0xEB	; 235
    1fc0:	9e 4f       	sbci	r25, 0xFE	; 254
    1fc2:	0e 94 99 05 	call	0xb32	; 0xb32 <get_time>
			controller = pcmd[cstack].cobject + 31;
    1fc6:	84 e3       	ldi	r24, 0x34	; 52
    1fc8:	80 9f       	mul	r24, r16
    1fca:	f0 01       	movw	r30, r0
    1fcc:	81 9f       	mul	r24, r17
    1fce:	f0 0d       	add	r31, r0
    1fd0:	11 24       	eor	r1, r1
    1fd2:	e9 5f       	subi	r30, 0xF9	; 249
    1fd4:	f7 4d       	sbci	r31, 0xD7	; 215
    1fd6:	81 81       	ldd	r24, Z+1	; 0x01
    1fd8:	0f 2e       	mov	r0, r31
    1fda:	ff e1       	ldi	r31, 0x1F	; 31
    1fdc:	7f 2e       	mov	r7, r31
    1fde:	f0 2d       	mov	r31, r0
    1fe0:	78 0e       	add	r7, r24
			retval = get_MOTOREncoder(controller, ROBOREADENCODERCOUNT, &encoderValue);
    1fe2:	ae 01       	movw	r20, r28
    1fe4:	41 54       	subi	r20, 0x41	; 65
    1fe6:	5d 4f       	sbci	r21, 0xFD	; 253
    1fe8:	60 e1       	ldi	r22, 0x10	; 16
    1fea:	87 2d       	mov	r24, r7
    1fec:	0e 94 5b 14 	call	0x28b6	; 0x28b6 <get_MOTOREncoder>
			if (retval == ERROR) {
    1ff0:	83 36       	cpi	r24, 0x63	; 99
    1ff2:	61 f4       	brne	.+24     	; 0x200c <report+0x2c0>
				encoderValue = 0x7FFFFFFF;
    1ff4:	8f ef       	ldi	r24, 0xFF	; 255
    1ff6:	9f ef       	ldi	r25, 0xFF	; 255
    1ff8:	af ef       	ldi	r26, 0xFF	; 255
    1ffa:	bf e7       	ldi	r27, 0x7F	; 127
    1ffc:	c1 54       	subi	r28, 0x41	; 65
    1ffe:	dd 4f       	sbci	r29, 0xFD	; 253
    2000:	88 83       	st	Y, r24
    2002:	99 83       	std	Y+1, r25	; 0x01
    2004:	aa 83       	std	Y+2, r26	; 0x02
    2006:	bb 83       	std	Y+3, r27	; 0x03
    2008:	cf 5b       	subi	r28, 0xBF	; 191
    200a:	d2 40       	sbci	r29, 0x02	; 2
			}
			micronValue = encoderValue/ROBOCOUNTSPERMICRON;
    200c:	c1 54       	subi	r28, 0x41	; 65
    200e:	dd 4f       	sbci	r29, 0xFD	; 253
    2010:	68 81       	ld	r22, Y
    2012:	79 81       	ldd	r23, Y+1	; 0x01
    2014:	8a 81       	ldd	r24, Y+2	; 0x02
    2016:	9b 81       	ldd	r25, Y+3	; 0x03
    2018:	cf 5b       	subi	r28, 0xBF	; 191
    201a:	d2 40       	sbci	r29, 0x02	; 2
    201c:	2c e0       	ldi	r18, 0x0C	; 12
    201e:	31 e0       	ldi	r19, 0x01	; 1
    2020:	40 e0       	ldi	r20, 0x00	; 0
    2022:	50 e0       	ldi	r21, 0x00	; 0
    2024:	0e 94 6f 21 	call	0x42de	; 0x42de <__divmodsi4>
    2028:	f2 2e       	mov	r15, r18
    202a:	e3 2e       	mov	r14, r19
    202c:	d4 2e       	mov	r13, r20
    202e:	c5 2e       	mov	r12, r21
			retval = get_MOTOREncoder(controller, ROBOREADENCODERSPEED, &encoderSpeed);
    2030:	ae 01       	movw	r20, r28
    2032:	4d 53       	subi	r20, 0x3D	; 61
    2034:	5d 4f       	sbci	r21, 0xFD	; 253
    2036:	62 e1       	ldi	r22, 0x12	; 18
    2038:	87 2d       	mov	r24, r7
    203a:	0e 94 5b 14 	call	0x28b6	; 0x28b6 <get_MOTOREncoder>
			if (retval == ERROR) {
    203e:	83 36       	cpi	r24, 0x63	; 99
    2040:	61 f4       	brne	.+24     	; 0x205a <report+0x30e>
				encoderSpeed = 0x7FFFFFFF;
    2042:	8f ef       	ldi	r24, 0xFF	; 255
    2044:	9f ef       	ldi	r25, 0xFF	; 255
    2046:	af ef       	ldi	r26, 0xFF	; 255
    2048:	bf e7       	ldi	r27, 0x7F	; 127
    204a:	cd 53       	subi	r28, 0x3D	; 61
    204c:	dd 4f       	sbci	r29, 0xFD	; 253
    204e:	88 83       	st	Y, r24
    2050:	99 83       	std	Y+1, r25	; 0x01
    2052:	aa 83       	std	Y+2, r26	; 0x02
    2054:	bb 83       	std	Y+3, r27	; 0x03
    2056:	c3 5c       	subi	r28, 0xC3	; 195
    2058:	d2 40       	sbci	r29, 0x02	; 2
			}
			micronSpeed = encoderSpeed/ROBOCOUNTSPERMICRON;
    205a:	cd 53       	subi	r28, 0x3D	; 61
    205c:	dd 4f       	sbci	r29, 0xFD	; 253
    205e:	68 81       	ld	r22, Y
    2060:	79 81       	ldd	r23, Y+1	; 0x01
    2062:	8a 81       	ldd	r24, Y+2	; 0x02
    2064:	9b 81       	ldd	r25, Y+3	; 0x03
    2066:	c3 5c       	subi	r28, 0xC3	; 195
    2068:	d2 40       	sbci	r29, 0x02	; 2
    206a:	2c e0       	ldi	r18, 0x0C	; 12
    206c:	31 e0       	ldi	r19, 0x01	; 1
    206e:	40 e0       	ldi	r20, 0x00	; 0
    2070:	50 e0       	ldi	r21, 0x00	; 0
    2072:	0e 94 6f 21 	call	0x42de	; 0x42de <__divmodsi4>
    2076:	b2 2e       	mov	r11, r18
    2078:	a3 2e       	mov	r10, r19
    207a:	94 2e       	mov	r9, r20
    207c:	85 2e       	mov	r8, r21
			retval = get_MOTORInt32(controller, ROBOREADCURRENT, &icurrents);
    207e:	ae 01       	movw	r20, r28
    2080:	49 53       	subi	r20, 0x39	; 57
    2082:	5d 4f       	sbci	r21, 0xFD	; 253
    2084:	61 e3       	ldi	r22, 0x31	; 49
    2086:	87 2d       	mov	r24, r7
    2088:	0e 94 89 15 	call	0x2b12	; 0x2b12 <get_MOTORInt32>
			if (retval == ERROR) {
    208c:	83 36       	cpi	r24, 0x63	; 99
    208e:	61 f4       	brne	.+24     	; 0x20a8 <report+0x35c>
				icurrents = 0x7FFFFFFF;
    2090:	8f ef       	ldi	r24, 0xFF	; 255
    2092:	9f ef       	ldi	r25, 0xFF	; 255
    2094:	af ef       	ldi	r26, 0xFF	; 255
    2096:	bf e7       	ldi	r27, 0x7F	; 127
    2098:	c9 53       	subi	r28, 0x39	; 57
    209a:	dd 4f       	sbci	r29, 0xFD	; 253
    209c:	88 83       	st	Y, r24
    209e:	99 83       	std	Y+1, r25	; 0x01
    20a0:	aa 83       	std	Y+2, r26	; 0x02
    20a2:	bb 83       	std	Y+3, r27	; 0x03
    20a4:	c7 5c       	subi	r28, 0xC7	; 199
    20a6:	d2 40       	sbci	r29, 0x02	; 2
			}
			current = (uint16_t) ((icurrents >> 16) * 10);	// convert to mA
    20a8:	c9 53       	subi	r28, 0x39	; 57
    20aa:	dd 4f       	sbci	r29, 0xFD	; 253
    20ac:	88 81       	ld	r24, Y
    20ae:	99 81       	ldd	r25, Y+1	; 0x01
    20b0:	aa 81       	ldd	r26, Y+2	; 0x02
    20b2:	bb 81       	ldd	r27, Y+3	; 0x03
    20b4:	c7 5c       	subi	r28, 0xC7	; 199
    20b6:	d2 40       	sbci	r29, 0x02	; 2
    20b8:	cd 01       	movw	r24, r26
    20ba:	aa 27       	eor	r26, r26
    20bc:	bb 27       	eor	r27, r27
    20be:	9c 01       	movw	r18, r24
    20c0:	22 0f       	add	r18, r18
    20c2:	33 1f       	adc	r19, r19
    20c4:	88 0f       	add	r24, r24
    20c6:	99 1f       	adc	r25, r25
    20c8:	88 0f       	add	r24, r24
    20ca:	99 1f       	adc	r25, r25
    20cc:	88 0f       	add	r24, r24
    20ce:	99 1f       	adc	r25, r25
    20d0:	82 0f       	add	r24, r18
    20d2:	93 1f       	adc	r25, r19
			sprintf(outbuf, format_MTR, currenttime, pcmd[cstack].cobject,
				micronValue, micronSpeed, current, pcmd[cstack].cid);
    20d4:	44 e3       	ldi	r20, 0x34	; 52
    20d6:	40 9f       	mul	r20, r16
    20d8:	90 01       	movw	r18, r0
    20da:	41 9f       	mul	r20, r17
    20dc:	30 0d       	add	r19, r0
    20de:	11 24       	eor	r1, r1
    20e0:	a9 01       	movw	r20, r18
    20e2:	4e 5c       	subi	r20, 0xCE	; 206
    20e4:	57 4d       	sbci	r21, 0xD7	; 215
			retval = get_MOTORInt32(controller, ROBOREADCURRENT, &icurrents);
			if (retval == ERROR) {
				icurrents = 0x7FFFFFFF;
			}
			current = (uint16_t) ((icurrents >> 16) * 10);	// convert to mA
			sprintf(outbuf, format_MTR, currenttime, pcmd[cstack].cobject,
    20e6:	f9 01       	movw	r30, r18
    20e8:	e9 5f       	subi	r30, 0xF9	; 249
    20ea:	f7 4d       	sbci	r31, 0xD7	; 215
    20ec:	21 81       	ldd	r18, Z+1	; 0x01
    20ee:	5f 93       	push	r21
    20f0:	4f 93       	push	r20
    20f2:	9f 93       	push	r25
    20f4:	8f 93       	push	r24
    20f6:	8f 92       	push	r8
    20f8:	9f 92       	push	r9
    20fa:	af 92       	push	r10
    20fc:	bf 92       	push	r11
    20fe:	cf 92       	push	r12
    2100:	df 92       	push	r13
    2102:	ef 92       	push	r14
    2104:	ff 92       	push	r15
    2106:	1f 92       	push	r1
    2108:	2f 93       	push	r18
    210a:	ce 01       	movw	r24, r28
    210c:	8b 5e       	subi	r24, 0xEB	; 235
    210e:	9e 4f       	sbci	r25, 0xFE	; 254
    2110:	9f 93       	push	r25
    2112:	8f 93       	push	r24
    2114:	8b 57       	subi	r24, 0x7B	; 123
    2116:	9f 4f       	sbci	r25, 0xFF	; 255
    2118:	9f 93       	push	r25
    211a:	8f 93       	push	r24
    211c:	8e 01       	movw	r16, r28
    211e:	0f 5f       	subi	r16, 0xFF	; 255
    2120:	1f 4f       	sbci	r17, 0xFF	; 255
    2122:	1f 93       	push	r17
    2124:	0f 93       	push	r16
    2126:	0e 94 8d 23 	call	0x471a	; 0x471a <sprintf>
				micronValue, micronSpeed, current, pcmd[cstack].cid);
			printLine(outbuf);
    212a:	c8 01       	movw	r24, r16
    212c:	0e 94 88 03 	call	0x710	; 0x710 <printLine>
			break;
    2130:	cd bf       	out	0x3d, r28	; 61
    2132:	de bf       	out	0x3e, r29	; 62
			printError(ERR_BADOBJECT, "report: unknown object");
			return(ERROR);
			break;
	}

	return(NOERROR);
    2134:	80 e0       	ldi	r24, 0x00	; 0
			}
			current = (uint16_t) ((icurrents >> 16) * 10);	// convert to mA
			sprintf(outbuf, format_MTR, currenttime, pcmd[cstack].cobject,
				micronValue, micronSpeed, current, pcmd[cstack].cid);
			printLine(outbuf);
			break;
    2136:	83 c3       	rjmp	.+1798   	; 0x283e <report+0xaf2>

		case 'e':					// Environment (temperature & humidity)
			t0 = get_temperature(0);
    2138:	80 e0       	ldi	r24, 0x00	; 0
    213a:	0e 94 30 18 	call	0x3060	; 0x3060 <get_temperature>
    213e:	c5 53       	subi	r28, 0x35	; 53
    2140:	dd 4f       	sbci	r29, 0xFD	; 253
    2142:	68 83       	st	Y, r22
    2144:	79 83       	std	Y+1, r23	; 0x01
    2146:	8a 83       	std	Y+2, r24	; 0x02
    2148:	9b 83       	std	Y+3, r25	; 0x03
    214a:	cb 5c       	subi	r28, 0xCB	; 203
    214c:	d2 40       	sbci	r29, 0x02	; 2
			h0 = get_humidity(0);
    214e:	80 e0       	ldi	r24, 0x00	; 0
    2150:	0e 94 60 07 	call	0xec0	; 0xec0 <get_humidity>
    2154:	d6 2e       	mov	r13, r22
    2156:	c7 2e       	mov	r12, r23
    2158:	b8 2e       	mov	r11, r24
    215a:	a9 2e       	mov	r10, r25
			t1 = get_temperature(1);
    215c:	81 e0       	ldi	r24, 0x01	; 1
    215e:	0e 94 30 18 	call	0x3060	; 0x3060 <get_temperature>
    2162:	c1 52       	subi	r28, 0x21	; 33
    2164:	dd 4f       	sbci	r29, 0xFD	; 253
    2166:	68 83       	st	Y, r22
    2168:	cf 5d       	subi	r28, 0xDF	; 223
    216a:	d2 40       	sbci	r29, 0x02	; 2
    216c:	c0 52       	subi	r28, 0x20	; 32
    216e:	dd 4f       	sbci	r29, 0xFD	; 253
    2170:	78 83       	st	Y, r23
    2172:	c0 5e       	subi	r28, 0xE0	; 224
    2174:	d2 40       	sbci	r29, 0x02	; 2
    2176:	cf 51       	subi	r28, 0x1F	; 31
    2178:	dd 4f       	sbci	r29, 0xFD	; 253
    217a:	88 83       	st	Y, r24
    217c:	c1 5e       	subi	r28, 0xE1	; 225
    217e:	d2 40       	sbci	r29, 0x02	; 2
    2180:	ce 51       	subi	r28, 0x1E	; 30
    2182:	dd 4f       	sbci	r29, 0xFD	; 253
    2184:	98 83       	st	Y, r25
    2186:	c2 5e       	subi	r28, 0xE2	; 226
    2188:	d2 40       	sbci	r29, 0x02	; 2
			h1 = get_humidity(1);
    218a:	81 e0       	ldi	r24, 0x01	; 1
    218c:	0e 94 60 07 	call	0xec0	; 0xec0 <get_humidity>
    2190:	cd 51       	subi	r28, 0x1D	; 29
    2192:	dd 4f       	sbci	r29, 0xFD	; 253
    2194:	68 83       	st	Y, r22
    2196:	c3 5e       	subi	r28, 0xE3	; 227
    2198:	d2 40       	sbci	r29, 0x02	; 2
    219a:	cc 51       	subi	r28, 0x1C	; 28
    219c:	dd 4f       	sbci	r29, 0xFD	; 253
    219e:	78 83       	st	Y, r23
    21a0:	c4 5e       	subi	r28, 0xE4	; 228
    21a2:	d2 40       	sbci	r29, 0x02	; 2
    21a4:	cb 51       	subi	r28, 0x1B	; 27
    21a6:	dd 4f       	sbci	r29, 0xFD	; 253
    21a8:	88 83       	st	Y, r24
    21aa:	c5 5e       	subi	r28, 0xE5	; 229
    21ac:	d2 40       	sbci	r29, 0x02	; 2
    21ae:	ca 51       	subi	r28, 0x1A	; 26
    21b0:	dd 4f       	sbci	r29, 0xFD	; 253
    21b2:	98 83       	st	Y, r25
    21b4:	c6 5e       	subi	r28, 0xE6	; 230
    21b6:	d2 40       	sbci	r29, 0x02	; 2
			t2 = get_temperature(2);
    21b8:	82 e0       	ldi	r24, 0x02	; 2
    21ba:	0e 94 30 18 	call	0x3060	; 0x3060 <get_temperature>
    21be:	c9 51       	subi	r28, 0x19	; 25
    21c0:	dd 4f       	sbci	r29, 0xFD	; 253
    21c2:	68 83       	st	Y, r22
    21c4:	c7 5e       	subi	r28, 0xE7	; 231
    21c6:	d2 40       	sbci	r29, 0x02	; 2
    21c8:	c8 51       	subi	r28, 0x18	; 24
    21ca:	dd 4f       	sbci	r29, 0xFD	; 253
    21cc:	78 83       	st	Y, r23
    21ce:	c8 5e       	subi	r28, 0xE8	; 232
    21d0:	d2 40       	sbci	r29, 0x02	; 2
    21d2:	98 2e       	mov	r9, r24
    21d4:	89 2e       	mov	r8, r25
			h2 = get_humidity(2);
    21d6:	82 e0       	ldi	r24, 0x02	; 2
    21d8:	0e 94 60 07 	call	0xec0	; 0xec0 <get_humidity>
    21dc:	76 2e       	mov	r7, r22
    21de:	67 2e       	mov	r6, r23
    21e0:	58 2e       	mov	r5, r24
    21e2:	49 2e       	mov	r4, r25
			t3 = get_temperature(3);
    21e4:	83 e0       	ldi	r24, 0x03	; 3
    21e6:	0e 94 30 18 	call	0x3060	; 0x3060 <get_temperature>
    21ea:	c7 51       	subi	r28, 0x17	; 23
    21ec:	dd 4f       	sbci	r29, 0xFD	; 253
    21ee:	68 83       	st	Y, r22
    21f0:	c9 5e       	subi	r28, 0xE9	; 233
    21f2:	d2 40       	sbci	r29, 0x02	; 2
    21f4:	c6 51       	subi	r28, 0x16	; 22
    21f6:	dd 4f       	sbci	r29, 0xFD	; 253
    21f8:	78 83       	st	Y, r23
    21fa:	ca 5e       	subi	r28, 0xEA	; 234
    21fc:	d2 40       	sbci	r29, 0x02	; 2
    21fe:	38 2e       	mov	r3, r24
    2200:	29 2e       	mov	r2, r25
			get_time(currenttime);
    2202:	7e 01       	movw	r14, r28
    2204:	9b ee       	ldi	r25, 0xEB	; 235
    2206:	e9 1a       	sub	r14, r25
    2208:	9e ef       	ldi	r25, 0xFE	; 254
    220a:	f9 0a       	sbc	r15, r25
    220c:	c7 01       	movw	r24, r14
    220e:	0e 94 99 05 	call	0xb32	; 0xb32 <get_time>
			sprintf(outbuf, format_ENV, currenttime, t0, h0, t1, h1, t2, h2, t3, pcmd[cstack].cid);
    2212:	24 e3       	ldi	r18, 0x34	; 52
    2214:	20 9f       	mul	r18, r16
    2216:	c0 01       	movw	r24, r0
    2218:	21 9f       	mul	r18, r17
    221a:	90 0d       	add	r25, r0
    221c:	11 24       	eor	r1, r1
    221e:	8e 5c       	subi	r24, 0xCE	; 206
    2220:	97 4d       	sbci	r25, 0xD7	; 215
    2222:	9f 93       	push	r25
    2224:	8f 93       	push	r24
    2226:	2f 92       	push	r2
    2228:	3f 92       	push	r3
    222a:	c6 51       	subi	r28, 0x16	; 22
    222c:	dd 4f       	sbci	r29, 0xFD	; 253
    222e:	88 81       	ld	r24, Y
    2230:	ca 5e       	subi	r28, 0xEA	; 234
    2232:	d2 40       	sbci	r29, 0x02	; 2
    2234:	8f 93       	push	r24
    2236:	c7 51       	subi	r28, 0x17	; 23
    2238:	dd 4f       	sbci	r29, 0xFD	; 253
    223a:	98 81       	ld	r25, Y
    223c:	c9 5e       	subi	r28, 0xE9	; 233
    223e:	d2 40       	sbci	r29, 0x02	; 2
    2240:	9f 93       	push	r25
    2242:	4f 92       	push	r4
    2244:	5f 92       	push	r5
    2246:	6f 92       	push	r6
    2248:	7f 92       	push	r7
    224a:	8f 92       	push	r8
    224c:	9f 92       	push	r9
    224e:	c8 51       	subi	r28, 0x18	; 24
    2250:	dd 4f       	sbci	r29, 0xFD	; 253
    2252:	88 81       	ld	r24, Y
    2254:	c8 5e       	subi	r28, 0xE8	; 232
    2256:	d2 40       	sbci	r29, 0x02	; 2
    2258:	8f 93       	push	r24
    225a:	c9 51       	subi	r28, 0x19	; 25
    225c:	dd 4f       	sbci	r29, 0xFD	; 253
    225e:	98 81       	ld	r25, Y
    2260:	c7 5e       	subi	r28, 0xE7	; 231
    2262:	d2 40       	sbci	r29, 0x02	; 2
    2264:	9f 93       	push	r25
    2266:	ca 51       	subi	r28, 0x1A	; 26
    2268:	dd 4f       	sbci	r29, 0xFD	; 253
    226a:	88 81       	ld	r24, Y
    226c:	c6 5e       	subi	r28, 0xE6	; 230
    226e:	d2 40       	sbci	r29, 0x02	; 2
    2270:	8f 93       	push	r24
    2272:	cb 51       	subi	r28, 0x1B	; 27
    2274:	dd 4f       	sbci	r29, 0xFD	; 253
    2276:	98 81       	ld	r25, Y
    2278:	c5 5e       	subi	r28, 0xE5	; 229
    227a:	d2 40       	sbci	r29, 0x02	; 2
    227c:	9f 93       	push	r25
    227e:	cc 51       	subi	r28, 0x1C	; 28
    2280:	dd 4f       	sbci	r29, 0xFD	; 253
    2282:	88 81       	ld	r24, Y
    2284:	c4 5e       	subi	r28, 0xE4	; 228
    2286:	d2 40       	sbci	r29, 0x02	; 2
    2288:	8f 93       	push	r24
    228a:	cd 51       	subi	r28, 0x1D	; 29
    228c:	dd 4f       	sbci	r29, 0xFD	; 253
    228e:	98 81       	ld	r25, Y
    2290:	c3 5e       	subi	r28, 0xE3	; 227
    2292:	d2 40       	sbci	r29, 0x02	; 2
    2294:	9f 93       	push	r25
    2296:	ce 51       	subi	r28, 0x1E	; 30
    2298:	dd 4f       	sbci	r29, 0xFD	; 253
    229a:	88 81       	ld	r24, Y
    229c:	c2 5e       	subi	r28, 0xE2	; 226
    229e:	d2 40       	sbci	r29, 0x02	; 2
    22a0:	8f 93       	push	r24
    22a2:	cf 51       	subi	r28, 0x1F	; 31
    22a4:	dd 4f       	sbci	r29, 0xFD	; 253
    22a6:	98 81       	ld	r25, Y
    22a8:	c1 5e       	subi	r28, 0xE1	; 225
    22aa:	d2 40       	sbci	r29, 0x02	; 2
    22ac:	9f 93       	push	r25
    22ae:	c0 52       	subi	r28, 0x20	; 32
    22b0:	dd 4f       	sbci	r29, 0xFD	; 253
    22b2:	88 81       	ld	r24, Y
    22b4:	c0 5e       	subi	r28, 0xE0	; 224
    22b6:	d2 40       	sbci	r29, 0x02	; 2
    22b8:	8f 93       	push	r24
    22ba:	c1 52       	subi	r28, 0x21	; 33
    22bc:	dd 4f       	sbci	r29, 0xFD	; 253
    22be:	98 81       	ld	r25, Y
    22c0:	cf 5d       	subi	r28, 0xDF	; 223
    22c2:	d2 40       	sbci	r29, 0x02	; 2
    22c4:	9f 93       	push	r25
    22c6:	af 92       	push	r10
    22c8:	bf 92       	push	r11
    22ca:	cf 92       	push	r12
    22cc:	df 92       	push	r13
    22ce:	c2 53       	subi	r28, 0x32	; 50
    22d0:	dd 4f       	sbci	r29, 0xFD	; 253
    22d2:	88 81       	ld	r24, Y
    22d4:	ce 5c       	subi	r28, 0xCE	; 206
    22d6:	d2 40       	sbci	r29, 0x02	; 2
    22d8:	8f 93       	push	r24
    22da:	c3 53       	subi	r28, 0x33	; 51
    22dc:	dd 4f       	sbci	r29, 0xFD	; 253
    22de:	88 81       	ld	r24, Y
    22e0:	cd 5c       	subi	r28, 0xCD	; 205
    22e2:	d2 40       	sbci	r29, 0x02	; 2
    22e4:	8f 93       	push	r24
    22e6:	c4 53       	subi	r28, 0x34	; 52
    22e8:	dd 4f       	sbci	r29, 0xFD	; 253
    22ea:	88 81       	ld	r24, Y
    22ec:	cc 5c       	subi	r28, 0xCC	; 204
    22ee:	d2 40       	sbci	r29, 0x02	; 2
    22f0:	8f 93       	push	r24
    22f2:	c5 53       	subi	r28, 0x35	; 53
    22f4:	dd 4f       	sbci	r29, 0xFD	; 253
    22f6:	88 81       	ld	r24, Y
    22f8:	cb 5c       	subi	r28, 0xCB	; 203
    22fa:	d2 40       	sbci	r29, 0x02	; 2
    22fc:	8f 93       	push	r24
    22fe:	ff 92       	push	r15
    2300:	ef 92       	push	r14
    2302:	ce 01       	movw	r24, r28
    2304:	8b 5a       	subi	r24, 0xAB	; 171
    2306:	9e 4f       	sbci	r25, 0xFE	; 254
    2308:	9f 93       	push	r25
    230a:	8f 93       	push	r24
    230c:	8e 01       	movw	r16, r28
    230e:	0f 5f       	subi	r16, 0xFF	; 255
    2310:	1f 4f       	sbci	r17, 0xFF	; 255
    2312:	1f 93       	push	r17
    2314:	0f 93       	push	r16
    2316:	0e 94 8d 23 	call	0x471a	; 0x471a <sprintf>
			printLine(outbuf);
    231a:	cd bf       	out	0x3d, r28	; 61
    231c:	de bf       	out	0x3e, r29	; 62
    231e:	c8 01       	movw	r24, r16
    2320:	0e 94 88 03 	call	0x710	; 0x710 <printLine>
			writestr_OLED(1, "Temp & Humidity", 1);
    2324:	41 e0       	ldi	r20, 0x01	; 1
    2326:	67 ef       	ldi	r22, 0xF7	; 247
    2328:	79 e8       	ldi	r23, 0x89	; 137
    232a:	81 e0       	ldi	r24, 0x01	; 1
    232c:	0e 94 b5 0b 	call	0x176a	; 0x176a <writestr_OLED>
			sprintf(outbuf, "%1.1fC %1.0fF %1.0f%%", t0, ((t0*1.8)+32), h0);
    2330:	c5 53       	subi	r28, 0x35	; 53
    2332:	dd 4f       	sbci	r29, 0xFD	; 253
    2334:	f8 80       	ld	r15, Y
    2336:	cb 5c       	subi	r28, 0xCB	; 203
    2338:	d2 40       	sbci	r29, 0x02	; 2
    233a:	c4 53       	subi	r28, 0x34	; 52
    233c:	dd 4f       	sbci	r29, 0xFD	; 253
    233e:	e8 80       	ld	r14, Y
    2340:	cc 5c       	subi	r28, 0xCC	; 204
    2342:	d2 40       	sbci	r29, 0x02	; 2
    2344:	c3 53       	subi	r28, 0x33	; 51
    2346:	dd 4f       	sbci	r29, 0xFD	; 253
    2348:	98 80       	ld	r9, Y
    234a:	cd 5c       	subi	r28, 0xCD	; 205
    234c:	d2 40       	sbci	r29, 0x02	; 2
    234e:	c2 53       	subi	r28, 0x32	; 50
    2350:	dd 4f       	sbci	r29, 0xFD	; 253
    2352:	88 80       	ld	r8, Y
    2354:	ce 5c       	subi	r28, 0xCE	; 206
    2356:	d2 40       	sbci	r29, 0x02	; 2
    2358:	26 e6       	ldi	r18, 0x66	; 102
    235a:	36 e6       	ldi	r19, 0x66	; 102
    235c:	46 ee       	ldi	r20, 0xE6	; 230
    235e:	5f e3       	ldi	r21, 0x3F	; 63
    2360:	6f 2d       	mov	r22, r15
    2362:	7e 2d       	mov	r23, r14
    2364:	89 2d       	mov	r24, r9
    2366:	98 2d       	mov	r25, r8
    2368:	0e 94 71 1d 	call	0x3ae2	; 0x3ae2 <__mulsf3>
    236c:	af 92       	push	r10
    236e:	bf 92       	push	r11
    2370:	cf 92       	push	r12
    2372:	df 92       	push	r13
    2374:	20 e0       	ldi	r18, 0x00	; 0
    2376:	30 e0       	ldi	r19, 0x00	; 0
    2378:	40 e0       	ldi	r20, 0x00	; 0
    237a:	52 e4       	ldi	r21, 0x42	; 66
    237c:	0e 94 d7 1b 	call	0x37ae	; 0x37ae <__addsf3>
    2380:	9f 93       	push	r25
    2382:	8f 93       	push	r24
    2384:	7f 93       	push	r23
    2386:	6f 93       	push	r22
    2388:	8f 92       	push	r8
    238a:	9f 92       	push	r9
    238c:	ef 92       	push	r14
    238e:	ff 92       	push	r15
    2390:	87 e0       	ldi	r24, 0x07	; 7
    2392:	9a e8       	ldi	r25, 0x8A	; 138
    2394:	9f 93       	push	r25
    2396:	8f 93       	push	r24
    2398:	1f 93       	push	r17
    239a:	0f 93       	push	r16
    239c:	0e 94 8d 23 	call	0x471a	; 0x471a <sprintf>
			writestr_OLED(1, outbuf, 2);
    23a0:	42 e0       	ldi	r20, 0x02	; 2
    23a2:	b8 01       	movw	r22, r16
    23a4:	81 e0       	ldi	r24, 0x01	; 1
    23a6:	0e 94 b5 0b 	call	0x176a	; 0x176a <writestr_OLED>
			break;
    23aa:	cd bf       	out	0x3d, r28	; 61
    23ac:	de bf       	out	0x3e, r29	; 62
			printError(ERR_BADOBJECT, "report: unknown object");
			return(ERROR);
			break;
	}

	return(NOERROR);
    23ae:	80 e0       	ldi	r24, 0x00	; 0
			sprintf(outbuf, format_ENV, currenttime, t0, h0, t1, h1, t2, h2, t3, pcmd[cstack].cid);
			printLine(outbuf);
			writestr_OLED(1, "Temp & Humidity", 1);
			sprintf(outbuf, "%1.1fC %1.0fF %1.0f%%", t0, ((t0*1.8)+32), h0);
			writestr_OLED(1, outbuf, 2);
			break;
    23b0:	46 c2       	rjmp	.+1164   	; 0x283e <report+0xaf2>

		case 'o':					// Orientation
			get_orientation(&x, &y, &z);
    23b2:	ae 01       	movw	r20, r28
    23b4:	45 52       	subi	r20, 0x25	; 37
    23b6:	5d 4f       	sbci	r21, 0xFD	; 253
    23b8:	be 01       	movw	r22, r28
    23ba:	69 52       	subi	r22, 0x29	; 41
    23bc:	7d 4f       	sbci	r23, 0xFD	; 253
    23be:	ce 01       	movw	r24, r28
    23c0:	8d 52       	subi	r24, 0x2D	; 45
    23c2:	9d 4f       	sbci	r25, 0xFD	; 253
    23c4:	0e 94 a3 09 	call	0x1346	; 0x1346 <get_orientation>
			get_time(currenttime);
    23c8:	7e 01       	movw	r14, r28
    23ca:	9b ee       	ldi	r25, 0xEB	; 235
    23cc:	e9 1a       	sub	r14, r25
    23ce:	9e ef       	ldi	r25, 0xFE	; 254
    23d0:	f9 0a       	sbc	r15, r25
    23d2:	c7 01       	movw	r24, r14
    23d4:	0e 94 99 05 	call	0xb32	; 0xb32 <get_time>
			sprintf(outbuf, format_ORI, currenttime, x, y, z, pcmd[cstack].cid);
    23d8:	24 e3       	ldi	r18, 0x34	; 52
    23da:	20 9f       	mul	r18, r16
    23dc:	c0 01       	movw	r24, r0
    23de:	21 9f       	mul	r18, r17
    23e0:	90 0d       	add	r25, r0
    23e2:	11 24       	eor	r1, r1
    23e4:	8e 5c       	subi	r24, 0xCE	; 206
    23e6:	97 4d       	sbci	r25, 0xD7	; 215
    23e8:	9f 93       	push	r25
    23ea:	8f 93       	push	r24
    23ec:	c2 52       	subi	r28, 0x22	; 34
    23ee:	dd 4f       	sbci	r29, 0xFD	; 253
    23f0:	88 81       	ld	r24, Y
    23f2:	ce 5d       	subi	r28, 0xDE	; 222
    23f4:	d2 40       	sbci	r29, 0x02	; 2
    23f6:	8f 93       	push	r24
    23f8:	c3 52       	subi	r28, 0x23	; 35
    23fa:	dd 4f       	sbci	r29, 0xFD	; 253
    23fc:	88 81       	ld	r24, Y
    23fe:	cd 5d       	subi	r28, 0xDD	; 221
    2400:	d2 40       	sbci	r29, 0x02	; 2
    2402:	8f 93       	push	r24
    2404:	c4 52       	subi	r28, 0x24	; 36
    2406:	dd 4f       	sbci	r29, 0xFD	; 253
    2408:	88 81       	ld	r24, Y
    240a:	cc 5d       	subi	r28, 0xDC	; 220
    240c:	d2 40       	sbci	r29, 0x02	; 2
    240e:	8f 93       	push	r24
    2410:	c5 52       	subi	r28, 0x25	; 37
    2412:	dd 4f       	sbci	r29, 0xFD	; 253
    2414:	88 81       	ld	r24, Y
    2416:	cb 5d       	subi	r28, 0xDB	; 219
    2418:	d2 40       	sbci	r29, 0x02	; 2
    241a:	8f 93       	push	r24
    241c:	c6 52       	subi	r28, 0x26	; 38
    241e:	dd 4f       	sbci	r29, 0xFD	; 253
    2420:	88 81       	ld	r24, Y
    2422:	ca 5d       	subi	r28, 0xDA	; 218
    2424:	d2 40       	sbci	r29, 0x02	; 2
    2426:	8f 93       	push	r24
    2428:	c7 52       	subi	r28, 0x27	; 39
    242a:	dd 4f       	sbci	r29, 0xFD	; 253
    242c:	88 81       	ld	r24, Y
    242e:	c9 5d       	subi	r28, 0xD9	; 217
    2430:	d2 40       	sbci	r29, 0x02	; 2
    2432:	8f 93       	push	r24
    2434:	c8 52       	subi	r28, 0x28	; 40
    2436:	dd 4f       	sbci	r29, 0xFD	; 253
    2438:	88 81       	ld	r24, Y
    243a:	c8 5d       	subi	r28, 0xD8	; 216
    243c:	d2 40       	sbci	r29, 0x02	; 2
    243e:	8f 93       	push	r24
    2440:	c9 52       	subi	r28, 0x29	; 41
    2442:	dd 4f       	sbci	r29, 0xFD	; 253
    2444:	88 81       	ld	r24, Y
    2446:	c7 5d       	subi	r28, 0xD7	; 215
    2448:	d2 40       	sbci	r29, 0x02	; 2
    244a:	8f 93       	push	r24
    244c:	ca 52       	subi	r28, 0x2A	; 42
    244e:	dd 4f       	sbci	r29, 0xFD	; 253
    2450:	88 81       	ld	r24, Y
    2452:	c6 5d       	subi	r28, 0xD6	; 214
    2454:	d2 40       	sbci	r29, 0x02	; 2
    2456:	8f 93       	push	r24
    2458:	cb 52       	subi	r28, 0x2B	; 43
    245a:	dd 4f       	sbci	r29, 0xFD	; 253
    245c:	88 81       	ld	r24, Y
    245e:	c5 5d       	subi	r28, 0xD5	; 213
    2460:	d2 40       	sbci	r29, 0x02	; 2
    2462:	8f 93       	push	r24
    2464:	cc 52       	subi	r28, 0x2C	; 44
    2466:	dd 4f       	sbci	r29, 0xFD	; 253
    2468:	88 81       	ld	r24, Y
    246a:	c4 5d       	subi	r28, 0xD4	; 212
    246c:	d2 40       	sbci	r29, 0x02	; 2
    246e:	8f 93       	push	r24
    2470:	cd 52       	subi	r28, 0x2D	; 45
    2472:	dd 4f       	sbci	r29, 0xFD	; 253
    2474:	88 81       	ld	r24, Y
    2476:	c3 5d       	subi	r28, 0xD3	; 211
    2478:	d2 40       	sbci	r29, 0x02	; 2
    247a:	8f 93       	push	r24
    247c:	ff 92       	push	r15
    247e:	ef 92       	push	r14
    2480:	ce 01       	movw	r24, r28
    2482:	8a 51       	subi	r24, 0x1A	; 26
    2484:	9e 4f       	sbci	r25, 0xFE	; 254
    2486:	9f 93       	push	r25
    2488:	8f 93       	push	r24
    248a:	8e 01       	movw	r16, r28
    248c:	0f 5f       	subi	r16, 0xFF	; 255
    248e:	1f 4f       	sbci	r17, 0xFF	; 255
    2490:	1f 93       	push	r17
    2492:	0f 93       	push	r16
    2494:	0e 94 8d 23 	call	0x471a	; 0x471a <sprintf>
			printLine(outbuf);
    2498:	c8 01       	movw	r24, r16
    249a:	0e 94 88 03 	call	0x710	; 0x710 <printLine>
			writestr_OLED(1, "Orientation", 1);
    249e:	41 e0       	ldi	r20, 0x01	; 1
    24a0:	6d e1       	ldi	r22, 0x1D	; 29
    24a2:	7a e8       	ldi	r23, 0x8A	; 138
    24a4:	81 e0       	ldi	r24, 0x01	; 1
    24a6:	0e 94 b5 0b 	call	0x176a	; 0x176a <writestr_OLED>
			sprintf(outbuf, dformat_ORI, x, y, z);
    24aa:	c2 52       	subi	r28, 0x22	; 34
    24ac:	dd 4f       	sbci	r29, 0xFD	; 253
    24ae:	88 81       	ld	r24, Y
    24b0:	ce 5d       	subi	r28, 0xDE	; 222
    24b2:	d2 40       	sbci	r29, 0x02	; 2
    24b4:	8f 93       	push	r24
    24b6:	c3 52       	subi	r28, 0x23	; 35
    24b8:	dd 4f       	sbci	r29, 0xFD	; 253
    24ba:	88 81       	ld	r24, Y
    24bc:	cd 5d       	subi	r28, 0xDD	; 221
    24be:	d2 40       	sbci	r29, 0x02	; 2
    24c0:	8f 93       	push	r24
    24c2:	c4 52       	subi	r28, 0x24	; 36
    24c4:	dd 4f       	sbci	r29, 0xFD	; 253
    24c6:	88 81       	ld	r24, Y
    24c8:	cc 5d       	subi	r28, 0xDC	; 220
    24ca:	d2 40       	sbci	r29, 0x02	; 2
    24cc:	8f 93       	push	r24
    24ce:	c5 52       	subi	r28, 0x25	; 37
    24d0:	dd 4f       	sbci	r29, 0xFD	; 253
    24d2:	88 81       	ld	r24, Y
    24d4:	cb 5d       	subi	r28, 0xDB	; 219
    24d6:	d2 40       	sbci	r29, 0x02	; 2
    24d8:	8f 93       	push	r24
    24da:	c6 52       	subi	r28, 0x26	; 38
    24dc:	dd 4f       	sbci	r29, 0xFD	; 253
    24de:	88 81       	ld	r24, Y
    24e0:	ca 5d       	subi	r28, 0xDA	; 218
    24e2:	d2 40       	sbci	r29, 0x02	; 2
    24e4:	8f 93       	push	r24
    24e6:	c7 52       	subi	r28, 0x27	; 39
    24e8:	dd 4f       	sbci	r29, 0xFD	; 253
    24ea:	88 81       	ld	r24, Y
    24ec:	c9 5d       	subi	r28, 0xD9	; 217
    24ee:	d2 40       	sbci	r29, 0x02	; 2
    24f0:	8f 93       	push	r24
    24f2:	c8 52       	subi	r28, 0x28	; 40
    24f4:	dd 4f       	sbci	r29, 0xFD	; 253
    24f6:	88 81       	ld	r24, Y
    24f8:	c8 5d       	subi	r28, 0xD8	; 216
    24fa:	d2 40       	sbci	r29, 0x02	; 2
    24fc:	8f 93       	push	r24
    24fe:	c9 52       	subi	r28, 0x29	; 41
    2500:	dd 4f       	sbci	r29, 0xFD	; 253
    2502:	88 81       	ld	r24, Y
    2504:	c7 5d       	subi	r28, 0xD7	; 215
    2506:	d2 40       	sbci	r29, 0x02	; 2
    2508:	8f 93       	push	r24
    250a:	ca 52       	subi	r28, 0x2A	; 42
    250c:	dd 4f       	sbci	r29, 0xFD	; 253
    250e:	88 81       	ld	r24, Y
    2510:	c6 5d       	subi	r28, 0xD6	; 214
    2512:	d2 40       	sbci	r29, 0x02	; 2
    2514:	8f 93       	push	r24
    2516:	cb 52       	subi	r28, 0x2B	; 43
    2518:	dd 4f       	sbci	r29, 0xFD	; 253
    251a:	88 81       	ld	r24, Y
    251c:	c5 5d       	subi	r28, 0xD5	; 213
    251e:	d2 40       	sbci	r29, 0x02	; 2
    2520:	8f 93       	push	r24
    2522:	cc 52       	subi	r28, 0x2C	; 44
    2524:	dd 4f       	sbci	r29, 0xFD	; 253
    2526:	88 81       	ld	r24, Y
    2528:	c4 5d       	subi	r28, 0xD4	; 212
    252a:	d2 40       	sbci	r29, 0x02	; 2
    252c:	8f 93       	push	r24
    252e:	cd 52       	subi	r28, 0x2D	; 45
    2530:	dd 4f       	sbci	r29, 0xFD	; 253
    2532:	88 81       	ld	r24, Y
    2534:	c3 5d       	subi	r28, 0xD3	; 211
    2536:	d2 40       	sbci	r29, 0x02	; 2
    2538:	8f 93       	push	r24
    253a:	ce 01       	movw	r24, r28
    253c:	8e 5f       	subi	r24, 0xFE	; 254
    253e:	9d 4f       	sbci	r25, 0xFD	; 253
    2540:	9f 93       	push	r25
    2542:	8f 93       	push	r24
    2544:	1f 93       	push	r17
    2546:	0f 93       	push	r16
    2548:	0e 94 8d 23 	call	0x471a	; 0x471a <sprintf>
			writestr_OLED(1, outbuf, 2);
    254c:	cd bf       	out	0x3d, r28	; 61
    254e:	de bf       	out	0x3e, r29	; 62
    2550:	42 e0       	ldi	r20, 0x02	; 2
    2552:	b8 01       	movw	r22, r16
    2554:	81 e0       	ldi	r24, 0x01	; 1
    2556:	0e 94 b5 0b 	call	0x176a	; 0x176a <writestr_OLED>
			printError(ERR_BADOBJECT, "report: unknown object");
			return(ERROR);
			break;
	}

	return(NOERROR);
    255a:	80 e0       	ldi	r24, 0x00	; 0
			sprintf(outbuf, format_ORI, currenttime, x, y, z, pcmd[cstack].cid);
			printLine(outbuf);
			writestr_OLED(1, "Orientation", 1);
			sprintf(outbuf, dformat_ORI, x, y, z);
			writestr_OLED(1, outbuf, 2);
			break;
    255c:	70 c1       	rjmp	.+736    	; 0x283e <report+0xaf2>

		case 'p':
			get_time(currenttime);
    255e:	7e 01       	movw	r14, r28
    2560:	9b ee       	ldi	r25, 0xEB	; 235
    2562:	e9 1a       	sub	r14, r25
    2564:	9e ef       	ldi	r25, 0xFE	; 254
    2566:	f9 0a       	sbc	r15, r25
    2568:	c7 01       	movw	r24, r14
    256a:	0e 94 99 05 	call	0xb32	; 0xb32 <get_time>
			read_PNEUSensors(&shutter, &left, &right, &air);
    256e:	9e 01       	movw	r18, r28
    2570:	2c 5a       	subi	r18, 0xAC	; 172
    2572:	3e 4f       	sbci	r19, 0xFE	; 254
    2574:	ae 01       	movw	r20, r28
    2576:	4d 5a       	subi	r20, 0xAD	; 173
    2578:	5e 4f       	sbci	r21, 0xFE	; 254
    257a:	be 01       	movw	r22, r28
    257c:	6e 5a       	subi	r22, 0xAE	; 174
    257e:	7e 4f       	sbci	r23, 0xFE	; 254
    2580:	ce 01       	movw	r24, r28
    2582:	8f 5a       	subi	r24, 0xAF	; 175
    2584:	9e 4f       	sbci	r25, 0xFE	; 254
    2586:	0e 94 6d 0c 	call	0x18da	; 0x18da <read_PNEUSensors>
			sprintf(outbuf, format_PNU, currenttime, shutter, left, right, air, pcmd[cstack].cid);
    258a:	24 e3       	ldi	r18, 0x34	; 52
    258c:	20 9f       	mul	r18, r16
    258e:	c0 01       	movw	r24, r0
    2590:	21 9f       	mul	r18, r17
    2592:	90 0d       	add	r25, r0
    2594:	11 24       	eor	r1, r1
    2596:	8e 5c       	subi	r24, 0xCE	; 206
    2598:	97 4d       	sbci	r25, 0xD7	; 215
    259a:	9f 93       	push	r25
    259c:	8f 93       	push	r24
    259e:	cc 5a       	subi	r28, 0xAC	; 172
    25a0:	de 4f       	sbci	r29, 0xFE	; 254
    25a2:	88 81       	ld	r24, Y
    25a4:	c4 55       	subi	r28, 0x54	; 84
    25a6:	d1 40       	sbci	r29, 0x01	; 1
    25a8:	1f 92       	push	r1
    25aa:	8f 93       	push	r24
    25ac:	cd 5a       	subi	r28, 0xAD	; 173
    25ae:	de 4f       	sbci	r29, 0xFE	; 254
    25b0:	88 81       	ld	r24, Y
    25b2:	c3 55       	subi	r28, 0x53	; 83
    25b4:	d1 40       	sbci	r29, 0x01	; 1
    25b6:	1f 92       	push	r1
    25b8:	8f 93       	push	r24
    25ba:	ce 5a       	subi	r28, 0xAE	; 174
    25bc:	de 4f       	sbci	r29, 0xFE	; 254
    25be:	88 81       	ld	r24, Y
    25c0:	c2 55       	subi	r28, 0x52	; 82
    25c2:	d1 40       	sbci	r29, 0x01	; 1
    25c4:	1f 92       	push	r1
    25c6:	8f 93       	push	r24
    25c8:	cf 5a       	subi	r28, 0xAF	; 175
    25ca:	de 4f       	sbci	r29, 0xFE	; 254
    25cc:	88 81       	ld	r24, Y
    25ce:	c1 55       	subi	r28, 0x51	; 81
    25d0:	d1 40       	sbci	r29, 0x01	; 1
    25d2:	1f 92       	push	r1
    25d4:	8f 93       	push	r24
    25d6:	ff 92       	push	r15
    25d8:	ef 92       	push	r14
    25da:	ce 01       	movw	r24, r28
    25dc:	8c 5e       	subi	r24, 0xEC	; 236
    25de:	9d 4f       	sbci	r25, 0xFD	; 253
    25e0:	9f 93       	push	r25
    25e2:	8f 93       	push	r24
    25e4:	8e 01       	movw	r16, r28
    25e6:	0f 5f       	subi	r16, 0xFF	; 255
    25e8:	1f 4f       	sbci	r17, 0xFF	; 255
    25ea:	1f 93       	push	r17
    25ec:	0f 93       	push	r16
    25ee:	0e 94 8d 23 	call	0x471a	; 0x471a <sprintf>
			printLine(outbuf);
    25f2:	c8 01       	movw	r24, r16
    25f4:	0e 94 88 03 	call	0x710	; 0x710 <printLine>

			sprintf(outbuf, dformat_PN1, left, right);
    25f8:	cd 5a       	subi	r28, 0xAD	; 173
    25fa:	de 4f       	sbci	r29, 0xFE	; 254
    25fc:	88 81       	ld	r24, Y
    25fe:	c3 55       	subi	r28, 0x53	; 83
    2600:	d1 40       	sbci	r29, 0x01	; 1
    2602:	1f 92       	push	r1
    2604:	8f 93       	push	r24
    2606:	ce 5a       	subi	r28, 0xAE	; 174
    2608:	de 4f       	sbci	r29, 0xFE	; 254
    260a:	88 81       	ld	r24, Y
    260c:	c2 55       	subi	r28, 0x52	; 82
    260e:	d1 40       	sbci	r29, 0x01	; 1
    2610:	1f 92       	push	r1
    2612:	8f 93       	push	r24
    2614:	ce 01       	movw	r24, r28
    2616:	8f 5b       	subi	r24, 0xBF	; 191
    2618:	9d 4f       	sbci	r25, 0xFD	; 253
    261a:	9f 93       	push	r25
    261c:	8f 93       	push	r24
    261e:	1f 93       	push	r17
    2620:	0f 93       	push	r16
    2622:	0e 94 8d 23 	call	0x471a	; 0x471a <sprintf>
			writestr_OLED(1, outbuf, 1);
    2626:	41 e0       	ldi	r20, 0x01	; 1
    2628:	b8 01       	movw	r22, r16
    262a:	81 e0       	ldi	r24, 0x01	; 1
    262c:	0e 94 b5 0b 	call	0x176a	; 0x176a <writestr_OLED>
			sprintf(outbuf, dformat_PN2, shutter, air);
    2630:	cc 5a       	subi	r28, 0xAC	; 172
    2632:	de 4f       	sbci	r29, 0xFE	; 254
    2634:	88 81       	ld	r24, Y
    2636:	c4 55       	subi	r28, 0x54	; 84
    2638:	d1 40       	sbci	r29, 0x01	; 1
    263a:	1f 92       	push	r1
    263c:	8f 93       	push	r24
    263e:	cf 5a       	subi	r28, 0xAF	; 175
    2640:	de 4f       	sbci	r29, 0xFE	; 254
    2642:	88 81       	ld	r24, Y
    2644:	c1 55       	subi	r28, 0x51	; 81
    2646:	d1 40       	sbci	r29, 0x01	; 1
    2648:	1f 92       	push	r1
    264a:	8f 93       	push	r24
    264c:	ce 01       	movw	r24, r28
    264e:	8c 5a       	subi	r24, 0xAC	; 172
    2650:	9d 4f       	sbci	r25, 0xFD	; 253
    2652:	9f 93       	push	r25
    2654:	8f 93       	push	r24
    2656:	1f 93       	push	r17
    2658:	0f 93       	push	r16
    265a:	0e 94 8d 23 	call	0x471a	; 0x471a <sprintf>
			writestr_OLED(1, outbuf, 2);
    265e:	cd bf       	out	0x3d, r28	; 61
    2660:	de bf       	out	0x3e, r29	; 62
    2662:	42 e0       	ldi	r20, 0x02	; 2
    2664:	b8 01       	movw	r22, r16
    2666:	81 e0       	ldi	r24, 0x01	; 1
    2668:	0e 94 b5 0b 	call	0x176a	; 0x176a <writestr_OLED>
			printError(ERR_BADOBJECT, "report: unknown object");
			return(ERROR);
			break;
	}

	return(NOERROR);
    266c:	80 e0       	ldi	r24, 0x00	; 0

			sprintf(outbuf, dformat_PN1, left, right);
			writestr_OLED(1, outbuf, 1);
			sprintf(outbuf, dformat_PN2, shutter, air);
			writestr_OLED(1, outbuf, 2);
			break;
    266e:	e7 c0       	rjmp	.+462    	; 0x283e <report+0xaf2>

		case 't':					// Report current time on specMech clock
			get_time(currenttime);
    2670:	7e 01       	movw	r14, r28
    2672:	9b ee       	ldi	r25, 0xEB	; 235
    2674:	e9 1a       	sub	r14, r25
    2676:	9e ef       	ldi	r25, 0xFE	; 254
    2678:	f9 0a       	sbc	r15, r25
    267a:	c7 01       	movw	r24, r14
    267c:	0e 94 99 05 	call	0xb32	; 0xb32 <get_time>
			get_SETTIME(lastsettime);
    2680:	6e 01       	movw	r12, r28
    2682:	87 ed       	ldi	r24, 0xD7	; 215
    2684:	c8 1a       	sub	r12, r24
    2686:	8e ef       	ldi	r24, 0xFE	; 254
    2688:	d8 0a       	sbc	r13, r24
    268a:	c6 01       	movw	r24, r12
    268c:	0e 94 fe 06 	call	0xdfc	; 0xdfc <get_SETTIME>
//			read_FRAM(FRAMTWIADDR, SETTIMEADDR, (uint8_t*) lastsettime, 20);
			get_BOOTTIME(boottime);
    2690:	5e 01       	movw	r10, r28
    2692:	93 ec       	ldi	r25, 0xC3	; 195
    2694:	a9 1a       	sub	r10, r25
    2696:	9e ef       	ldi	r25, 0xFE	; 254
    2698:	b9 0a       	sbc	r11, r25
    269a:	c5 01       	movw	r24, r10
    269c:	0e 94 2b 06 	call	0xc56	; 0xc56 <get_BOOTTIME>
			sprintf(outbuf, format_TIM, currenttime, lastsettime,
				boottime, pcmd[cstack].cid);
    26a0:	24 e3       	ldi	r18, 0x34	; 52
    26a2:	20 9f       	mul	r18, r16
    26a4:	c0 01       	movw	r24, r0
    26a6:	21 9f       	mul	r18, r17
    26a8:	90 0d       	add	r25, r0
    26aa:	11 24       	eor	r1, r1
    26ac:	8e 5c       	subi	r24, 0xCE	; 206
    26ae:	97 4d       	sbci	r25, 0xD7	; 215
		case 't':					// Report current time on specMech clock
			get_time(currenttime);
			get_SETTIME(lastsettime);
//			read_FRAM(FRAMTWIADDR, SETTIMEADDR, (uint8_t*) lastsettime, 20);
			get_BOOTTIME(boottime);
			sprintf(outbuf, format_TIM, currenttime, lastsettime,
    26b0:	9f 93       	push	r25
    26b2:	8f 93       	push	r24
    26b4:	bf 92       	push	r11
    26b6:	af 92       	push	r10
    26b8:	df 92       	push	r13
    26ba:	cf 92       	push	r12
    26bc:	ff 92       	push	r15
    26be:	ef 92       	push	r14
    26c0:	ce 01       	movw	r24, r28
    26c2:	89 59       	subi	r24, 0x99	; 153
    26c4:	9d 4f       	sbci	r25, 0xFD	; 253
    26c6:	9f 93       	push	r25
    26c8:	8f 93       	push	r24
    26ca:	8e 01       	movw	r16, r28
    26cc:	0f 5f       	subi	r16, 0xFF	; 255
    26ce:	1f 4f       	sbci	r17, 0xFF	; 255
    26d0:	1f 93       	push	r17
    26d2:	0f 93       	push	r16
    26d4:	0e 94 8d 23 	call	0x471a	; 0x471a <sprintf>
				boottime, pcmd[cstack].cid);
			printLine(outbuf);
    26d8:	c8 01       	movw	r24, r16
    26da:	0e 94 88 03 	call	0x710	; 0x710 <printLine>
			writestr_OLED(1, "Time", 1);
    26de:	41 e0       	ldi	r20, 0x01	; 1
    26e0:	69 e2       	ldi	r22, 0x29	; 41
    26e2:	7a e8       	ldi	r23, 0x8A	; 138
    26e4:	81 e0       	ldi	r24, 0x01	; 1
    26e6:	0e 94 b5 0b 	call	0x176a	; 0x176a <writestr_OLED>
			writestr_OLED(1, &currenttime[11], 2);			
    26ea:	b7 01       	movw	r22, r14
    26ec:	65 5f       	subi	r22, 0xF5	; 245
    26ee:	7f 4f       	sbci	r23, 0xFF	; 255
    26f0:	42 e0       	ldi	r20, 0x02	; 2
    26f2:	81 e0       	ldi	r24, 0x01	; 1
    26f4:	0e 94 b5 0b 	call	0x176a	; 0x176a <writestr_OLED>
			break;
    26f8:	cd bf       	out	0x3d, r28	; 61
    26fa:	de bf       	out	0x3e, r29	; 62
			printError(ERR_BADOBJECT, "report: unknown object");
			return(ERROR);
			break;
	}

	return(NOERROR);
    26fc:	80 e0       	ldi	r24, 0x00	; 0
			sprintf(outbuf, format_TIM, currenttime, lastsettime,
				boottime, pcmd[cstack].cid);
			printLine(outbuf);
			writestr_OLED(1, "Time", 1);
			writestr_OLED(1, &currenttime[11], 2);			
			break;
    26fe:	9f c0       	rjmp	.+318    	; 0x283e <report+0xaf2>

		case 'v':
			redvac = read_ionpump(REDPUMP);
    2700:	81 e0       	ldi	r24, 0x01	; 1
    2702:	0e 94 2b 08 	call	0x1056	; 0x1056 <read_ionpump>
    2706:	d6 2e       	mov	r13, r22
    2708:	c7 2e       	mov	r12, r23
    270a:	b8 2e       	mov	r11, r24
    270c:	a9 2e       	mov	r10, r25
			bluvac = read_ionpump(BLUEPUMP);
    270e:	82 e0       	ldi	r24, 0x02	; 2
    2710:	0e 94 2b 08 	call	0x1056	; 0x1056 <read_ionpump>
    2714:	96 2e       	mov	r9, r22
    2716:	87 2e       	mov	r8, r23
    2718:	78 2e       	mov	r7, r24
    271a:	69 2e       	mov	r6, r25
			get_time(currenttime);
    271c:	7e 01       	movw	r14, r28
    271e:	9b ee       	ldi	r25, 0xEB	; 235
    2720:	e9 1a       	sub	r14, r25
    2722:	9e ef       	ldi	r25, 0xFE	; 254
    2724:	f9 0a       	sbc	r15, r25
    2726:	c7 01       	movw	r24, r14
    2728:	0e 94 99 05 	call	0xb32	; 0xb32 <get_time>
			sprintf(outbuf, format_VAC, currenttime, redvac, bluvac, pcmd[cstack].cid);
    272c:	24 e3       	ldi	r18, 0x34	; 52
    272e:	20 9f       	mul	r18, r16
    2730:	c0 01       	movw	r24, r0
    2732:	21 9f       	mul	r18, r17
    2734:	90 0d       	add	r25, r0
    2736:	11 24       	eor	r1, r1
    2738:	8e 5c       	subi	r24, 0xCE	; 206
    273a:	97 4d       	sbci	r25, 0xD7	; 215
    273c:	9f 93       	push	r25
    273e:	8f 93       	push	r24
    2740:	6f 92       	push	r6
    2742:	7f 92       	push	r7
    2744:	8f 92       	push	r8
    2746:	9f 92       	push	r9
    2748:	af 92       	push	r10
    274a:	bf 92       	push	r11
    274c:	cf 92       	push	r12
    274e:	df 92       	push	r13
    2750:	ff 92       	push	r15
    2752:	ef 92       	push	r14
    2754:	ce 01       	movw	r24, r28
    2756:	80 58       	subi	r24, 0x80	; 128
    2758:	9d 4f       	sbci	r25, 0xFD	; 253
    275a:	9f 93       	push	r25
    275c:	8f 93       	push	r24
    275e:	8e 01       	movw	r16, r28
    2760:	0f 5f       	subi	r16, 0xFF	; 255
    2762:	1f 4f       	sbci	r17, 0xFF	; 255
    2764:	1f 93       	push	r17
    2766:	0f 93       	push	r16
    2768:	0e 94 8d 23 	call	0x471a	; 0x471a <sprintf>
			printLine(outbuf);
    276c:	c8 01       	movw	r24, r16
    276e:	0e 94 88 03 	call	0x710	; 0x710 <printLine>

			writestr_OLED(1, "RedVac  BlueVac", 1);
    2772:	41 e0       	ldi	r20, 0x01	; 1
    2774:	6e e2       	ldi	r22, 0x2E	; 46
    2776:	7a e8       	ldi	r23, 0x8A	; 138
    2778:	81 e0       	ldi	r24, 0x01	; 1
    277a:	0e 94 b5 0b 	call	0x176a	; 0x176a <writestr_OLED>
			sprintf(outbuf, dformat_VAC, redvac, bluvac);
    277e:	6f 92       	push	r6
    2780:	7f 92       	push	r7
    2782:	8f 92       	push	r8
    2784:	9f 92       	push	r9
    2786:	af 92       	push	r10
    2788:	bf 92       	push	r11
    278a:	cf 92       	push	r12
    278c:	df 92       	push	r13
    278e:	ce 01       	movw	r24, r28
    2790:	8b 55       	subi	r24, 0x5B	; 91
    2792:	9d 4f       	sbci	r25, 0xFD	; 253
    2794:	9f 93       	push	r25
    2796:	8f 93       	push	r24
    2798:	1f 93       	push	r17
    279a:	0f 93       	push	r16
    279c:	0e 94 8d 23 	call	0x471a	; 0x471a <sprintf>
			writestr_OLED(1, outbuf, 2);
    27a0:	42 e0       	ldi	r20, 0x02	; 2
    27a2:	b8 01       	movw	r22, r16
    27a4:	81 e0       	ldi	r24, 0x01	; 1
    27a6:	0e 94 b5 0b 	call	0x176a	; 0x176a <writestr_OLED>
			break;
    27aa:	cd bf       	out	0x3d, r28	; 61
    27ac:	de bf       	out	0x3e, r29	; 62
			printError(ERR_BADOBJECT, "report: unknown object");
			return(ERROR);
			break;
	}

	return(NOERROR);
    27ae:	80 e0       	ldi	r24, 0x00	; 0
			printLine(outbuf);

			writestr_OLED(1, "RedVac  BlueVac", 1);
			sprintf(outbuf, dformat_VAC, redvac, bluvac);
			writestr_OLED(1, outbuf, 2);
			break;
    27b0:	46 c0       	rjmp	.+140    	; 0x283e <report+0xaf2>

		case 'V':
			get_VERSION(version);	// Send the specMech version
    27b2:	6e 01       	movw	r12, r28
    27b4:	96 ef       	ldi	r25, 0xF6	; 246
    27b6:	c9 1a       	sub	r12, r25
    27b8:	9e ef       	ldi	r25, 0xFE	; 254
    27ba:	d9 0a       	sbc	r13, r25
    27bc:	c6 01       	movw	r24, r12
    27be:	0e 94 32 06 	call	0xc64	; 0xc64 <get_VERSION>
			get_time(currenttime);
    27c2:	7e 01       	movw	r14, r28
    27c4:	8b ee       	ldi	r24, 0xEB	; 235
    27c6:	e8 1a       	sub	r14, r24
    27c8:	8e ef       	ldi	r24, 0xFE	; 254
    27ca:	f8 0a       	sbc	r15, r24
    27cc:	c7 01       	movw	r24, r14
    27ce:	0e 94 99 05 	call	0xb32	; 0xb32 <get_time>
			sprintf(outbuf, format_VER, currenttime, version, pcmd[cstack].cid);
    27d2:	24 e3       	ldi	r18, 0x34	; 52
    27d4:	20 9f       	mul	r18, r16
    27d6:	c0 01       	movw	r24, r0
    27d8:	21 9f       	mul	r18, r17
    27da:	90 0d       	add	r25, r0
    27dc:	11 24       	eor	r1, r1
    27de:	8e 5c       	subi	r24, 0xCE	; 206
    27e0:	97 4d       	sbci	r25, 0xD7	; 215
    27e2:	9f 93       	push	r25
    27e4:	8f 93       	push	r24
    27e6:	df 92       	push	r13
    27e8:	cf 92       	push	r12
    27ea:	ff 92       	push	r15
    27ec:	ef 92       	push	r14
    27ee:	ce 01       	movw	r24, r28
    27f0:	8e 54       	subi	r24, 0x4E	; 78
    27f2:	9d 4f       	sbci	r25, 0xFD	; 253
    27f4:	9f 93       	push	r25
    27f6:	8f 93       	push	r24
    27f8:	8e 01       	movw	r16, r28
    27fa:	0f 5f       	subi	r16, 0xFF	; 255
    27fc:	1f 4f       	sbci	r17, 0xFF	; 255
    27fe:	1f 93       	push	r17
    2800:	0f 93       	push	r16
    2802:	0e 94 8d 23 	call	0x471a	; 0x471a <sprintf>
			printLine(outbuf);
    2806:	c8 01       	movw	r24, r16
    2808:	0e 94 88 03 	call	0x710	; 0x710 <printLine>
			writestr_OLED(1, "specMech Version", 1);
    280c:	41 e0       	ldi	r20, 0x01	; 1
    280e:	69 e3       	ldi	r22, 0x39	; 57
    2810:	79 e8       	ldi	r23, 0x89	; 137
    2812:	81 e0       	ldi	r24, 0x01	; 1
    2814:	0e 94 b5 0b 	call	0x176a	; 0x176a <writestr_OLED>
			get_VERSION(outbuf);
    2818:	c8 01       	movw	r24, r16
    281a:	0e 94 32 06 	call	0xc64	; 0xc64 <get_VERSION>
			writestr_OLED(1, outbuf, 2);
    281e:	42 e0       	ldi	r20, 0x02	; 2
    2820:	b8 01       	movw	r22, r16
    2822:	81 e0       	ldi	r24, 0x01	; 1
    2824:	0e 94 b5 0b 	call	0x176a	; 0x176a <writestr_OLED>
			break;
    2828:	cd bf       	out	0x3d, r28	; 61
    282a:	de bf       	out	0x3e, r29	; 62
			printError(ERR_BADOBJECT, "report: unknown object");
			return(ERROR);
			break;
	}

	return(NOERROR);
    282c:	80 e0       	ldi	r24, 0x00	; 0
			sprintf(outbuf, format_VER, currenttime, version, pcmd[cstack].cid);
			printLine(outbuf);
			writestr_OLED(1, "specMech Version", 1);
			get_VERSION(outbuf);
			writestr_OLED(1, outbuf, 2);
			break;
    282e:	07 c0       	rjmp	.+14     	; 0x283e <report+0xaf2>

		default:
			printError(ERR_BADOBJECT, "report: unknown object");
    2830:	6e e3       	ldi	r22, 0x3E	; 62
    2832:	7a e8       	ldi	r23, 0x8A	; 138
    2834:	8a ec       	ldi	r24, 0xCA	; 202
    2836:	90 e0       	ldi	r25, 0x00	; 0
    2838:	0e 94 75 06 	call	0xcea	; 0xcea <printError>
			return(ERROR);
    283c:	83 e6       	ldi	r24, 0x63	; 99
			break;
	}

	return(NOERROR);

}
    283e:	c6 51       	subi	r28, 0x16	; 22
    2840:	dd 4f       	sbci	r29, 0xFD	; 253
    2842:	cd bf       	out	0x3d, r28	; 61
    2844:	de bf       	out	0x3e, r29	; 62
    2846:	df 91       	pop	r29
    2848:	cf 91       	pop	r28
    284a:	1f 91       	pop	r17
    284c:	0f 91       	pop	r16
    284e:	ff 90       	pop	r15
    2850:	ef 90       	pop	r14
    2852:	df 90       	pop	r13
    2854:	cf 90       	pop	r12
    2856:	bf 90       	pop	r11
    2858:	af 90       	pop	r10
    285a:	9f 90       	pop	r9
    285c:	8f 90       	pop	r8
    285e:	7f 90       	pop	r7
    2860:	6f 90       	pop	r6
    2862:	5f 90       	pop	r5
    2864:	4f 90       	pop	r4
    2866:	3f 90       	pop	r3
    2868:	2f 90       	pop	r2
    286a:	08 95       	ret

0000286c <crc16>:
	tbuf[1] = (encoderValue >> 16) & 0xFF;
	tbuf[2] = (encoderValue >> 8) & 0xFF;
	tbuf[3] = encoderValue & 0xFF;
	return(write_FRAM(FRAMTWIADDR, memaddr, tbuf, 4));

}
    286c:	dc 01       	movw	r26, r24
    286e:	40 e0       	ldi	r20, 0x00	; 0
    2870:	50 e0       	ldi	r21, 0x00	; 0
    2872:	80 e0       	ldi	r24, 0x00	; 0
    2874:	90 e0       	ldi	r25, 0x00	; 0
    2876:	1b c0       	rjmp	.+54     	; 0x28ae <crc16+0x42>
    2878:	fd 01       	movw	r30, r26
    287a:	e4 0f       	add	r30, r20
    287c:	f5 1f       	adc	r31, r21
    287e:	20 81       	ld	r18, Z
    2880:	30 e0       	ldi	r19, 0x00	; 0
    2882:	32 2f       	mov	r19, r18
    2884:	22 27       	eor	r18, r18
    2886:	82 27       	eor	r24, r18
    2888:	93 27       	eor	r25, r19
    288a:	20 e0       	ldi	r18, 0x00	; 0
    288c:	0c c0       	rjmp	.+24     	; 0x28a6 <crc16+0x3a>
    288e:	99 23       	and	r25, r25
    2890:	3c f4       	brge	.+14     	; 0x28a0 <crc16+0x34>
    2892:	88 0f       	add	r24, r24
    2894:	99 1f       	adc	r25, r25
    2896:	31 e2       	ldi	r19, 0x21	; 33
    2898:	83 27       	eor	r24, r19
    289a:	30 e1       	ldi	r19, 0x10	; 16
    289c:	93 27       	eor	r25, r19
    289e:	02 c0       	rjmp	.+4      	; 0x28a4 <crc16+0x38>
    28a0:	88 0f       	add	r24, r24
    28a2:	99 1f       	adc	r25, r25
    28a4:	2f 5f       	subi	r18, 0xFF	; 255
    28a6:	28 30       	cpi	r18, 0x08	; 8
    28a8:	90 f3       	brcs	.-28     	; 0x288e <crc16+0x22>
    28aa:	4f 5f       	subi	r20, 0xFF	; 255
    28ac:	5f 4f       	sbci	r21, 0xFF	; 255
    28ae:	46 17       	cp	r20, r22
    28b0:	57 07       	cpc	r21, r23
    28b2:	10 f3       	brcs	.-60     	; 0x2878 <crc16+0xc>
    28b4:	08 95       	ret

000028b6 <get_MOTOREncoder>:
    28b6:	ef 92       	push	r14
    28b8:	ff 92       	push	r15
    28ba:	0f 93       	push	r16
    28bc:	1f 93       	push	r17
    28be:	cf 93       	push	r28
    28c0:	df 93       	push	r29
    28c2:	cd b7       	in	r28, 0x3d	; 61
    28c4:	de b7       	in	r29, 0x3e	; 62
    28c6:	27 97       	sbiw	r28, 0x07	; 7
    28c8:	cd bf       	out	0x3d, r28	; 61
    28ca:	de bf       	out	0x3e, r29	; 62
    28cc:	8a 01       	movw	r16, r20
    28ce:	97 e0       	ldi	r25, 0x07	; 7
    28d0:	90 93 18 2b 	sts	0x2B18, r25	; 0x802b18 <recv1_buf+0x101>
    28d4:	10 92 1a 2b 	sts	0x2B1A, r1	; 0x802b1a <recv1_buf+0x103>
    28d8:	10 92 1b 2b 	sts	0x2B1B, r1	; 0x802b1b <recv1_buf+0x104>
    28dc:	89 83       	std	Y+1, r24	; 0x01
    28de:	6a 83       	std	Y+2, r22	; 0x02
    28e0:	42 e0       	ldi	r20, 0x02	; 2
    28e2:	be 01       	movw	r22, r28
    28e4:	6f 5f       	subi	r22, 0xFF	; 255
    28e6:	7f 4f       	sbci	r23, 0xFF	; 255
    28e8:	81 e0       	ldi	r24, 0x01	; 1
    28ea:	0e 94 b6 19 	call	0x336c	; 0x336c <send_USART>
    28ee:	81 e0       	ldi	r24, 0x01	; 1
    28f0:	90 e0       	ldi	r25, 0x00	; 0
    28f2:	0e 94 97 18 	call	0x312e	; 0x312e <start_TCB0>
    28f6:	11 c0       	rjmp	.+34     	; 0x291a <get_MOTOREncoder+0x64>
    28f8:	00 00       	nop
    28fa:	80 91 15 2a 	lds	r24, 0x2A15	; 0x802a15 <ticks>
    28fe:	90 91 16 2a 	lds	r25, 0x2A16	; 0x802a16 <ticks+0x1>
    2902:	c3 97       	sbiw	r24, 0x33	; 51
    2904:	50 f0       	brcs	.+20     	; 0x291a <get_MOTOREncoder+0x64>
    2906:	0e 94 ad 18 	call	0x315a	; 0x315a <stop_TCB0>
    290a:	6f eb       	ldi	r22, 0xBF	; 191
    290c:	7b e8       	ldi	r23, 0x8B	; 139
    290e:	80 e3       	ldi	r24, 0x30	; 48
    2910:	91 e0       	ldi	r25, 0x01	; 1
    2912:	0e 94 75 06 	call	0xcea	; 0xcea <printError>
    2916:	83 e6       	ldi	r24, 0x63	; 99
    2918:	74 c0       	rjmp	.+232    	; 0x2a02 <get_MOTOREncoder+0x14c>
    291a:	80 91 1b 2b 	lds	r24, 0x2B1B	; 0x802b1b <recv1_buf+0x104>
    291e:	88 23       	and	r24, r24
    2920:	59 f3       	breq	.-42     	; 0x28f8 <get_MOTOREncoder+0x42>
    2922:	0e 94 ad 18 	call	0x315a	; 0x315a <stop_TCB0>
    2926:	e7 e1       	ldi	r30, 0x17	; 23
    2928:	fa e2       	ldi	r31, 0x2A	; 42
    292a:	e5 80       	ldd	r14, Z+5	; 0x05
    292c:	f1 2c       	mov	r15, r1
    292e:	fe 2c       	mov	r15, r14
    2930:	ee 24       	eor	r14, r14
    2932:	86 81       	ldd	r24, Z+6	; 0x06
    2934:	e8 2a       	or	r14, r24
    2936:	22 e0       	ldi	r18, 0x02	; 2
    2938:	0e c0       	rjmp	.+28     	; 0x2956 <get_MOTOREncoder+0xa0>
    293a:	82 2f       	mov	r24, r18
    293c:	90 e0       	ldi	r25, 0x00	; 0
    293e:	fc 01       	movw	r30, r24
    2940:	eb 5e       	subi	r30, 0xEB	; 235
    2942:	f5 4d       	sbci	r31, 0xD5	; 213
    2944:	30 81       	ld	r19, Z
    2946:	e1 e0       	ldi	r30, 0x01	; 1
    2948:	f0 e0       	ldi	r31, 0x00	; 0
    294a:	ec 0f       	add	r30, r28
    294c:	fd 1f       	adc	r31, r29
    294e:	e8 0f       	add	r30, r24
    2950:	f9 1f       	adc	r31, r25
    2952:	30 83       	st	Z, r19
    2954:	2f 5f       	subi	r18, 0xFF	; 255
    2956:	27 30       	cpi	r18, 0x07	; 7
    2958:	80 f3       	brcs	.-32     	; 0x293a <get_MOTOREncoder+0x84>
    295a:	67 e0       	ldi	r22, 0x07	; 7
    295c:	70 e0       	ldi	r23, 0x00	; 0
    295e:	ce 01       	movw	r24, r28
    2960:	01 96       	adiw	r24, 0x01	; 1
    2962:	0e 94 36 14 	call	0x286c	; 0x286c <crc16>
    2966:	e8 16       	cp	r14, r24
    2968:	f9 06       	cpc	r15, r25
    296a:	71 f0       	breq	.+28     	; 0x2988 <get_MOTOREncoder+0xd2>
    296c:	d8 01       	movw	r26, r16
    296e:	1d 92       	st	X+, r1
    2970:	1d 92       	st	X+, r1
    2972:	1d 92       	st	X+, r1
    2974:	1c 92       	st	X, r1
    2976:	13 97       	sbiw	r26, 0x03	; 3
    2978:	68 ed       	ldi	r22, 0xD8	; 216
    297a:	7b e8       	ldi	r23, 0x8B	; 139
    297c:	81 e3       	ldi	r24, 0x31	; 49
    297e:	91 e0       	ldi	r25, 0x01	; 1
    2980:	0e 94 75 06 	call	0xcea	; 0xcea <printError>
    2984:	83 e6       	ldi	r24, 0x63	; 99
    2986:	3d c0       	rjmp	.+122    	; 0x2a02 <get_MOTOREncoder+0x14c>
    2988:	27 e1       	ldi	r18, 0x17	; 23
    298a:	3a e2       	ldi	r19, 0x2A	; 42
    298c:	f9 01       	movw	r30, r18
    298e:	80 81       	ld	r24, Z
    2990:	90 e0       	ldi	r25, 0x00	; 0
    2992:	a0 e0       	ldi	r26, 0x00	; 0
    2994:	b0 e0       	ldi	r27, 0x00	; 0
    2996:	78 2f       	mov	r23, r24
    2998:	66 27       	eor	r22, r22
    299a:	55 27       	eor	r21, r21
    299c:	44 27       	eor	r20, r20
    299e:	d8 01       	movw	r26, r16
    29a0:	4d 93       	st	X+, r20
    29a2:	5d 93       	st	X+, r21
    29a4:	6d 93       	st	X+, r22
    29a6:	7c 93       	st	X, r23
    29a8:	13 97       	sbiw	r26, 0x03	; 3
    29aa:	91 81       	ldd	r25, Z+1	; 0x01
    29ac:	89 2f       	mov	r24, r25
    29ae:	90 e0       	ldi	r25, 0x00	; 0
    29b0:	a0 e0       	ldi	r26, 0x00	; 0
    29b2:	b0 e0       	ldi	r27, 0x00	; 0
    29b4:	dc 01       	movw	r26, r24
    29b6:	99 27       	eor	r25, r25
    29b8:	88 27       	eor	r24, r24
    29ba:	84 2b       	or	r24, r20
    29bc:	95 2b       	or	r25, r21
    29be:	a6 2b       	or	r26, r22
    29c0:	b7 2b       	or	r27, r23
    29c2:	f8 01       	movw	r30, r16
    29c4:	80 83       	st	Z, r24
    29c6:	91 83       	std	Z+1, r25	; 0x01
    29c8:	a2 83       	std	Z+2, r26	; 0x02
    29ca:	b3 83       	std	Z+3, r27	; 0x03
    29cc:	f9 01       	movw	r30, r18
    29ce:	42 81       	ldd	r20, Z+2	; 0x02
    29d0:	50 e0       	ldi	r21, 0x00	; 0
    29d2:	60 e0       	ldi	r22, 0x00	; 0
    29d4:	70 e0       	ldi	r23, 0x00	; 0
    29d6:	76 2f       	mov	r23, r22
    29d8:	65 2f       	mov	r22, r21
    29da:	54 2f       	mov	r21, r20
    29dc:	44 27       	eor	r20, r20
    29de:	84 2b       	or	r24, r20
    29e0:	95 2b       	or	r25, r21
    29e2:	a6 2b       	or	r26, r22
    29e4:	b7 2b       	or	r27, r23
    29e6:	f8 01       	movw	r30, r16
    29e8:	80 83       	st	Z, r24
    29ea:	91 83       	std	Z+1, r25	; 0x01
    29ec:	a2 83       	std	Z+2, r26	; 0x02
    29ee:	b3 83       	std	Z+3, r27	; 0x03
    29f0:	f9 01       	movw	r30, r18
    29f2:	23 81       	ldd	r18, Z+3	; 0x03
    29f4:	82 2b       	or	r24, r18
    29f6:	f8 01       	movw	r30, r16
    29f8:	80 83       	st	Z, r24
    29fa:	91 83       	std	Z+1, r25	; 0x01
    29fc:	a2 83       	std	Z+2, r26	; 0x02
    29fe:	b3 83       	std	Z+3, r27	; 0x03
    2a00:	80 e0       	ldi	r24, 0x00	; 0
    2a02:	27 96       	adiw	r28, 0x07	; 7
    2a04:	cd bf       	out	0x3d, r28	; 61
    2a06:	de bf       	out	0x3e, r29	; 62
    2a08:	df 91       	pop	r29
    2a0a:	cf 91       	pop	r28
    2a0c:	1f 91       	pop	r17
    2a0e:	0f 91       	pop	r16
    2a10:	ff 90       	pop	r15
    2a12:	ef 90       	pop	r14
    2a14:	08 95       	ret

00002a16 <get_MOTORFloat>:
    2a16:	af 92       	push	r10
    2a18:	bf 92       	push	r11
    2a1a:	cf 92       	push	r12
    2a1c:	df 92       	push	r13
    2a1e:	ef 92       	push	r14
    2a20:	ff 92       	push	r15
    2a22:	0f 93       	push	r16
    2a24:	1f 93       	push	r17
    2a26:	cf 93       	push	r28
    2a28:	df 93       	push	r29
    2a2a:	00 d0       	rcall	.+0      	; 0x2a2c <get_MOTORFloat+0x16>
    2a2c:	00 d0       	rcall	.+0      	; 0x2a2e <get_MOTORFloat+0x18>
    2a2e:	cd b7       	in	r28, 0x3d	; 61
    2a30:	de b7       	in	r29, 0x3e	; 62
    2a32:	a8 2e       	mov	r10, r24
    2a34:	b6 2e       	mov	r11, r22
    2a36:	7a 01       	movw	r14, r20
    2a38:	84 e0       	ldi	r24, 0x04	; 4
    2a3a:	80 93 18 2b 	sts	0x2B18, r24	; 0x802b18 <recv1_buf+0x101>
    2a3e:	10 92 1a 2b 	sts	0x2B1A, r1	; 0x802b1a <recv1_buf+0x103>
    2a42:	10 92 1b 2b 	sts	0x2B1B, r1	; 0x802b1b <recv1_buf+0x104>
    2a46:	a9 82       	std	Y+1, r10	; 0x01
    2a48:	6a 83       	std	Y+2, r22	; 0x02
    2a4a:	42 e0       	ldi	r20, 0x02	; 2
    2a4c:	be 01       	movw	r22, r28
    2a4e:	6f 5f       	subi	r22, 0xFF	; 255
    2a50:	7f 4f       	sbci	r23, 0xFF	; 255
    2a52:	81 e0       	ldi	r24, 0x01	; 1
    2a54:	0e 94 b6 19 	call	0x336c	; 0x336c <send_USART>
    2a58:	81 e0       	ldi	r24, 0x01	; 1
    2a5a:	90 e0       	ldi	r25, 0x00	; 0
    2a5c:	0e 94 97 18 	call	0x312e	; 0x312e <start_TCB0>
    2a60:	80 91 1b 2b 	lds	r24, 0x2B1B	; 0x802b1b <recv1_buf+0x104>
    2a64:	81 30       	cpi	r24, 0x01	; 1
    2a66:	81 f0       	breq	.+32     	; 0x2a88 <get_MOTORFloat+0x72>
    2a68:	80 91 15 2a 	lds	r24, 0x2A15	; 0x802a15 <ticks>
    2a6c:	90 91 16 2a 	lds	r25, 0x2A16	; 0x802a16 <ticks+0x1>
    2a70:	c3 97       	sbiw	r24, 0x33	; 51
    2a72:	b0 f3       	brcs	.-20     	; 0x2a60 <get_MOTORFloat+0x4a>
    2a74:	0e 94 ad 18 	call	0x315a	; 0x315a <stop_TCB0>
    2a78:	6d ee       	ldi	r22, 0xED	; 237
    2a7a:	7b e8       	ldi	r23, 0x8B	; 139
    2a7c:	80 e3       	ldi	r24, 0x30	; 48
    2a7e:	91 e0       	ldi	r25, 0x01	; 1
    2a80:	0e 94 75 06 	call	0xcea	; 0xcea <printError>
    2a84:	83 e6       	ldi	r24, 0x63	; 99
    2a86:	37 c0       	rjmp	.+110    	; 0x2af6 <get_MOTORFloat+0xe0>
    2a88:	0e 94 ad 18 	call	0x315a	; 0x315a <stop_TCB0>
    2a8c:	e7 e1       	ldi	r30, 0x17	; 23
    2a8e:	fa e2       	ldi	r31, 0x2A	; 42
    2a90:	90 81       	ld	r25, Z
    2a92:	c9 2e       	mov	r12, r25
    2a94:	d1 2c       	mov	r13, r1
    2a96:	dc 2c       	mov	r13, r12
    2a98:	cc 24       	eor	r12, r12
    2a9a:	81 81       	ldd	r24, Z+1	; 0x01
    2a9c:	c8 2a       	or	r12, r24
    2a9e:	02 81       	ldd	r16, Z+2	; 0x02
    2aa0:	10 e0       	ldi	r17, 0x00	; 0
    2aa2:	10 2f       	mov	r17, r16
    2aa4:	00 27       	eor	r16, r16
    2aa6:	23 81       	ldd	r18, Z+3	; 0x03
    2aa8:	02 2b       	or	r16, r18
    2aaa:	a9 82       	std	Y+1, r10	; 0x01
    2aac:	ba 82       	std	Y+2, r11	; 0x02
    2aae:	9b 83       	std	Y+3, r25	; 0x03
    2ab0:	8c 83       	std	Y+4, r24	; 0x04
    2ab2:	64 e0       	ldi	r22, 0x04	; 4
    2ab4:	70 e0       	ldi	r23, 0x00	; 0
    2ab6:	ce 01       	movw	r24, r28
    2ab8:	01 96       	adiw	r24, 0x01	; 1
    2aba:	0e 94 36 14 	call	0x286c	; 0x286c <crc16>
    2abe:	08 17       	cp	r16, r24
    2ac0:	19 07       	cpc	r17, r25
    2ac2:	41 f0       	breq	.+16     	; 0x2ad4 <get_MOTORFloat+0xbe>
    2ac4:	6f ef       	ldi	r22, 0xFF	; 255
    2ac6:	7b e8       	ldi	r23, 0x8B	; 139
    2ac8:	81 e3       	ldi	r24, 0x31	; 49
    2aca:	91 e0       	ldi	r25, 0x01	; 1
    2acc:	0e 94 75 06 	call	0xcea	; 0xcea <printError>
    2ad0:	83 e6       	ldi	r24, 0x63	; 99
    2ad2:	11 c0       	rjmp	.+34     	; 0x2af6 <get_MOTORFloat+0xe0>
    2ad4:	b6 01       	movw	r22, r12
    2ad6:	80 e0       	ldi	r24, 0x00	; 0
    2ad8:	90 e0       	ldi	r25, 0x00	; 0
    2ada:	0e 94 ba 1c 	call	0x3974	; 0x3974 <__floatunsisf>
    2ade:	20 e0       	ldi	r18, 0x00	; 0
    2ae0:	30 e0       	ldi	r19, 0x00	; 0
    2ae2:	40 e2       	ldi	r20, 0x20	; 32
    2ae4:	51 e4       	ldi	r21, 0x41	; 65
    2ae6:	0e 94 48 1c 	call	0x3890	; 0x3890 <__divsf3>
    2aea:	f7 01       	movw	r30, r14
    2aec:	60 83       	st	Z, r22
    2aee:	71 83       	std	Z+1, r23	; 0x01
    2af0:	82 83       	std	Z+2, r24	; 0x02
    2af2:	93 83       	std	Z+3, r25	; 0x03
    2af4:	80 e0       	ldi	r24, 0x00	; 0
    2af6:	24 96       	adiw	r28, 0x04	; 4
    2af8:	cd bf       	out	0x3d, r28	; 61
    2afa:	de bf       	out	0x3e, r29	; 62
    2afc:	df 91       	pop	r29
    2afe:	cf 91       	pop	r28
    2b00:	1f 91       	pop	r17
    2b02:	0f 91       	pop	r16
    2b04:	ff 90       	pop	r15
    2b06:	ef 90       	pop	r14
    2b08:	df 90       	pop	r13
    2b0a:	cf 90       	pop	r12
    2b0c:	bf 90       	pop	r11
    2b0e:	af 90       	pop	r10
    2b10:	08 95       	ret

00002b12 <get_MOTORInt32>:
    2b12:	ef 92       	push	r14
    2b14:	ff 92       	push	r15
    2b16:	0f 93       	push	r16
    2b18:	1f 93       	push	r17
    2b1a:	cf 93       	push	r28
    2b1c:	df 93       	push	r29
    2b1e:	cd b7       	in	r28, 0x3d	; 61
    2b20:	de b7       	in	r29, 0x3e	; 62
    2b22:	26 97       	sbiw	r28, 0x06	; 6
    2b24:	cd bf       	out	0x3d, r28	; 61
    2b26:	de bf       	out	0x3e, r29	; 62
    2b28:	8a 01       	movw	r16, r20
    2b2a:	96 e0       	ldi	r25, 0x06	; 6
    2b2c:	90 93 18 2b 	sts	0x2B18, r25	; 0x802b18 <recv1_buf+0x101>
    2b30:	10 92 1a 2b 	sts	0x2B1A, r1	; 0x802b1a <recv1_buf+0x103>
    2b34:	10 92 1b 2b 	sts	0x2B1B, r1	; 0x802b1b <recv1_buf+0x104>
    2b38:	89 83       	std	Y+1, r24	; 0x01
    2b3a:	6a 83       	std	Y+2, r22	; 0x02
    2b3c:	42 e0       	ldi	r20, 0x02	; 2
    2b3e:	be 01       	movw	r22, r28
    2b40:	6f 5f       	subi	r22, 0xFF	; 255
    2b42:	7f 4f       	sbci	r23, 0xFF	; 255
    2b44:	81 e0       	ldi	r24, 0x01	; 1
    2b46:	0e 94 b6 19 	call	0x336c	; 0x336c <send_USART>
    2b4a:	81 e0       	ldi	r24, 0x01	; 1
    2b4c:	90 e0       	ldi	r25, 0x00	; 0
    2b4e:	0e 94 97 18 	call	0x312e	; 0x312e <start_TCB0>
    2b52:	80 91 1b 2b 	lds	r24, 0x2B1B	; 0x802b1b <recv1_buf+0x104>
    2b56:	81 30       	cpi	r24, 0x01	; 1
    2b58:	61 f4       	brne	.+24     	; 0x2b72 <get_MOTORInt32+0x60>
    2b5a:	0e 94 ad 18 	call	0x315a	; 0x315a <stop_TCB0>
    2b5e:	e7 e1       	ldi	r30, 0x17	; 23
    2b60:	fa e2       	ldi	r31, 0x2A	; 42
    2b62:	e4 80       	ldd	r14, Z+4	; 0x04
    2b64:	f1 2c       	mov	r15, r1
    2b66:	fe 2c       	mov	r15, r14
    2b68:	ee 24       	eor	r14, r14
    2b6a:	85 81       	ldd	r24, Z+5	; 0x05
    2b6c:	e8 2a       	or	r14, r24
    2b6e:	22 e0       	ldi	r18, 0x02	; 2
    2b70:	1e c0       	rjmp	.+60     	; 0x2bae <get_MOTORInt32+0x9c>
    2b72:	80 91 15 2a 	lds	r24, 0x2A15	; 0x802a15 <ticks>
    2b76:	90 91 16 2a 	lds	r25, 0x2A16	; 0x802a16 <ticks+0x1>
    2b7a:	c3 97       	sbiw	r24, 0x33	; 51
    2b7c:	50 f3       	brcs	.-44     	; 0x2b52 <get_MOTORInt32+0x40>
    2b7e:	0e 94 ad 18 	call	0x315a	; 0x315a <stop_TCB0>
    2b82:	62 e1       	ldi	r22, 0x12	; 18
    2b84:	7c e8       	ldi	r23, 0x8C	; 140
    2b86:	8f e2       	ldi	r24, 0x2F	; 47
    2b88:	91 e0       	ldi	r25, 0x01	; 1
    2b8a:	0e 94 75 06 	call	0xcea	; 0xcea <printError>
    2b8e:	83 e6       	ldi	r24, 0x63	; 99
    2b90:	54 c0       	rjmp	.+168    	; 0x2c3a <get_MOTORInt32+0x128>
    2b92:	82 2f       	mov	r24, r18
    2b94:	90 e0       	ldi	r25, 0x00	; 0
    2b96:	fc 01       	movw	r30, r24
    2b98:	eb 5e       	subi	r30, 0xEB	; 235
    2b9a:	f5 4d       	sbci	r31, 0xD5	; 213
    2b9c:	30 81       	ld	r19, Z
    2b9e:	e1 e0       	ldi	r30, 0x01	; 1
    2ba0:	f0 e0       	ldi	r31, 0x00	; 0
    2ba2:	ec 0f       	add	r30, r28
    2ba4:	fd 1f       	adc	r31, r29
    2ba6:	e8 0f       	add	r30, r24
    2ba8:	f9 1f       	adc	r31, r25
    2baa:	30 83       	st	Z, r19
    2bac:	2f 5f       	subi	r18, 0xFF	; 255
    2bae:	26 30       	cpi	r18, 0x06	; 6
    2bb0:	80 f3       	brcs	.-32     	; 0x2b92 <get_MOTORInt32+0x80>
    2bb2:	66 e0       	ldi	r22, 0x06	; 6
    2bb4:	70 e0       	ldi	r23, 0x00	; 0
    2bb6:	ce 01       	movw	r24, r28
    2bb8:	01 96       	adiw	r24, 0x01	; 1
    2bba:	0e 94 36 14 	call	0x286c	; 0x286c <crc16>
    2bbe:	e8 16       	cp	r14, r24
    2bc0:	f9 06       	cpc	r15, r25
    2bc2:	89 f0       	breq	.+34     	; 0x2be6 <get_MOTORInt32+0xd4>
    2bc4:	69 e2       	ldi	r22, 0x29	; 41
    2bc6:	7c e8       	ldi	r23, 0x8C	; 140
    2bc8:	81 e3       	ldi	r24, 0x31	; 49
    2bca:	91 e0       	ldi	r25, 0x01	; 1
    2bcc:	0e 94 75 06 	call	0xcea	; 0xcea <printError>
    2bd0:	8f ef       	ldi	r24, 0xFF	; 255
    2bd2:	9f ef       	ldi	r25, 0xFF	; 255
    2bd4:	af ef       	ldi	r26, 0xFF	; 255
    2bd6:	bf e7       	ldi	r27, 0x7F	; 127
    2bd8:	f8 01       	movw	r30, r16
    2bda:	80 83       	st	Z, r24
    2bdc:	91 83       	std	Z+1, r25	; 0x01
    2bde:	a2 83       	std	Z+2, r26	; 0x02
    2be0:	b3 83       	std	Z+3, r27	; 0x03
    2be2:	83 e6       	ldi	r24, 0x63	; 99
    2be4:	2a c0       	rjmp	.+84     	; 0x2c3a <get_MOTORInt32+0x128>
    2be6:	e7 e1       	ldi	r30, 0x17	; 23
    2be8:	fa e2       	ldi	r31, 0x2A	; 42
    2bea:	80 81       	ld	r24, Z
    2bec:	90 e0       	ldi	r25, 0x00	; 0
    2bee:	a0 e0       	ldi	r26, 0x00	; 0
    2bf0:	b0 e0       	ldi	r27, 0x00	; 0
    2bf2:	78 2f       	mov	r23, r24
    2bf4:	66 27       	eor	r22, r22
    2bf6:	55 27       	eor	r21, r21
    2bf8:	44 27       	eor	r20, r20
    2bfa:	91 81       	ldd	r25, Z+1	; 0x01
    2bfc:	89 2f       	mov	r24, r25
    2bfe:	90 e0       	ldi	r25, 0x00	; 0
    2c00:	a0 e0       	ldi	r26, 0x00	; 0
    2c02:	b0 e0       	ldi	r27, 0x00	; 0
    2c04:	dc 01       	movw	r26, r24
    2c06:	99 27       	eor	r25, r25
    2c08:	88 27       	eor	r24, r24
    2c0a:	84 2b       	or	r24, r20
    2c0c:	95 2b       	or	r25, r21
    2c0e:	a6 2b       	or	r26, r22
    2c10:	b7 2b       	or	r27, r23
    2c12:	42 81       	ldd	r20, Z+2	; 0x02
    2c14:	50 e0       	ldi	r21, 0x00	; 0
    2c16:	60 e0       	ldi	r22, 0x00	; 0
    2c18:	70 e0       	ldi	r23, 0x00	; 0
    2c1a:	76 2f       	mov	r23, r22
    2c1c:	65 2f       	mov	r22, r21
    2c1e:	54 2f       	mov	r21, r20
    2c20:	44 27       	eor	r20, r20
    2c22:	84 2b       	or	r24, r20
    2c24:	95 2b       	or	r25, r21
    2c26:	a6 2b       	or	r26, r22
    2c28:	b7 2b       	or	r27, r23
    2c2a:	23 81       	ldd	r18, Z+3	; 0x03
    2c2c:	82 2b       	or	r24, r18
    2c2e:	f8 01       	movw	r30, r16
    2c30:	80 83       	st	Z, r24
    2c32:	91 83       	std	Z+1, r25	; 0x01
    2c34:	a2 83       	std	Z+2, r26	; 0x02
    2c36:	b3 83       	std	Z+3, r27	; 0x03
    2c38:	80 e0       	ldi	r24, 0x00	; 0
    2c3a:	26 96       	adiw	r28, 0x06	; 6
    2c3c:	cd bf       	out	0x3d, r28	; 61
    2c3e:	de bf       	out	0x3e, r29	; 62
    2c40:	df 91       	pop	r29
    2c42:	cf 91       	pop	r28
    2c44:	1f 91       	pop	r17
    2c46:	0f 91       	pop	r16
    2c48:	ff 90       	pop	r15
    2c4a:	ef 90       	pop	r14
    2c4c:	08 95       	ret

00002c4e <move_MOTORAbsolute>:
    2c4e:	cf 93       	push	r28
    2c50:	df 93       	push	r29
    2c52:	cd b7       	in	r28, 0x3d	; 61
    2c54:	de b7       	in	r29, 0x3e	; 62
    2c56:	65 97       	sbiw	r28, 0x15	; 21
    2c58:	cd bf       	out	0x3d, r28	; 61
    2c5a:	de bf       	out	0x3e, r29	; 62
    2c5c:	10 92 17 2a 	sts	0x2A17, r1	; 0x802a17 <recv1_buf>
    2c60:	91 e0       	ldi	r25, 0x01	; 1
    2c62:	90 93 18 2b 	sts	0x2B18, r25	; 0x802b18 <recv1_buf+0x101>
    2c66:	10 92 1a 2b 	sts	0x2B1A, r1	; 0x802b1a <recv1_buf+0x103>
    2c6a:	10 92 1b 2b 	sts	0x2B1B, r1	; 0x802b1b <recv1_buf+0x104>
    2c6e:	89 83       	std	Y+1, r24	; 0x01
    2c70:	81 e4       	ldi	r24, 0x41	; 65
    2c72:	8a 83       	std	Y+2, r24	; 0x02
    2c74:	1b 82       	std	Y+3, r1	; 0x03
    2c76:	1c 82       	std	Y+4, r1	; 0x04
    2c78:	80 e2       	ldi	r24, 0x20	; 32
    2c7a:	8d 83       	std	Y+5, r24	; 0x05
    2c7c:	1e 82       	std	Y+6, r1	; 0x06
    2c7e:	1f 82       	std	Y+7, r1	; 0x07
    2c80:	18 86       	std	Y+8, r1	; 0x08
    2c82:	90 e4       	ldi	r25, 0x40	; 64
    2c84:	99 87       	std	Y+9, r25	; 0x09
    2c86:	1a 86       	std	Y+10, r1	; 0x0a
    2c88:	1b 86       	std	Y+11, r1	; 0x0b
    2c8a:	1c 86       	std	Y+12, r1	; 0x0c
    2c8c:	8d 87       	std	Y+13, r24	; 0x0d
    2c8e:	1e 86       	std	Y+14, r1	; 0x0e
    2c90:	7f 87       	std	Y+15, r23	; 0x0f
    2c92:	68 8b       	std	Y+16, r22	; 0x10
    2c94:	59 8b       	std	Y+17, r21	; 0x11
    2c96:	4a 8b       	std	Y+18, r20	; 0x12
    2c98:	1b 8a       	std	Y+19, r1	; 0x13
    2c9a:	63 e1       	ldi	r22, 0x13	; 19
    2c9c:	70 e0       	ldi	r23, 0x00	; 0
    2c9e:	ce 01       	movw	r24, r28
    2ca0:	01 96       	adiw	r24, 0x01	; 1
    2ca2:	0e 94 36 14 	call	0x286c	; 0x286c <crc16>
    2ca6:	9c 8b       	std	Y+20, r25	; 0x14
    2ca8:	8d 8b       	std	Y+21, r24	; 0x15
    2caa:	45 e1       	ldi	r20, 0x15	; 21
    2cac:	be 01       	movw	r22, r28
    2cae:	6f 5f       	subi	r22, 0xFF	; 255
    2cb0:	7f 4f       	sbci	r23, 0xFF	; 255
    2cb2:	81 e0       	ldi	r24, 0x01	; 1
    2cb4:	0e 94 b6 19 	call	0x336c	; 0x336c <send_USART>
    2cb8:	81 e0       	ldi	r24, 0x01	; 1
    2cba:	90 e0       	ldi	r25, 0x00	; 0
    2cbc:	0e 94 97 18 	call	0x312e	; 0x312e <start_TCB0>
    2cc0:	80 91 1b 2b 	lds	r24, 0x2B1B	; 0x802b1b <recv1_buf+0x104>
    2cc4:	81 30       	cpi	r24, 0x01	; 1
    2cc6:	41 f4       	brne	.+16     	; 0x2cd8 <move_MOTORAbsolute+0x8a>
    2cc8:	0e 94 ad 18 	call	0x315a	; 0x315a <stop_TCB0>
    2ccc:	80 91 17 2a 	lds	r24, 0x2A17	; 0x802a17 <recv1_buf>
    2cd0:	8f 3f       	cpi	r24, 0xFF	; 255
    2cd2:	91 f4       	brne	.+36     	; 0x2cf8 <move_MOTORAbsolute+0xaa>
    2cd4:	80 e0       	ldi	r24, 0x00	; 0
    2cd6:	17 c0       	rjmp	.+46     	; 0x2d06 <move_MOTORAbsolute+0xb8>
    2cd8:	80 91 15 2a 	lds	r24, 0x2A15	; 0x802a15 <ticks>
    2cdc:	90 91 16 2a 	lds	r25, 0x2A16	; 0x802a16 <ticks+0x1>
    2ce0:	c3 97       	sbiw	r24, 0x33	; 51
    2ce2:	70 f3       	brcs	.-36     	; 0x2cc0 <move_MOTORAbsolute+0x72>
    2ce4:	0e 94 ad 18 	call	0x315a	; 0x315a <stop_TCB0>
    2ce8:	62 e4       	ldi	r22, 0x42	; 66
    2cea:	7c e8       	ldi	r23, 0x8C	; 140
    2cec:	8f e2       	ldi	r24, 0x2F	; 47
    2cee:	91 e0       	ldi	r25, 0x01	; 1
    2cf0:	0e 94 75 06 	call	0xcea	; 0xcea <printError>
    2cf4:	83 e6       	ldi	r24, 0x63	; 99
    2cf6:	07 c0       	rjmp	.+14     	; 0x2d06 <move_MOTORAbsolute+0xb8>
    2cf8:	6d e5       	ldi	r22, 0x5D	; 93
    2cfa:	7c e8       	ldi	r23, 0x8C	; 140
    2cfc:	8f e2       	ldi	r24, 0x2F	; 47
    2cfe:	91 e0       	ldi	r25, 0x01	; 1
    2d00:	0e 94 75 06 	call	0xcea	; 0xcea <printError>
    2d04:	83 e6       	ldi	r24, 0x63	; 99
    2d06:	65 96       	adiw	r28, 0x15	; 21
    2d08:	cd bf       	out	0x3d, r28	; 61
    2d0a:	de bf       	out	0x3e, r29	; 62
    2d0c:	df 91       	pop	r29
    2d0e:	cf 91       	pop	r28
    2d10:	08 95       	ret

00002d12 <move_MOTOR>:
    2d12:	cf 92       	push	r12
    2d14:	df 92       	push	r13
    2d16:	ef 92       	push	r14
    2d18:	ff 92       	push	r15
    2d1a:	1f 93       	push	r17
    2d1c:	cf 93       	push	r28
    2d1e:	df 93       	push	r29
    2d20:	00 d0       	rcall	.+0      	; 0x2d22 <move_MOTOR+0x10>
    2d22:	00 d0       	rcall	.+0      	; 0x2d24 <move_MOTOR+0x12>
    2d24:	cd b7       	in	r28, 0x3d	; 61
    2d26:	de b7       	in	r29, 0x3e	; 62
    2d28:	e8 2e       	mov	r14, r24
    2d2a:	f1 2c       	mov	r15, r1
    2d2c:	84 e3       	ldi	r24, 0x34	; 52
    2d2e:	8e 9d       	mul	r24, r14
    2d30:	f0 01       	movw	r30, r0
    2d32:	8f 9d       	mul	r24, r15
    2d34:	f0 0d       	add	r31, r0
    2d36:	11 24       	eor	r1, r1
    2d38:	e9 5f       	subi	r30, 0xF9	; 249
    2d3a:	f7 4d       	sbci	r31, 0xD7	; 215
    2d3c:	81 81       	ldd	r24, Z+1	; 0x01
    2d3e:	81 34       	cpi	r24, 0x41	; 65
    2d40:	d0 f0       	brcs	.+52     	; 0x2d76 <move_MOTOR+0x64>
    2d42:	84 34       	cpi	r24, 0x44	; 68
    2d44:	28 f0       	brcs	.+10     	; 0x2d50 <move_MOTOR+0x3e>
    2d46:	9f e9       	ldi	r25, 0x9F	; 159
    2d48:	98 0f       	add	r25, r24
    2d4a:	93 30       	cpi	r25, 0x03	; 3
    2d4c:	40 f0       	brcs	.+16     	; 0x2d5e <move_MOTOR+0x4c>
    2d4e:	13 c0       	rjmp	.+38     	; 0x2d76 <move_MOTOR+0x64>
    2d50:	1f e3       	ldi	r17, 0x3F	; 63
    2d52:	18 0f       	add	r17, r24
    2d54:	19 82       	std	Y+1, r1	; 0x01
    2d56:	1a 82       	std	Y+2, r1	; 0x02
    2d58:	1b 82       	std	Y+3, r1	; 0x03
    2d5a:	1c 82       	std	Y+4, r1	; 0x04
    2d5c:	14 c0       	rjmp	.+40     	; 0x2d86 <move_MOTOR+0x74>
    2d5e:	1f e1       	ldi	r17, 0x1F	; 31
    2d60:	18 0f       	add	r17, r24
    2d62:	ae 01       	movw	r20, r28
    2d64:	4f 5f       	subi	r20, 0xFF	; 255
    2d66:	5f 4f       	sbci	r21, 0xFF	; 255
    2d68:	60 e1       	ldi	r22, 0x10	; 16
    2d6a:	81 2f       	mov	r24, r17
    2d6c:	0e 94 5b 14 	call	0x28b6	; 0x28b6 <get_MOTOREncoder>
    2d70:	83 36       	cpi	r24, 0x63	; 99
    2d72:	49 f4       	brne	.+18     	; 0x2d86 <move_MOTOR+0x74>
    2d74:	39 c0       	rjmp	.+114    	; 0x2de8 <move_MOTOR+0xd6>
    2d76:	64 e7       	ldi	r22, 0x74	; 116
    2d78:	7c e8       	ldi	r23, 0x8C	; 140
    2d7a:	8d e2       	ldi	r24, 0x2D	; 45
    2d7c:	91 e0       	ldi	r25, 0x01	; 1
    2d7e:	0e 94 75 06 	call	0xcea	; 0xcea <printError>
    2d82:	83 e6       	ldi	r24, 0x63	; 99
    2d84:	32 c0       	rjmp	.+100    	; 0x2dea <move_MOTOR+0xd8>
    2d86:	84 e3       	ldi	r24, 0x34	; 52
    2d88:	8e 9d       	mul	r24, r14
    2d8a:	f0 01       	movw	r30, r0
    2d8c:	8f 9d       	mul	r24, r15
    2d8e:	f0 0d       	add	r31, r0
    2d90:	11 24       	eor	r1, r1
    2d92:	e9 5f       	subi	r30, 0xF9	; 249
    2d94:	f7 4d       	sbci	r31, 0xD7	; 215
    2d96:	82 81       	ldd	r24, Z+2	; 0x02
    2d98:	81 11       	cpse	r24, r1
    2d9a:	08 c0       	rjmp	.+16     	; 0x2dac <move_MOTOR+0x9a>
    2d9c:	6d e8       	ldi	r22, 0x8D	; 141
    2d9e:	7c e8       	ldi	r23, 0x8C	; 140
    2da0:	83 e3       	ldi	r24, 0x33	; 51
    2da2:	91 e0       	ldi	r25, 0x01	; 1
    2da4:	0e 94 75 06 	call	0xcea	; 0xcea <printError>
    2da8:	83 e6       	ldi	r24, 0x63	; 99
    2daa:	1f c0       	rjmp	.+62     	; 0x2dea <move_MOTOR+0xd8>
    2dac:	24 e3       	ldi	r18, 0x34	; 52
    2dae:	2e 9d       	mul	r18, r14
    2db0:	c0 01       	movw	r24, r0
    2db2:	2f 9d       	mul	r18, r15
    2db4:	90 0d       	add	r25, r0
    2db6:	11 24       	eor	r1, r1
    2db8:	87 5f       	subi	r24, 0xF7	; 247
    2dba:	97 4d       	sbci	r25, 0xD7	; 215
    2dbc:	0e 94 15 22 	call	0x442a	; 0x442a <atol>
    2dc0:	9b 01       	movw	r18, r22
    2dc2:	ac 01       	movw	r20, r24
    2dc4:	ac e0       	ldi	r26, 0x0C	; 12
    2dc6:	b1 e0       	ldi	r27, 0x01	; 1
    2dc8:	0e 94 94 21 	call	0x4328	; 0x4328 <__muluhisi3>
    2dcc:	c9 80       	ldd	r12, Y+1	; 0x01
    2dce:	da 80       	ldd	r13, Y+2	; 0x02
    2dd0:	eb 80       	ldd	r14, Y+3	; 0x03
    2dd2:	fc 80       	ldd	r15, Y+4	; 0x04
    2dd4:	ab 01       	movw	r20, r22
    2dd6:	bc 01       	movw	r22, r24
    2dd8:	4c 0d       	add	r20, r12
    2dda:	5d 1d       	adc	r21, r13
    2ddc:	6e 1d       	adc	r22, r14
    2dde:	7f 1d       	adc	r23, r15
    2de0:	81 2f       	mov	r24, r17
    2de2:	0e 94 27 16 	call	0x2c4e	; 0x2c4e <move_MOTORAbsolute>
    2de6:	01 c0       	rjmp	.+2      	; 0x2dea <move_MOTOR+0xd8>
    2de8:	83 e6       	ldi	r24, 0x63	; 99
    2dea:	24 96       	adiw	r28, 0x04	; 4
    2dec:	cd bf       	out	0x3d, r28	; 61
    2dee:	de bf       	out	0x3e, r29	; 62
    2df0:	df 91       	pop	r29
    2df2:	cf 91       	pop	r28
    2df4:	1f 91       	pop	r17
    2df6:	ff 90       	pop	r15
    2df8:	ef 90       	pop	r14
    2dfa:	df 90       	pop	r13
    2dfc:	cf 90       	pop	r12
    2dfe:	08 95       	ret

00002e00 <set_MOTOREncoder>:
		Does not print an error. It's only called at reboot. We should have a
		double-check at startup to make sure the encoder values agree before
		a move.
------------------------------------------------------------------------------*/
uint8_t set_MOTOREncoder(uint8_t controller, uint32_t value)
{
    2e00:	cf 93       	push	r28
    2e02:	df 93       	push	r29
    2e04:	cd b7       	in	r28, 0x3d	; 61
    2e06:	de b7       	in	r29, 0x3e	; 62
    2e08:	26 97       	sbiw	r28, 0x06	; 6
    2e0a:	cd bf       	out	0x3d, r28	; 61
    2e0c:	de bf       	out	0x3e, r29	; 62

	uint8_t tbuf[6];

	recv1_buf.data[0] = 0x00;			// Set up receiving buffer
    2e0e:	10 92 17 2a 	sts	0x2A17, r1	; 0x802a17 <recv1_buf>
	recv1_buf.nbytes = 1;
    2e12:	91 e0       	ldi	r25, 0x01	; 1
    2e14:	90 93 18 2b 	sts	0x2B18, r25	; 0x802b18 <recv1_buf+0x101>
	recv1_buf.nxfrd = 0;
    2e18:	10 92 1a 2b 	sts	0x2B1A, r1	; 0x802b1a <recv1_buf+0x103>
	recv1_buf.done = NO;
    2e1c:	10 92 1b 2b 	sts	0x2B1B, r1	; 0x802b1b <recv1_buf+0x104>

	tbuf[0] = controller;
    2e20:	89 83       	std	Y+1, r24	; 0x01
	tbuf[1] = ROBOSETENCODER;
    2e22:	86 e1       	ldi	r24, 0x16	; 22
    2e24:	8a 83       	std	Y+2, r24	; 0x02
	tbuf[2] = (value >> 24) & 0xFF;
    2e26:	7b 83       	std	Y+3, r23	; 0x03
	tbuf[3] = (value >> 16) & 0xFF;
    2e28:	6c 83       	std	Y+4, r22	; 0x04
	tbuf[4] = (value >> 8) & 0xFF;
    2e2a:	5d 83       	std	Y+5, r21	; 0x05
	tbuf[5] = value & 0xFF;
    2e2c:	4e 83       	std	Y+6, r20	; 0x06

	send_USART(1, tbuf, 6);				// Send the command
    2e2e:	46 e0       	ldi	r20, 0x06	; 6
    2e30:	be 01       	movw	r22, r28
    2e32:	6f 5f       	subi	r22, 0xFF	; 255
    2e34:	7f 4f       	sbci	r23, 0xFF	; 255
    2e36:	81 e0       	ldi	r24, 0x01	; 1
    2e38:	0e 94 b6 19 	call	0x336c	; 0x336c <send_USART>

	start_TCB0(1);						// Start 1 ms ticks timer
    2e3c:	81 e0       	ldi	r24, 0x01	; 1
    2e3e:	90 e0       	ldi	r25, 0x00	; 0
    2e40:	0e 94 97 18 	call	0x312e	; 0x312e <start_TCB0>
	for (;;) {
		if (recv1_buf.done == YES) {	// Reply received
    2e44:	80 91 1b 2b 	lds	r24, 0x2B1B	; 0x802b1b <recv1_buf+0x104>
    2e48:	81 30       	cpi	r24, 0x01	; 1
    2e4a:	41 f4       	brne	.+16     	; 0x2e5c <set_MOTOREncoder+0x5c>
			stop_TCB0();
    2e4c:	0e 94 ad 18 	call	0x315a	; 0x315a <stop_TCB0>
			stop_TCB0();
			return(ERROR);
		}
	}

	if (recv1_buf.data[0] != 0xFF) {	// Bad ack
    2e50:	80 91 17 2a 	lds	r24, 0x2A17	; 0x802a17 <recv1_buf>
    2e54:	8f 3f       	cpi	r24, 0xFF	; 255
    2e56:	61 f0       	breq	.+24     	; 0x2e70 <set_MOTOREncoder+0x70>
		return(ERROR);
    2e58:	83 e6       	ldi	r24, 0x63	; 99
    2e5a:	0b c0       	rjmp	.+22     	; 0x2e72 <set_MOTOREncoder+0x72>
	for (;;) {
		if (recv1_buf.done == YES) {	// Reply received
			stop_TCB0();
			break;
		}
		if (ticks > 50) {				// 4 ms barely works at 38400 baud
    2e5c:	80 91 15 2a 	lds	r24, 0x2A15	; 0x802a15 <ticks>
    2e60:	90 91 16 2a 	lds	r25, 0x2A16	; 0x802a16 <ticks+0x1>
    2e64:	c3 97       	sbiw	r24, 0x33	; 51
    2e66:	70 f3       	brcs	.-36     	; 0x2e44 <set_MOTOREncoder+0x44>
			stop_TCB0();
    2e68:	0e 94 ad 18 	call	0x315a	; 0x315a <stop_TCB0>
			return(ERROR);
    2e6c:	83 e6       	ldi	r24, 0x63	; 99
    2e6e:	01 c0       	rjmp	.+2      	; 0x2e72 <set_MOTOREncoder+0x72>

	if (recv1_buf.data[0] != 0xFF) {	// Bad ack
		return(ERROR);
	}

	return(NOERROR);
    2e70:	80 e0       	ldi	r24, 0x00	; 0

}
    2e72:	26 96       	adiw	r28, 0x06	; 6
    2e74:	cd bf       	out	0x3d, r28	; 61
    2e76:	de bf       	out	0x3e, r29	; 62
    2e78:	df 91       	pop	r29
    2e7a:	cf 91       	pop	r28
    2e7c:	08 95       	ret

00002e7e <init_MOTORS>:
	Returns
		ERROR if set_MOTOREncoder fails
		NOERROR otherwise
------------------------------------------------------------------------------*/
uint8_t init_MOTORS(void)
{
    2e7e:	0f 93       	push	r16
    2e80:	1f 93       	push	r17
    2e82:	cf 93       	push	r28
    2e84:	df 93       	push	r29

	static uint8_t firstTime[3] = {YES, YES, YES};
	uint8_t controller, error = 0;
	uint32_t encoderValue;

	timerSAVEENCODER = 0;
    2e86:	10 92 14 2a 	sts	0x2A14, r1	; 0x802a14 <timerSAVEENCODER>
------------------------------------------------------------------------------*/
uint8_t init_MOTORS(void)
{

	static uint8_t firstTime[3] = {YES, YES, YES};
	uint8_t controller, error = 0;
    2e8a:	d0 e0       	ldi	r29, 0x00	; 0
	uint32_t encoderValue;

	timerSAVEENCODER = 0;

	for (controller = 128; controller < 131; controller++) {
    2e8c:	c0 e8       	ldi	r28, 0x80	; 128
    2e8e:	1f c0       	rjmp	.+62     	; 0x2ece <init_MOTORS+0x50>
		// get saved encoder value from FRAM
		encoderValue = 22 * ROBOCOUNTSPERMICRON;	// Proxy for now
		if (set_MOTOREncoder(controller, encoderValue) == ERROR) {
    2e90:	48 e0       	ldi	r20, 0x08	; 8
    2e92:	57 e1       	ldi	r21, 0x17	; 23
    2e94:	60 e0       	ldi	r22, 0x00	; 0
    2e96:	70 e0       	ldi	r23, 0x00	; 0
    2e98:	8c 2f       	mov	r24, r28
    2e9a:	0e 94 00 17 	call	0x2e00	; 0x2e00 <set_MOTOREncoder>
    2e9e:	83 36       	cpi	r24, 0x63	; 99
    2ea0:	a9 f4       	brne	.+42     	; 0x2ecc <init_MOTORS+0x4e>
			if (!firstTime[controller - 128]) {
    2ea2:	0c 2f       	mov	r16, r28
    2ea4:	10 e0       	ldi	r17, 0x00	; 0
    2ea6:	00 58       	subi	r16, 0x80	; 128
    2ea8:	11 09       	sbc	r17, r1
    2eaa:	f8 01       	movw	r30, r16
    2eac:	e0 50       	subi	r30, 0x00	; 0
    2eae:	f8 4d       	sbci	r31, 0xD8	; 216
    2eb0:	80 81       	ld	r24, Z
    2eb2:	81 11       	cpse	r24, r1
    2eb4:	0a c0       	rjmp	.+20     	; 0x2eca <init_MOTORS+0x4c>
				printError(ERR_MTRSETENC, "init_MOTORS");
    2eb6:	61 eb       	ldi	r22, 0xB1	; 177
    2eb8:	7c e8       	ldi	r23, 0x8C	; 140
    2eba:	82 e3       	ldi	r24, 0x32	; 50
    2ebc:	91 e0       	ldi	r25, 0x01	; 1
    2ebe:	0e 94 75 06 	call	0xcea	; 0xcea <printError>
				firstTime[controller - 128] = NO;
    2ec2:	f8 01       	movw	r30, r16
    2ec4:	e0 50       	subi	r30, 0x00	; 0
    2ec6:	f8 4d       	sbci	r31, 0xD8	; 216
    2ec8:	10 82       	st	Z, r1
			}
			error++;
    2eca:	df 5f       	subi	r29, 0xFF	; 255
	uint8_t controller, error = 0;
	uint32_t encoderValue;

	timerSAVEENCODER = 0;

	for (controller = 128; controller < 131; controller++) {
    2ecc:	cf 5f       	subi	r28, 0xFF	; 255
    2ece:	c3 38       	cpi	r28, 0x83	; 131
    2ed0:	f8 f2       	brcs	.-66     	; 0x2e90 <init_MOTORS+0x12>
				firstTime[controller - 128] = NO;
			}
			error++;
		}
	}
	if (error) {
    2ed2:	dd 23       	and	r29, r29
    2ed4:	11 f0       	breq	.+4      	; 0x2eda <init_MOTORS+0x5c>
		return(ERROR);
    2ed6:	83 e6       	ldi	r24, 0x63	; 99
    2ed8:	01 c0       	rjmp	.+2      	; 0x2edc <init_MOTORS+0x5e>
	} else {
		return(NOERROR);
    2eda:	80 e0       	ldi	r24, 0x00	; 0
	}
}
    2edc:	df 91       	pop	r29
    2ede:	cf 91       	pop	r28
    2ee0:	1f 91       	pop	r17
    2ee2:	0f 91       	pop	r16
    2ee4:	08 95       	ret

00002ee6 <init_RTC>:
			between interrupts. ticksRTC = 30719 generates an interrupt
			every minute. ticksRTC = 511 generates an interrupt every
			second.
----------------------------------------------------------------------*/
void init_RTC(uint16_t ticksRTC)
{
    2ee6:	ac 01       	movw	r20, r24

	uint8_t temp;

	// Disable the external oscillator by clearing the enable bit 0
	temp = CLKCTRL.XOSC32KCTRLA;
    2ee8:	e0 e6       	ldi	r30, 0x60	; 96
    2eea:	f0 e0       	ldi	r31, 0x00	; 0
    2eec:	94 8d       	ldd	r25, Z+28	; 0x1c
	temp &= ~CLKCTRL_ENABLE_bm;		// set bit 0 of CLKCTRL.XOSC32KCTRLA to 0
    2eee:	9e 7f       	andi	r25, 0xFE	; 254
	CPU_CCP = CCP_IOREG_gc;
    2ef0:	88 ed       	ldi	r24, 0xD8	; 216
    2ef2:	84 bf       	out	0x34, r24	; 52
	CLKCTRL.XOSC32KCTRLA = temp;
    2ef4:	94 8f       	std	Z+28, r25	; 0x1c

	// Wait for status bit (bit 6) in MCLKSTATUS to go to 0 (XOSC32K not running)
	while (CLKCTRL.MCLKSTATUS & CLKCTRL_XOSC32KS_bm) {
    2ef6:	01 c0       	rjmp	.+2      	; 0x2efa <init_RTC+0x14>
		asm("nop");
    2ef8:	00 00       	nop
	temp &= ~CLKCTRL_ENABLE_bm;		// set bit 0 of CLKCTRL.XOSC32KCTRLA to 0
	CPU_CCP = CCP_IOREG_gc;
	CLKCTRL.XOSC32KCTRLA = temp;

	// Wait for status bit (bit 6) in MCLKSTATUS to go to 0 (XOSC32K not running)
	while (CLKCTRL.MCLKSTATUS & CLKCTRL_XOSC32KS_bm) {
    2efa:	90 91 63 00 	lds	r25, 0x0063	; 0x800063 <__TEXT_REGION_LENGTH__+0x7f4063>
    2efe:	96 fd       	sbrc	r25, 6
    2f00:	fb cf       	rjmp	.-10     	; 0x2ef8 <init_RTC+0x12>
		asm("nop");
	}

	// Select the external crystal (as opposed to external clock)
	// by setting the SEL bit on XOSC32KCTRLA (bit 2) to 0
	temp = CLKCTRL.XOSC32KCTRLA;
    2f02:	e0 e6       	ldi	r30, 0x60	; 96
    2f04:	f0 e0       	ldi	r31, 0x00	; 0
    2f06:	94 8d       	ldd	r25, Z+28	; 0x1c
	temp &= ~CLKCTRL_SEL_bm;
    2f08:	9b 7f       	andi	r25, 0xFB	; 251
	CPU_CCP = CCP_IOREG_gc;
    2f0a:	28 ed       	ldi	r18, 0xD8	; 216
    2f0c:	24 bf       	out	0x34, r18	; 52
	CLKCTRL.XOSC32KCTRLA = temp;
    2f0e:	94 8f       	std	Z+28, r25	; 0x1c

	// Enable the external oscillator by setting the enable bit
	// (bit 0) in CLKCTRL.XOSC32KCTRLA to 1
	temp = CLKCTRL.XOSC32KCTRLA;
    2f10:	94 8d       	ldd	r25, Z+28	; 0x1c
	temp |= CLKCTRL_ENABLE_bm;
    2f12:	91 60       	ori	r25, 0x01	; 1
	CPU_CCP = CCP_IOREG_gc;
    2f14:	24 bf       	out	0x34, r18	; 52
	CLKCTRL.XOSC32KCTRLA = temp;
    2f16:	94 8f       	std	Z+28, r25	; 0x1c

	while (RTC.STATUS) {	// Wait for all registers to sync
    2f18:	01 c0       	rjmp	.+2      	; 0x2f1c <init_RTC+0x36>
		asm("nop");
    2f1a:	00 00       	nop
	temp = CLKCTRL.XOSC32KCTRLA;
	temp |= CLKCTRL_ENABLE_bm;
	CPU_CCP = CCP_IOREG_gc;
	CLKCTRL.XOSC32KCTRLA = temp;

	while (RTC.STATUS) {	// Wait for all registers to sync
    2f1c:	90 91 41 01 	lds	r25, 0x0141	; 0x800141 <__TEXT_REGION_LENGTH__+0x7f4141>
    2f20:	91 11       	cpse	r25, r1
    2f22:	fb cf       	rjmp	.-10     	; 0x2f1a <init_RTC+0x34>
		asm("nop");
	}

//	RTC.PER = 30719;	// Set 1 minute period for overflow interrupts 
//	RTC.PER = 511;		// Set 1 sec period for overflow interrupts
	RTC.PER = ticksRTC;
    2f24:	e0 e4       	ldi	r30, 0x40	; 64
    2f26:	f1 e0       	ldi	r31, 0x01	; 1
    2f28:	42 87       	std	Z+10, r20	; 0x0a
    2f2a:	53 87       	std	Z+11, r21	; 0x0b

	// Select the external crystal oscillator in RTC.CLKSEL register
	RTC.CLKSEL = RTC_CLKSEL_TOSC32K_gc;
    2f2c:	82 e0       	ldi	r24, 0x02	; 2
    2f2e:	87 83       	std	Z+7, r24	; 0x07

	// Enable running in debug mode by setting bit 0 in RTC.CLKSEL to 1
	RTC.DBGCTRL |= RTC_DBGRUN_bm;
    2f30:	85 81       	ldd	r24, Z+5	; 0x05
    2f32:	81 60       	ori	r24, 0x01	; 1
    2f34:	85 83       	std	Z+5, r24	; 0x05

	// Enable running in standby mode by setting bit 7 in RTC.CTRLA to 1
	// & set the prescaler to DIV64 (512 Hz)
	// & set the RTC enable bit
	RTC.CTRLA = RTC_PRESCALER_DIV64_gc | RTC_RUNSTDBY_bm | RTC_RTCEN_bm;
    2f36:	81 eb       	ldi	r24, 0xB1	; 177
    2f38:	80 83       	st	Z, r24

	RTC.INTCTRL |= RTC_OVF_bm;	// Enable overflow interrupt
    2f3a:	82 81       	ldd	r24, Z+2	; 0x02
    2f3c:	81 60       	ori	r24, 0x01	; 1
    2f3e:	82 83       	std	Z+2, r24	; 0x02
    2f40:	08 95       	ret

00002f42 <__vector_3>:
/*---------------------------------------------------------------------
Interrupt routine for RTC
	Every tick of the RTC executes here
----------------------------------------------------------------------*/
ISR(RTC_CNT_vect)
{
    2f42:	1f 92       	push	r1
    2f44:	0f 92       	push	r0
    2f46:	0f b6       	in	r0, 0x3f	; 63
    2f48:	0f 92       	push	r0
    2f4a:	11 24       	eor	r1, r1
    2f4c:	2f 93       	push	r18
    2f4e:	3f 93       	push	r19
    2f50:	4f 93       	push	r20
    2f52:	5f 93       	push	r21
    2f54:	6f 93       	push	r22
    2f56:	7f 93       	push	r23
    2f58:	8f 93       	push	r24
    2f5a:	9f 93       	push	r25
    2f5c:	af 93       	push	r26
    2f5e:	bf 93       	push	r27
    2f60:	ef 93       	push	r30
    2f62:	ff 93       	push	r31

	RTC.INTFLAGS = RTC_OVF_bm;		// Clear interrupt flag
    2f64:	81 e0       	ldi	r24, 0x01	; 1
    2f66:	80 93 43 01 	sts	0x0143, r24	; 0x800143 <__TEXT_REGION_LENGTH__+0x7f4143>

	if (timerOLED) {
    2f6a:	80 91 0f 2a 	lds	r24, 0x2A0F	; 0x802a0f <timerOLED>
    2f6e:	90 91 10 2a 	lds	r25, 0x2A10	; 0x802a10 <timerOLED+0x1>
    2f72:	00 97       	sbiw	r24, 0x00	; 0
    2f74:	b9 f0       	breq	.+46     	; 0x2fa4 <__vector_3+0x62>
		if (timerOLED > timeoutOLED) {	// Display timeout
    2f76:	20 91 11 2a 	lds	r18, 0x2A11	; 0x802a11 <timeoutOLED>
    2f7a:	30 91 12 2a 	lds	r19, 0x2A12	; 0x802a12 <timeoutOLED+0x1>
    2f7e:	28 17       	cp	r18, r24
    2f80:	39 07       	cpc	r19, r25
    2f82:	58 f4       	brcc	.+22     	; 0x2f9a <__vector_3+0x58>
			clear_OLED(0);
    2f84:	80 e0       	ldi	r24, 0x00	; 0
    2f86:	0e 94 12 0c 	call	0x1824	; 0x1824 <clear_OLED>
			clear_OLED(1);
    2f8a:	81 e0       	ldi	r24, 0x01	; 1
    2f8c:	0e 94 12 0c 	call	0x1824	; 0x1824 <clear_OLED>
			timerOLED = 0;
    2f90:	10 92 0f 2a 	sts	0x2A0F, r1	; 0x802a0f <timerOLED>
    2f94:	10 92 10 2a 	sts	0x2A10, r1	; 0x802a10 <timerOLED+0x1>
    2f98:	05 c0       	rjmp	.+10     	; 0x2fa4 <__vector_3+0x62>
		} else {
			timerOLED++;
    2f9a:	01 96       	adiw	r24, 0x01	; 1
    2f9c:	80 93 0f 2a 	sts	0x2A0F, r24	; 0x802a0f <timerOLED>
    2fa0:	90 93 10 2a 	sts	0x2A10, r25	; 0x802a10 <timerOLED+0x1>
		}
	}
	toggle_LED;						// Defined in led.c
    2fa4:	80 e2       	ldi	r24, 0x20	; 32
    2fa6:	80 93 a7 04 	sts	0x04A7, r24	; 0x8004a7 <__TEXT_REGION_LENGTH__+0x7f44a7>

	timerSAVEENCODER++;
    2faa:	80 91 14 2a 	lds	r24, 0x2A14	; 0x802a14 <timerSAVEENCODER>
    2fae:	8f 5f       	subi	r24, 0xFF	; 255
    2fb0:	80 93 14 2a 	sts	0x2A14, r24	; 0x802a14 <timerSAVEENCODER>

}
    2fb4:	ff 91       	pop	r31
    2fb6:	ef 91       	pop	r30
    2fb8:	bf 91       	pop	r27
    2fba:	af 91       	pop	r26
    2fbc:	9f 91       	pop	r25
    2fbe:	8f 91       	pop	r24
    2fc0:	7f 91       	pop	r23
    2fc2:	6f 91       	pop	r22
    2fc4:	5f 91       	pop	r21
    2fc6:	4f 91       	pop	r20
    2fc8:	3f 91       	pop	r19
    2fca:	2f 91       	pop	r18
    2fcc:	0f 90       	pop	r0
    2fce:	0f be       	out	0x3f, r0	; 63
    2fd0:	0f 90       	pop	r0
    2fd2:	1f 90       	pop	r1
    2fd4:	18 95       	reti

00002fd6 <set>:
	Returns:
		ERROR if an invalid object was requested.
		NOERROR otherwise
------------------------------------------------------------------------------*/
uint8_t set(uint8_t cstack)
{
    2fd6:	cf 93       	push	r28
    2fd8:	df 93       	push	r29

	char object;

	object = pcmd[cstack].cobject;
    2fda:	90 e0       	ldi	r25, 0x00	; 0
    2fdc:	24 e3       	ldi	r18, 0x34	; 52
    2fde:	28 9f       	mul	r18, r24
    2fe0:	f0 01       	movw	r30, r0
    2fe2:	29 9f       	mul	r18, r25
    2fe4:	f0 0d       	add	r31, r0
    2fe6:	11 24       	eor	r1, r1
    2fe8:	e9 5f       	subi	r30, 0xF9	; 249
    2fea:	f7 4d       	sbci	r31, 0xD7	; 215
    2fec:	21 81       	ldd	r18, Z+1	; 0x01

	switch(object) {
    2fee:	24 37       	cpi	r18, 0x74	; 116
    2ff0:	29 f5       	brne	.+74     	; 0x303c <set+0x66>
		case 't':
			if (strlen(pcmd[cstack].cvalue) != 19) {
    2ff2:	24 e3       	ldi	r18, 0x34	; 52
    2ff4:	28 9f       	mul	r18, r24
    2ff6:	e0 01       	movw	r28, r0
    2ff8:	29 9f       	mul	r18, r25
    2ffa:	d0 0d       	add	r29, r0
    2ffc:	11 24       	eor	r1, r1
    2ffe:	c7 5f       	subi	r28, 0xF7	; 247
    3000:	d7 4d       	sbci	r29, 0xD7	; 215
    3002:	fe 01       	movw	r30, r28
    3004:	01 90       	ld	r0, Z+
    3006:	00 20       	and	r0, r0
    3008:	e9 f7       	brne	.-6      	; 0x3004 <set+0x2e>
    300a:	31 97       	sbiw	r30, 0x01	; 1
    300c:	ec 1b       	sub	r30, r28
    300e:	fd 0b       	sbc	r31, r29
    3010:	73 97       	sbiw	r30, 0x13	; 19
    3012:	41 f0       	breq	.+16     	; 0x3024 <set+0x4e>
				printError(ERR_SETTIME, "set: bad time format");
    3014:	6d eb       	ldi	r22, 0xBD	; 189
    3016:	7c e8       	ldi	r23, 0x8C	; 140
    3018:	8a e5       	ldi	r24, 0x5A	; 90
    301a:	92 e0       	ldi	r25, 0x02	; 2
    301c:	0e 94 75 06 	call	0xcea	; 0xcea <printError>
				return(ERROR);
    3020:	83 e6       	ldi	r24, 0x63	; 99
    3022:	13 c0       	rjmp	.+38     	; 0x304a <set+0x74>
			}
			put_time(pcmd[cstack].cvalue);
    3024:	ce 01       	movw	r24, r28
    3026:	0e 94 05 06 	call	0xc0a	; 0xc0a <put_time>
			write_FRAM(FRAMTWIADDR, SETTIMEADDR, (uint8_t*) pcmd[cstack].cvalue, 20);
    302a:	24 e1       	ldi	r18, 0x14	; 20
    302c:	ae 01       	movw	r20, r28
    302e:	60 e0       	ldi	r22, 0x00	; 0
    3030:	70 e0       	ldi	r23, 0x00	; 0
    3032:	80 e5       	ldi	r24, 0x50	; 80
    3034:	0e 94 2e 07 	call	0xe5c	; 0xe5c <write_FRAM>

		default:
			printError(ERR_SET, "set what?");
			return(ERROR);
	}
	return(NOERROR);
    3038:	80 e0       	ldi	r24, 0x00	; 0
    303a:	07 c0       	rjmp	.+14     	; 0x304a <set+0x74>
			write_FRAM(FRAMTWIADDR, SETTIMEADDR, (uint8_t*) pcmd[cstack].cvalue, 20);
//			write_FRAM(FRAMTWIADDR, SETTIMEFRAM, (uint8_t*) pcmd[cstack].cvalue);
			break;

		default:
			printError(ERR_SET, "set what?");
    303c:	62 ed       	ldi	r22, 0xD2	; 210
    303e:	7c e8       	ldi	r23, 0x8C	; 140
    3040:	89 e5       	ldi	r24, 0x59	; 89
    3042:	92 e0       	ldi	r25, 0x02	; 2
    3044:	0e 94 75 06 	call	0xcea	; 0xcea <printError>
			return(ERROR);
    3048:	83 e6       	ldi	r24, 0x63	; 99
	}
	return(NOERROR);
}
    304a:	df 91       	pop	r29
    304c:	cf 91       	pop	r28
    304e:	08 95       	ret

00003050 <init_SPECID>:
	pullup. Must be called AFTER init_PORTS().
------------------------------------------------------------------------------*/
void init_SPECID(void)
{

	PORTF.PIN2CTRL &= ~PORT_PULLUPEN_bm;	// Remove pullup
    3050:	e0 ea       	ldi	r30, 0xA0	; 160
    3052:	f4 e0       	ldi	r31, 0x04	; 4
    3054:	82 89       	ldd	r24, Z+18	; 0x12
    3056:	87 7f       	andi	r24, 0xF7	; 247
    3058:	82 8b       	std	Z+18, r24	; 0x12
	PORTF.DIRCLR = PIN2_bm;					// Set as input
    305a:	84 e0       	ldi	r24, 0x04	; 4
    305c:	82 83       	std	Z+2, r24	; 0x02
    305e:	08 95       	ret

00003060 <get_temperature>:
	point for the actual devices.

	The signal is 1.5E-3 mV/K with a 1500 kOhm dropping resistor.
------------------------------------------------------------------------------*/
float get_temperature(uint8_t sensor)
{
    3060:	cf 93       	push	r28
    3062:	df 93       	push	r29
    3064:	00 d0       	rcall	.+0      	; 0x3066 <get_temperature+0x6>
    3066:	00 d0       	rcall	.+0      	; 0x3068 <get_temperature+0x8>
    3068:	cd b7       	in	r28, 0x3d	; 61
    306a:	de b7       	in	r29, 0x3e	; 62

	float temperature;

	switch (sensor) {
    306c:	83 30       	cpi	r24, 0x03	; 3
    306e:	18 f0       	brcs	.+6      	; 0x3076 <get_temperature+0x16>
    3070:	83 30       	cpi	r24, 0x03	; 3
    3072:	39 f0       	breq	.+14     	; 0x3082 <get_temperature+0x22>
    3074:	0b c0       	rjmp	.+22     	; 0x308c <get_temperature+0x2c>
		case 0:
		case 1:
		case 2:
			read_AD590(sensor, &temperature);
    3076:	be 01       	movw	r22, r28
    3078:	6f 5f       	subi	r22, 0xFF	; 255
    307a:	7f 4f       	sbci	r23, 0xFF	; 255
    307c:	0e 94 49 01 	call	0x292	; 0x292 <read_AD590>
			break;
    3080:	0d c0       	rjmp	.+26     	; 0x309c <get_temperature+0x3c>
		case 3:
			read_MCP9808(&temperature);
    3082:	ce 01       	movw	r24, r28
    3084:	01 96       	adiw	r24, 0x01	; 1
    3086:	0e 94 fe 08 	call	0x11fc	; 0x11fc <read_MCP9808>
			break;
    308a:	08 c0       	rjmp	.+16     	; 0x309c <get_temperature+0x3c>
		default:
			temperature = -666.0;
    308c:	80 e0       	ldi	r24, 0x00	; 0
    308e:	90 e8       	ldi	r25, 0x80	; 128
    3090:	a6 e2       	ldi	r26, 0x26	; 38
    3092:	b4 ec       	ldi	r27, 0xC4	; 196
    3094:	89 83       	std	Y+1, r24	; 0x01
    3096:	9a 83       	std	Y+2, r25	; 0x02
    3098:	ab 83       	std	Y+3, r26	; 0x03
    309a:	bc 83       	std	Y+4, r27	; 0x04
			break;
	}

	return(temperature);
    309c:	69 81       	ldd	r22, Y+1	; 0x01
    309e:	7a 81       	ldd	r23, Y+2	; 0x02
    30a0:	8b 81       	ldd	r24, Y+3	; 0x03
    30a2:	9c 81       	ldd	r25, Y+4	; 0x04

}
    30a4:	24 96       	adiw	r28, 0x04	; 4
    30a6:	cd bf       	out	0x3d, r28	; 61
    30a8:	de bf       	out	0x3e, r29	; 62
    30aa:	df 91       	pop	r29
    30ac:	cf 91       	pop	r28
    30ae:	08 95       	ret

000030b0 <testroutine>:
#include "usart.h"
#include "roboclaw.h"
#include "testroutine.h"

void testroutine(void)
{
    30b0:	0f 93       	push	r16
    30b2:	1f 93       	push	r17
    30b4:	cf 93       	push	r28
    30b6:	df 93       	push	r29
    30b8:	cd b7       	in	r28, 0x3d	; 61
    30ba:	de b7       	in	r29, 0x3e	; 62
    30bc:	e2 97       	sbiw	r28, 0x32	; 50
    30be:	cd bf       	out	0x3d, r28	; 61
    30c0:	de bf       	out	0x3e, r29	; 62


	char buf[50];

	start_TCB0(1);
    30c2:	81 e0       	ldi	r24, 0x01	; 1
    30c4:	90 e0       	ldi	r25, 0x00	; 0
    30c6:	0e 94 97 18 	call	0x312e	; 0x312e <start_TCB0>
    30ca:	8d e8       	ldi	r24, 0x8D	; 141
    30cc:	90 e2       	ldi	r25, 0x20	; 32
    30ce:	01 97       	sbiw	r24, 0x01	; 1
    30d0:	f1 f7       	brne	.-4      	; 0x30ce <testroutine+0x1e>
    30d2:	00 00       	nop
	_delay_ms(10);
	stop_TCB0();
    30d4:	0e 94 ad 18 	call	0x315a	; 0x315a <stop_TCB0>
	sprintf(buf, "ticks = %d\r\n", ticks);
    30d8:	80 91 15 2a 	lds	r24, 0x2A15	; 0x802a15 <ticks>
    30dc:	90 91 16 2a 	lds	r25, 0x2A16	; 0x802a16 <ticks+0x1>
    30e0:	9f 93       	push	r25
    30e2:	8f 93       	push	r24
    30e4:	8c ed       	ldi	r24, 0xDC	; 220
    30e6:	9c e8       	ldi	r25, 0x8C	; 140
    30e8:	9f 93       	push	r25
    30ea:	8f 93       	push	r24
    30ec:	8e 01       	movw	r16, r28
    30ee:	0f 5f       	subi	r16, 0xFF	; 255
    30f0:	1f 4f       	sbci	r17, 0xFF	; 255
    30f2:	1f 93       	push	r17
    30f4:	0f 93       	push	r16
    30f6:	0e 94 8d 23 	call	0x471a	; 0x471a <sprintf>
	send_USART(0, (uint8_t*) buf, strlen(buf));
    30fa:	f8 01       	movw	r30, r16
    30fc:	01 90       	ld	r0, Z+
    30fe:	00 20       	and	r0, r0
    3100:	e9 f7       	brne	.-6      	; 0x30fc <testroutine+0x4c>
    3102:	31 97       	sbiw	r30, 0x01	; 1
    3104:	af 01       	movw	r20, r30
    3106:	40 1b       	sub	r20, r16
    3108:	51 0b       	sbc	r21, r17
    310a:	b8 01       	movw	r22, r16
    310c:	80 e0       	ldi	r24, 0x00	; 0
    310e:	0e 94 b6 19 	call	0x336c	; 0x336c <send_USART>
	write_MCP23008(addr, OLAT, 0x00);
	_delay_ms(1000);
	write_MCP23008(addr, OLAT, 0xFF);
	send_USART(0, (uint8_t*) buf, strlen(buf));
*/
	return;
    3112:	0f 90       	pop	r0
    3114:	0f 90       	pop	r0
    3116:	0f 90       	pop	r0
    3118:	0f 90       	pop	r0
    311a:	0f 90       	pop	r0
    311c:	0f 90       	pop	r0
    311e:	e2 96       	adiw	r28, 0x32	; 50
    3120:	cd bf       	out	0x3d, r28	; 61
    3122:	de bf       	out	0x3e, r29	; 62
    3124:	df 91       	pop	r29
    3126:	cf 91       	pop	r28
    3128:	1f 91       	pop	r17
    312a:	0f 91       	pop	r16
    312c:	08 95       	ret

0000312e <start_TCB0>:
#include "timers.h"

void start_TCB0(uint16_t msPeriod)
{

	ticks = 0;
    312e:	10 92 15 2a 	sts	0x2A15, r1	; 0x802a15 <ticks>
    3132:	10 92 16 2a 	sts	0x2A16, r1	; 0x802a16 <ticks+0x1>
	TCB0.CCMP = msPeriod * (uint16_t) (F_CPU/1000UL);	// Check for overflows; msPeriod=19ms is max for 3.33MHz
    3136:	25 e0       	ldi	r18, 0x05	; 5
    3138:	3d e0       	ldi	r19, 0x0D	; 13
    313a:	ac 01       	movw	r20, r24
    313c:	42 9f       	mul	r20, r18
    313e:	c0 01       	movw	r24, r0
    3140:	43 9f       	mul	r20, r19
    3142:	90 0d       	add	r25, r0
    3144:	52 9f       	mul	r21, r18
    3146:	90 0d       	add	r25, r0
    3148:	11 24       	eor	r1, r1
    314a:	e0 e8       	ldi	r30, 0x80	; 128
    314c:	fa e0       	ldi	r31, 0x0A	; 10
    314e:	84 87       	std	Z+12, r24	; 0x0c
    3150:	95 87       	std	Z+13, r25	; 0x0d
	TCB0.INTCTRL = TCB_CAPT_bm;				// Interrupt at TOP
    3152:	81 e0       	ldi	r24, 0x01	; 1
    3154:	85 83       	std	Z+5, r24	; 0x05
//	TCB0.CTRLA = TCB_CLKSEL_CLKDIV1_gc | TCB_ENABLE_bm;	// Start the clock
	TCB0.CTRLA = TCB_ENABLE_bm;				// Start the clock
    3156:	80 83       	st	Z, r24
    3158:	08 95       	ret

0000315a <stop_TCB0>:
}

void stop_TCB0(void)
{
	
	TCB0.CTRLA = 0;
    315a:	10 92 80 0a 	sts	0x0A80, r1	; 0x800a80 <__TEXT_REGION_LENGTH__+0x7f4a80>
    315e:	08 95       	ret

00003160 <__vector_12>:

}

ISR(TCB0_INT_vect)
{
    3160:	1f 92       	push	r1
    3162:	0f 92       	push	r0
    3164:	0f b6       	in	r0, 0x3f	; 63
    3166:	0f 92       	push	r0
    3168:	11 24       	eor	r1, r1
    316a:	8f 93       	push	r24
    316c:	9f 93       	push	r25

	TCB0_INTFLAGS = TCB_CAPT_bm;	// Clear interrupt flag
    316e:	81 e0       	ldi	r24, 0x01	; 1
    3170:	80 93 86 0a 	sts	0x0A86, r24	; 0x800a86 <__TEXT_REGION_LENGTH__+0x7f4a86>
	ticks++;
    3174:	80 91 15 2a 	lds	r24, 0x2A15	; 0x802a15 <ticks>
    3178:	90 91 16 2a 	lds	r25, 0x2A16	; 0x802a16 <ticks+0x1>
    317c:	01 96       	adiw	r24, 0x01	; 1
    317e:	80 93 15 2a 	sts	0x2A15, r24	; 0x802a15 <ticks>
    3182:	90 93 16 2a 	sts	0x2A16, r25	; 0x802a16 <ticks+0x1>

    3186:	9f 91       	pop	r25
    3188:	8f 91       	pop	r24
    318a:	0f 90       	pop	r0
    318c:	0f be       	out	0x3f, r0	; 63
    318e:	0f 90       	pop	r0
    3190:	1f 90       	pop	r1
    3192:	18 95       	reti

00003194 <init_TWI>:
	4.	Set bus state to IDLE by writing 0x01 to BUSSTATE in TWIn.MSTATUS.
------------------------------------------------------------------------------*/
void init_TWI(void)
{

	TWI0.MBAUD = TWIBAUD;
    3194:	e0 ea       	ldi	r30, 0xA0	; 160
    3196:	f8 e0       	ldi	r31, 0x08	; 8
    3198:	8b e0       	ldi	r24, 0x0B	; 11
    319a:	86 83       	std	Z+6, r24	; 0x06
	TWI0.MCTRLA |= TWI_ENABLE_bm;			// Enable TWI
    319c:	83 81       	ldd	r24, Z+3	; 0x03
    319e:	81 60       	ori	r24, 0x01	; 1
    31a0:	83 83       	std	Z+3, r24	; 0x03
	TWI0.MSTATUS |= TWI_BUSSTATE_IDLE_gc;	// Set bus state to IDLE
    31a2:	85 81       	ldd	r24, Z+5	; 0x05
    31a4:	81 60       	ori	r24, 0x01	; 1
    31a6:	85 83       	std	Z+5, r24	; 0x05
    31a8:	08 95       	ret

000031aa <read_TWI>:
uint8_t read_TWI(void)
{

	uint8_t data;

	while (!(TWI0.MSTATUS & TWI_RIF_bm)) {		// Wait xfer to complete
    31aa:	01 c0       	rjmp	.+2      	; 0x31ae <read_TWI+0x4>
		asm("nop");								// Should set timer here
    31ac:	00 00       	nop
uint8_t read_TWI(void)
{

	uint8_t data;

	while (!(TWI0.MSTATUS & TWI_RIF_bm)) {		// Wait xfer to complete
    31ae:	80 91 a5 08 	lds	r24, 0x08A5	; 0x8008a5 <__TEXT_REGION_LENGTH__+0x7f48a5>
    31b2:	88 23       	and	r24, r24
    31b4:	dc f7       	brge	.-10     	; 0x31ac <read_TWI+0x2>
		asm("nop");								// Should set timer here
	}

	TWI0.MCTRLB &= ~(1<<TWI_ACKACT_bp);			// Send ACK, next read
    31b6:	e0 ea       	ldi	r30, 0xA0	; 160
    31b8:	f8 e0       	ldi	r31, 0x08	; 8
    31ba:	84 81       	ldd	r24, Z+4	; 0x04
    31bc:	8b 7f       	andi	r24, 0xFB	; 251
    31be:	84 83       	std	Z+4, r24	; 0x04
	data = TWI0.MDATA;
    31c0:	80 85       	ldd	r24, Z+8	; 0x08
	TWI0.MCTRLB |= TWI_MCMD_RECVTRANS_gc;		// Send ACK after read
    31c2:	94 81       	ldd	r25, Z+4	; 0x04
    31c4:	92 60       	ori	r25, 0x02	; 2
    31c6:	94 83       	std	Z+4, r25	; 0x04

	return(data);
}
    31c8:	08 95       	ret

000031ca <readlast_TWI>:
uint8_t readlast_TWI(void)
{

	uint8_t data;

	while (!(TWI0.MSTATUS & TWI_RIF_bm)) {		// Wait for xfer to complete
    31ca:	01 c0       	rjmp	.+2      	; 0x31ce <readlast_TWI+0x4>
		asm("nop");
    31cc:	00 00       	nop
uint8_t readlast_TWI(void)
{

	uint8_t data;

	while (!(TWI0.MSTATUS & TWI_RIF_bm)) {		// Wait for xfer to complete
    31ce:	80 91 a5 08 	lds	r24, 0x08A5	; 0x8008a5 <__TEXT_REGION_LENGTH__+0x7f48a5>
    31d2:	88 23       	and	r24, r24
    31d4:	dc f7       	brge	.-10     	; 0x31cc <readlast_TWI+0x2>
		asm("nop");
	}

	TWI0.MCTRLB |= TWI_ACKACT_NACK_gc;
    31d6:	e0 ea       	ldi	r30, 0xA0	; 160
    31d8:	f8 e0       	ldi	r31, 0x08	; 8
    31da:	84 81       	ldd	r24, Z+4	; 0x04
    31dc:	84 60       	ori	r24, 0x04	; 4
    31de:	84 83       	std	Z+4, r24	; 0x04
	data = TWI0.MDATA;
    31e0:	80 85       	ldd	r24, Z+8	; 0x08

	return(data);

}
    31e2:	08 95       	ret

000031e4 <start_TWI>:
		of TWI0.MADDR, TWI0.MDATA, or the CMD bits in TWI-.MCTRLB.
------------------------------------------------------------------------------*/
uint8_t start_TWI(uint8_t addr, uint8_t rw)
{

	if (rw == TWIREAD) {
    31e4:	61 30       	cpi	r22, 0x01	; 1
    31e6:	39 f4       	brne	.+14     	; 0x31f6 <start_TWI+0x12>
//		addr = ((addr << 1) | 0x01);
		TWI0.MADDR = ((addr << 1) | 0x01);
    31e8:	90 e0       	ldi	r25, 0x00	; 0
    31ea:	88 0f       	add	r24, r24
    31ec:	99 1f       	adc	r25, r25
    31ee:	81 60       	ori	r24, 0x01	; 1
    31f0:	80 93 a7 08 	sts	0x08A7, r24	; 0x8008a7 <__TEXT_REGION_LENGTH__+0x7f48a7>
    31f4:	03 c0       	rjmp	.+6      	; 0x31fc <start_TWI+0x18>
	} else {
//		addr = ((addr << 1) & ~0x01);
//		addr = (addr << 1);
		TWI0.MADDR = (addr << 1);
    31f6:	88 0f       	add	r24, r24
    31f8:	80 93 a7 08 	sts	0x08A7, r24	; 0x8008a7 <__TEXT_REGION_LENGTH__+0x7f48a7>
	}

//	TWI0.MADDR = addr;							// Start condition

	start_TCB0(1);
    31fc:	81 e0       	ldi	r24, 0x01	; 1
    31fe:	90 e0       	ldi	r25, 0x00	; 0
    3200:	0e 94 97 18 	call	0x312e	; 0x312e <start_TCB0>
	while (!(TWI0.MSTATUS & (TWI_WIF_bm | TWI_RIF_bm))) {
    3204:	0b c0       	rjmp	.+22     	; 0x321c <start_TWI+0x38>
		if (ticks > 10) {
    3206:	80 91 15 2a 	lds	r24, 0x2A15	; 0x802a15 <ticks>
    320a:	90 91 16 2a 	lds	r25, 0x2A16	; 0x802a16 <ticks+0x1>
    320e:	0b 97       	sbiw	r24, 0x0b	; 11
    3210:	20 f0       	brcs	.+8      	; 0x321a <start_TWI+0x36>
			stop_TCB0();
    3212:	0e 94 ad 18 	call	0x315a	; 0x315a <stop_TCB0>
			return(ERROR);
    3216:	83 e6       	ldi	r24, 0x63	; 99
    3218:	08 95       	ret
		}
		asm("nop");								// Wait for addr transmission
    321a:	00 00       	nop
	}

//	TWI0.MADDR = addr;							// Start condition

	start_TCB0(1);
	while (!(TWI0.MSTATUS & (TWI_WIF_bm | TWI_RIF_bm))) {
    321c:	80 91 a5 08 	lds	r24, 0x08A5	; 0x8008a5 <__TEXT_REGION_LENGTH__+0x7f48a5>
    3220:	80 7c       	andi	r24, 0xC0	; 192
    3222:	89 f3       	breq	.-30     	; 0x3206 <start_TWI+0x22>
			stop_TCB0();
			return(ERROR);
		}
		asm("nop");								// Wait for addr transmission
	}
	stop_TCB0();
    3224:	0e 94 ad 18 	call	0x315a	; 0x315a <stop_TCB0>
	if ((TWI0.MSTATUS & TWI_BUSERR_bm)) {		// Bus error
    3228:	80 91 a5 08 	lds	r24, 0x08A5	; 0x8008a5 <__TEXT_REGION_LENGTH__+0x7f48a5>
    322c:	82 ff       	sbrs	r24, 2
    322e:	08 c0       	rjmp	.+16     	; 0x3240 <start_TWI+0x5c>
		printError(ERR_TWI, "TWI bus");
    3230:	69 ee       	ldi	r22, 0xE9	; 233
    3232:	7c e8       	ldi	r23, 0x8C	; 140
    3234:	81 e9       	ldi	r24, 0x91	; 145
    3236:	91 e0       	ldi	r25, 0x01	; 1
    3238:	0e 94 75 06 	call	0xcea	; 0xcea <printError>
		return(ERROR);
    323c:	83 e6       	ldi	r24, 0x63	; 99
    323e:	08 95       	ret
	} else if (TWI0.MSTATUS & TWI_ARBLOST_bm) {	// Arbitration lost
    3240:	80 91 a5 08 	lds	r24, 0x08A5	; 0x8008a5 <__TEXT_REGION_LENGTH__+0x7f48a5>
    3244:	83 ff       	sbrs	r24, 3
    3246:	08 c0       	rjmp	.+16     	; 0x3258 <start_TWI+0x74>
		printError(ERR_TWI, "TWI arbitration");
    3248:	61 ef       	ldi	r22, 0xF1	; 241
    324a:	7c e8       	ldi	r23, 0x8C	; 140
    324c:	81 e9       	ldi	r24, 0x91	; 145
    324e:	91 e0       	ldi	r25, 0x01	; 1
    3250:	0e 94 75 06 	call	0xcea	; 0xcea <printError>
		return(ERROR);
    3254:	83 e6       	ldi	r24, 0x63	; 99
    3256:	08 95       	ret
	} else if (TWI0.MSTATUS & TWI_RXACK_bm) {	// No device responded
    3258:	90 91 a5 08 	lds	r25, 0x08A5	; 0x8008a5 <__TEXT_REGION_LENGTH__+0x7f48a5>
    325c:	89 2f       	mov	r24, r25
    325e:	80 71       	andi	r24, 0x10	; 16
    3260:	94 fd       	sbrc	r25, 4
		return(ERROR);
    3262:	83 e6       	ldi	r24, 0x63	; 99
	}

	return(NOERROR);

}
    3264:	08 95       	ret

00003266 <stop_TWI>:
	is a strobe action.
------------------------------------------------------------------------------*/
void stop_TWI(void)
{

	TWI0.MCTRLB = (TWI_ACKACT_bm | TWI_MCMD_STOP_gc);	// NACK and STOP
    3266:	87 e0       	ldi	r24, 0x07	; 7
    3268:	80 93 a4 08 	sts	0x08A4, r24	; 0x8008a4 <__TEXT_REGION_LENGTH__+0x7f48a4>
    326c:	08 95       	ret

0000326e <write_TWI>:
	Returns 0 on success.
------------------------------------------------------------------------------*/
uint8_t write_TWI(uint8_t data)
{

	while (!(TWI0.MSTATUS & TWI_WIF_bm)) {	// Wait for previous writes
    326e:	01 c0       	rjmp	.+2      	; 0x3272 <write_TWI+0x4>
		asm("nop");
    3270:	00 00       	nop
	Returns 0 on success.
------------------------------------------------------------------------------*/
uint8_t write_TWI(uint8_t data)
{

	while (!(TWI0.MSTATUS & TWI_WIF_bm)) {	// Wait for previous writes
    3272:	90 91 a5 08 	lds	r25, 0x08A5	; 0x8008a5 <__TEXT_REGION_LENGTH__+0x7f48a5>
    3276:	96 ff       	sbrs	r25, 6
    3278:	fb cf       	rjmp	.-10     	; 0x3270 <write_TWI+0x2>
		asm("nop");
	}

	TWI0.MDATA = data;
    327a:	80 93 a8 08 	sts	0x08A8, r24	; 0x8008a8 <__TEXT_REGION_LENGTH__+0x7f48a8>

	start_TCB0(1);			// Maybe only check on start_TWI?
    327e:	81 e0       	ldi	r24, 0x01	; 1
    3280:	90 e0       	ldi	r25, 0x00	; 0
    3282:	0e 94 97 18 	call	0x312e	; 0x312e <start_TCB0>
	while (!(TWI0.MSTATUS & TWI_WIF_bm)) {
    3286:	0b c0       	rjmp	.+22     	; 0x329e <write_TWI+0x30>
		asm("nop");
    3288:	00 00       	nop
		if (ticks > 50) {
    328a:	80 91 15 2a 	lds	r24, 0x2A15	; 0x802a15 <ticks>
    328e:	90 91 16 2a 	lds	r25, 0x2A16	; 0x802a16 <ticks+0x1>
    3292:	c3 97       	sbiw	r24, 0x33	; 51
    3294:	20 f0       	brcs	.+8      	; 0x329e <write_TWI+0x30>
			stop_TCB0();
    3296:	0e 94 ad 18 	call	0x315a	; 0x315a <stop_TCB0>
			return(ERROR);
    329a:	83 e6       	ldi	r24, 0x63	; 99
    329c:	08 95       	ret
	}

	TWI0.MDATA = data;

	start_TCB0(1);			// Maybe only check on start_TWI?
	while (!(TWI0.MSTATUS & TWI_WIF_bm)) {
    329e:	80 91 a5 08 	lds	r24, 0x08A5	; 0x8008a5 <__TEXT_REGION_LENGTH__+0x7f48a5>
    32a2:	86 ff       	sbrs	r24, 6
    32a4:	f1 cf       	rjmp	.-30     	; 0x3288 <write_TWI+0x1a>
			stop_TCB0();
			return(ERROR);
			break;
		}
	}
	stop_TCB0();
    32a6:	0e 94 ad 18 	call	0x315a	; 0x315a <stop_TCB0>
	if (TWI0.MSTATUS & TWI_RXACK_bm) {		// If device did not ACK
    32aa:	90 91 a5 08 	lds	r25, 0x08A5	; 0x8008a5 <__TEXT_REGION_LENGTH__+0x7f48a5>
    32ae:	89 2f       	mov	r24, r25
    32b0:	80 71       	andi	r24, 0x10	; 16
    32b2:	94 fd       	sbrc	r25, 4
		return(ERROR);
    32b4:	83 e6       	ldi	r24, 0x63	; 99
	} else {
		return(NOERROR);
	}

}
    32b6:	08 95       	ret

000032b8 <init_USART>:
------------------------------------------------------------------------------*/
void init_USART(void)
{

	// USART0 PA0 is TxD, PA1 is RxD, Default pin position
	PORTA.OUTSET = PIN0_bm;
    32b8:	e0 e0       	ldi	r30, 0x00	; 0
    32ba:	f4 e0       	ldi	r31, 0x04	; 4
    32bc:	81 e0       	ldi	r24, 0x01	; 1
    32be:	85 83       	std	Z+5, r24	; 0x05
	PORTA.DIRSET = PIN0_bm;
    32c0:	81 83       	std	Z+1, r24	; 0x01
//	USART0.BAUD = (uint16_t) USART_BAUD_RATE(9600);
	USART0.BAUD = (uint16_t) USART_BAUD_RATE(115200);
    32c2:	e0 e0       	ldi	r30, 0x00	; 0
    32c4:	f8 e0       	ldi	r31, 0x08	; 8
    32c6:	24 e7       	ldi	r18, 0x74	; 116
    32c8:	30 e0       	ldi	r19, 0x00	; 0
    32ca:	20 87       	std	Z+8, r18	; 0x08
    32cc:	31 87       	std	Z+9, r19	; 0x09
	USART0.CTRLA |= USART_RXCIE_bm;		// Enable receive complete interrupt
    32ce:	95 81       	ldd	r25, Z+5	; 0x05
    32d0:	90 68       	ori	r25, 0x80	; 128
    32d2:	95 83       	std	Z+5, r25	; 0x05
	USART0.CTRLB |= USART_TXEN_bm;		// Enable USART transmitter
    32d4:	96 81       	ldd	r25, Z+6	; 0x06
    32d6:	90 64       	ori	r25, 0x40	; 64
    32d8:	96 83       	std	Z+6, r25	; 0x06
	USART0.CTRLB |= USART_RXEN_bm;		// Enable USART receiver
    32da:	96 81       	ldd	r25, Z+6	; 0x06
    32dc:	90 68       	ori	r25, 0x80	; 128
    32de:	96 83       	std	Z+6, r25	; 0x06
	send0_buf.head = 0;					// Set up send/receive buffers
    32e0:	10 92 20 2d 	sts	0x2D20, r1	; 0x802d20 <send0_buf+0xff>
	send0_buf.tail = 0;
    32e4:	10 92 21 2d 	sts	0x2D21, r1	; 0x802d21 <send0_buf+0x100>
	send0_buf.done = YES;
    32e8:	80 93 25 2d 	sts	0x2D25, r24	; 0x802d25 <send0_buf+0x104>
	recv0_buf.head = 0;
    32ec:	10 92 1b 2c 	sts	0x2C1B, r1	; 0x802c1b <recv0_buf+0xff>
	recv0_buf.tail = 0;
    32f0:	10 92 1c 2c 	sts	0x2C1C, r1	; 0x802c1c <recv0_buf+0x100>
	recv0_buf.data[0] = '\0';
    32f4:	10 92 1c 2b 	sts	0x2B1C, r1	; 0x802b1c <recv0_buf>
	recv0_buf.length = 0;
    32f8:	10 92 1e 2c 	sts	0x2C1E, r1	; 0x802c1e <recv0_buf+0x102>
	recv0_buf.done = NO;
    32fc:	10 92 20 2c 	sts	0x2C20, r1	; 0x802c20 <recv0_buf+0x104>

	// USART1 PC0 is TxD, PC1 is RxD
	PORTC.OUTSET = PIN0_bm;
    3300:	e0 e4       	ldi	r30, 0x40	; 64
    3302:	f4 e0       	ldi	r31, 0x04	; 4
    3304:	85 83       	std	Z+5, r24	; 0x05
	PORTC.DIRSET = PIN0_bm;
    3306:	81 83       	std	Z+1, r24	; 0x01
	USART1.BAUD = (uint16_t) USART_BAUD_RATE(38400);
    3308:	e0 e2       	ldi	r30, 0x20	; 32
    330a:	f8 e0       	ldi	r31, 0x08	; 8
    330c:	2b e5       	ldi	r18, 0x5B	; 91
    330e:	31 e0       	ldi	r19, 0x01	; 1
    3310:	20 87       	std	Z+8, r18	; 0x08
    3312:	31 87       	std	Z+9, r19	; 0x09
	USART1.CTRLA |= USART_RXCIE_bm;		// Enable receive complete interrupt
    3314:	95 81       	ldd	r25, Z+5	; 0x05
    3316:	90 68       	ori	r25, 0x80	; 128
    3318:	95 83       	std	Z+5, r25	; 0x05
	USART1.CTRLB |= USART_TXEN_bm;		// Enable USART transmitter
    331a:	96 81       	ldd	r25, Z+6	; 0x06
    331c:	90 64       	ori	r25, 0x40	; 64
    331e:	96 83       	std	Z+6, r25	; 0x06
	USART1.CTRLB |= USART_RXEN_bm;		// Enable USART receiver
    3320:	96 81       	ldd	r25, Z+6	; 0x06
    3322:	90 68       	ori	r25, 0x80	; 128
    3324:	96 83       	std	Z+6, r25	; 0x06
	send1_buf.head = 0;
    3326:	10 92 2f 30 	sts	0x302F, r1	; 0x80302f <send1_buf+0xff>
	send1_buf.tail = 0;
    332a:	10 92 30 30 	sts	0x3030, r1	; 0x803030 <send1_buf+0x100>
	send1_buf.done = YES;
    332e:	80 93 34 30 	sts	0x3034, r24	; 0x803034 <send1_buf+0x104>
	recv1_buf.head = 0;
    3332:	10 92 16 2b 	sts	0x2B16, r1	; 0x802b16 <recv1_buf+0xff>
	recv1_buf.tail = 0;
    3336:	10 92 17 2b 	sts	0x2B17, r1	; 0x802b17 <recv1_buf+0x100>
	recv1_buf.data[0] = '\0';
    333a:	10 92 17 2a 	sts	0x2A17, r1	; 0x802a17 <recv1_buf>
	recv1_buf.done = NO;
    333e:	10 92 1b 2b 	sts	0x2B1B, r1	; 0x802b1b <recv1_buf+0x104>

	// USART3 PB0 is TxD, PB1 is RxD
	PORTB.OUTSET = PIN0_bm;
    3342:	e0 e2       	ldi	r30, 0x20	; 32
    3344:	f4 e0       	ldi	r31, 0x04	; 4
    3346:	85 83       	std	Z+5, r24	; 0x05
	PORTB.DIRSET = PIN0_bm;
    3348:	81 83       	std	Z+1, r24	; 0x01
	USART3.BAUD = (uint16_t) USART_BAUD_RATE(9600);
    334a:	e0 e6       	ldi	r30, 0x60	; 96
    334c:	f8 e0       	ldi	r31, 0x08	; 8
    334e:	2d e6       	ldi	r18, 0x6D	; 109
    3350:	35 e0       	ldi	r19, 0x05	; 5
    3352:	20 87       	std	Z+8, r18	; 0x08
    3354:	31 87       	std	Z+9, r19	; 0x09
	USART3.CTRLB |= USART_TXEN_bm;
    3356:	96 81       	ldd	r25, Z+6	; 0x06
    3358:	90 64       	ori	r25, 0x40	; 64
    335a:	96 83       	std	Z+6, r25	; 0x06
	USART3.CTRLB |= USART_RXEN_bm;
    335c:	96 81       	ldd	r25, Z+6	; 0x06
    335e:	90 68       	ori	r25, 0x80	; 128
    3360:	96 83       	std	Z+6, r25	; 0x06
	send3_buf.done = YES;
    3362:	80 93 2f 2f 	sts	0x2F2F, r24	; 0x802f2f <send3_buf+0x104>
	recv3_buf.done = NO;
    3366:	10 92 2a 2e 	sts	0x2E2A, r1	; 0x802e2a <recv3_buf+0x104>
    336a:	08 95       	ret

0000336c <send_USART>:
		"transmit data register empty" interrupt (DREIE). The USARTn_DRE_vect
		puts the bytes into the transmit register until the tail catches up
		to the head of the circular buffer.
------------------------------------------------------------------------------*/
void send_USART(uint8_t port, uint8_t *data, uint8_t nbytes)
{
    336c:	0f 93       	push	r16
    336e:	1f 93       	push	r17
    3370:	cf 93       	push	r28
    3372:	df 93       	push	r29
    3374:	eb 01       	movw	r28, r22
    3376:	14 2f       	mov	r17, r20

	uint8_t i;
	uint16_t crc;

	switch (port) {
    3378:	81 30       	cpi	r24, 0x01	; 1
    337a:	d1 f1       	breq	.+116    	; 0x33f0 <send_USART+0x84>
    337c:	20 f0       	brcs	.+8      	; 0x3386 <send_USART+0x1a>
    337e:	83 30       	cpi	r24, 0x03	; 3
    3380:	09 f4       	brne	.+2      	; 0x3384 <send_USART+0x18>
    3382:	87 c0       	rjmp	.+270    	; 0x3492 <send_USART+0x126>
    3384:	8e c0       	rjmp	.+284    	; 0x34a2 <send_USART+0x136>
		case 0:
			send0_buf.done = NO;
    3386:	10 92 25 2d 	sts	0x2D25, r1	; 0x802d25 <send0_buf+0x104>
			for (i = 0; i < nbytes; i++) {
    338a:	20 e0       	ldi	r18, 0x00	; 0
    338c:	11 c0       	rjmp	.+34     	; 0x33b0 <send_USART+0x44>
				send0_buf.data[send0_buf.head] = *data++;
    338e:	e0 e2       	ldi	r30, 0x20	; 32
    3390:	fd e2       	ldi	r31, 0x2D	; 45
    3392:	80 81       	ld	r24, Z
    3394:	90 e0       	ldi	r25, 0x00	; 0
    3396:	38 81       	ld	r19, Y
    3398:	dc 01       	movw	r26, r24
    339a:	af 5d       	subi	r26, 0xDF	; 223
    339c:	b3 4d       	sbci	r27, 0xD3	; 211
    339e:	3c 93       	st	X, r19
				send0_buf.head = (send0_buf.head + 1) % BUFSIZE;
    33a0:	01 96       	adiw	r24, 0x01	; 1
    33a2:	6f ef       	ldi	r22, 0xFF	; 255
    33a4:	70 e0       	ldi	r23, 0x00	; 0
    33a6:	0e 94 5b 21 	call	0x42b6	; 0x42b6 <__divmodhi4>
    33aa:	80 83       	st	Z, r24
	uint16_t crc;

	switch (port) {
		case 0:
			send0_buf.done = NO;
			for (i = 0; i < nbytes; i++) {
    33ac:	2f 5f       	subi	r18, 0xFF	; 255
				send0_buf.data[send0_buf.head] = *data++;
    33ae:	21 96       	adiw	r28, 0x01	; 1
	uint16_t crc;

	switch (port) {
		case 0:
			send0_buf.done = NO;
			for (i = 0; i < nbytes; i++) {
    33b0:	21 17       	cp	r18, r17
    33b2:	68 f3       	brcs	.-38     	; 0x338e <send_USART+0x22>
				send0_buf.data[send0_buf.head] = *data++;
				send0_buf.head = (send0_buf.head + 1) % BUFSIZE;
			}
			USART0.CTRLA |= USART_DREIE_bm;		// Enable interrupts
    33b4:	e0 e0       	ldi	r30, 0x00	; 0
    33b6:	f8 e0       	ldi	r31, 0x08	; 8
    33b8:	85 81       	ldd	r24, Z+5	; 0x05
    33ba:	80 62       	ori	r24, 0x20	; 32
    33bc:	85 83       	std	Z+5, r24	; 0x05
			start_TCB0(10);						// 10 ms ticks
    33be:	8a e0       	ldi	r24, 0x0A	; 10
    33c0:	90 e0       	ldi	r25, 0x00	; 0
    33c2:	0e 94 97 18 	call	0x312e	; 0x312e <start_TCB0>
			while (send0_buf.done == NO) {
    33c6:	0d c0       	rjmp	.+26     	; 0x33e2 <send_USART+0x76>
				if (ticks > 100) {				// 1 second enough?
    33c8:	80 91 15 2a 	lds	r24, 0x2A15	; 0x802a15 <ticks>
    33cc:	90 91 16 2a 	lds	r25, 0x2A16	; 0x802a16 <ticks+0x1>
    33d0:	85 36       	cpi	r24, 0x65	; 101
    33d2:	91 05       	cpc	r25, r1
    33d4:	30 f0       	brcs	.+12     	; 0x33e2 <send_USART+0x76>
					stop_TCB0();
    33d6:	0e 94 ad 18 	call	0x315a	; 0x315a <stop_TCB0>
					send0_buf.done = YES;
    33da:	81 e0       	ldi	r24, 0x01	; 1
    33dc:	80 93 25 2d 	sts	0x2D25, r24	; 0x802d25 <send0_buf+0x104>
					return;
    33e0:	60 c0       	rjmp	.+192    	; 0x34a2 <send_USART+0x136>
				send0_buf.data[send0_buf.head] = *data++;
				send0_buf.head = (send0_buf.head + 1) % BUFSIZE;
			}
			USART0.CTRLA |= USART_DREIE_bm;		// Enable interrupts
			start_TCB0(10);						// 10 ms ticks
			while (send0_buf.done == NO) {
    33e2:	80 91 25 2d 	lds	r24, 0x2D25	; 0x802d25 <send0_buf+0x104>
    33e6:	88 23       	and	r24, r24
    33e8:	79 f3       	breq	.-34     	; 0x33c8 <send_USART+0x5c>
					stop_TCB0();
					send0_buf.done = YES;
					return;
				}
			}
			stop_TCB0();
    33ea:	0e 94 ad 18 	call	0x315a	; 0x315a <stop_TCB0>
			break;
    33ee:	59 c0       	rjmp	.+178    	; 0x34a2 <send_USART+0x136>

		case 1:			// Timeouts are handled in caller routines
			crc = crc16(data, nbytes);
    33f0:	64 2f       	mov	r22, r20
    33f2:	70 e0       	ldi	r23, 0x00	; 0
    33f4:	ce 01       	movw	r24, r28
    33f6:	0e 94 36 14 	call	0x286c	; 0x286c <crc16>
    33fa:	48 2f       	mov	r20, r24
    33fc:	09 2f       	mov	r16, r25
			for (i = 0; i < nbytes; i++) {
    33fe:	20 e0       	ldi	r18, 0x00	; 0
    3400:	11 c0       	rjmp	.+34     	; 0x3424 <send_USART+0xb8>
				send1_buf.data[send1_buf.head] = *data++;
    3402:	ef e2       	ldi	r30, 0x2F	; 47
    3404:	f0 e3       	ldi	r31, 0x30	; 48
    3406:	80 81       	ld	r24, Z
    3408:	90 e0       	ldi	r25, 0x00	; 0
    340a:	38 81       	ld	r19, Y
    340c:	dc 01       	movw	r26, r24
    340e:	a0 5d       	subi	r26, 0xD0	; 208
    3410:	b0 4d       	sbci	r27, 0xD0	; 208
    3412:	3c 93       	st	X, r19
				send1_buf.head = (send1_buf.head + 1) % BUFSIZE;
    3414:	01 96       	adiw	r24, 0x01	; 1
    3416:	6f ef       	ldi	r22, 0xFF	; 255
    3418:	70 e0       	ldi	r23, 0x00	; 0
    341a:	0e 94 5b 21 	call	0x42b6	; 0x42b6 <__divmodhi4>
    341e:	80 83       	st	Z, r24
			stop_TCB0();
			break;

		case 1:			// Timeouts are handled in caller routines
			crc = crc16(data, nbytes);
			for (i = 0; i < nbytes; i++) {
    3420:	2f 5f       	subi	r18, 0xFF	; 255
				send1_buf.data[send1_buf.head] = *data++;
    3422:	21 96       	adiw	r28, 0x01	; 1
			stop_TCB0();
			break;

		case 1:			// Timeouts are handled in caller routines
			crc = crc16(data, nbytes);
			for (i = 0; i < nbytes; i++) {
    3424:	21 17       	cp	r18, r17
    3426:	68 f3       	brcs	.-38     	; 0x3402 <send_USART+0x96>
				send1_buf.data[send1_buf.head] = *data++;
				send1_buf.head = (send1_buf.head + 1) % BUFSIZE;
			}
			send1_buf.data[send1_buf.head] = (crc >> 8);
    3428:	ef e2       	ldi	r30, 0x2F	; 47
    342a:	f0 e3       	ldi	r31, 0x30	; 48
    342c:	80 81       	ld	r24, Z
    342e:	90 e0       	ldi	r25, 0x00	; 0
    3430:	dc 01       	movw	r26, r24
    3432:	a0 5d       	subi	r26, 0xD0	; 208
    3434:	b0 4d       	sbci	r27, 0xD0	; 208
    3436:	0c 93       	st	X, r16
			send1_buf.head = (send1_buf.head + 1) % BUFSIZE;
    3438:	01 96       	adiw	r24, 0x01	; 1
    343a:	2f ef       	ldi	r18, 0xFF	; 255
    343c:	30 e0       	ldi	r19, 0x00	; 0
    343e:	b9 01       	movw	r22, r18
    3440:	0e 94 5b 21 	call	0x42b6	; 0x42b6 <__divmodhi4>
			send1_buf.data[send1_buf.head] = (crc & 0xFF);
    3444:	90 e0       	ldi	r25, 0x00	; 0
    3446:	dc 01       	movw	r26, r24
    3448:	a0 5d       	subi	r26, 0xD0	; 208
    344a:	b0 4d       	sbci	r27, 0xD0	; 208
    344c:	4c 93       	st	X, r20
			send1_buf.head = (send1_buf.head + 1) % BUFSIZE;
    344e:	01 96       	adiw	r24, 0x01	; 1
    3450:	b9 01       	movw	r22, r18
    3452:	0e 94 5b 21 	call	0x42b6	; 0x42b6 <__divmodhi4>
    3456:	80 83       	st	Z, r24
			send1_buf.nbytes = nbytes + 2;
    3458:	1e 5f       	subi	r17, 0xFE	; 254
    345a:	10 93 31 30 	sts	0x3031, r17	; 0x803031 <send1_buf+0x101>
			send1_buf.nxfrd = 0;
    345e:	10 92 33 30 	sts	0x3033, r1	; 0x803033 <send1_buf+0x103>
			USART1.CTRLA |= USART_DREIE_bm;		// Enable interrupts
    3462:	e0 e2       	ldi	r30, 0x20	; 32
    3464:	f8 e0       	ldi	r31, 0x08	; 8
    3466:	85 81       	ldd	r24, Z+5	; 0x05
    3468:	80 62       	ori	r24, 0x20	; 32
    346a:	85 83       	std	Z+5, r24	; 0x05
			break;
    346c:	1a c0       	rjmp	.+52     	; 0x34a2 <send_USART+0x136>

		case 3:
			for (i = 0; i < nbytes; i++) {
				send3_buf.data[send3_buf.head] = *data++;
    346e:	ea e2       	ldi	r30, 0x2A	; 42
    3470:	ff e2       	ldi	r31, 0x2F	; 47
    3472:	80 81       	ld	r24, Z
    3474:	90 e0       	ldi	r25, 0x00	; 0
    3476:	38 81       	ld	r19, Y
    3478:	dc 01       	movw	r26, r24
    347a:	a5 5d       	subi	r26, 0xD5	; 213
    347c:	b1 4d       	sbci	r27, 0xD1	; 209
    347e:	3c 93       	st	X, r19
				send3_buf.head = (send3_buf.head + 1) % BUFSIZE;
    3480:	01 96       	adiw	r24, 0x01	; 1
    3482:	6f ef       	ldi	r22, 0xFF	; 255
    3484:	70 e0       	ldi	r23, 0x00	; 0
    3486:	0e 94 5b 21 	call	0x42b6	; 0x42b6 <__divmodhi4>
    348a:	80 83       	st	Z, r24
			send1_buf.nxfrd = 0;
			USART1.CTRLA |= USART_DREIE_bm;		// Enable interrupts
			break;

		case 3:
			for (i = 0; i < nbytes; i++) {
    348c:	2f 5f       	subi	r18, 0xFF	; 255
				send3_buf.data[send3_buf.head] = *data++;
    348e:	21 96       	adiw	r28, 0x01	; 1
    3490:	01 c0       	rjmp	.+2      	; 0x3494 <send_USART+0x128>
{

	uint8_t i;
	uint16_t crc;

	switch (port) {
    3492:	20 e0       	ldi	r18, 0x00	; 0
			send1_buf.nxfrd = 0;
			USART1.CTRLA |= USART_DREIE_bm;		// Enable interrupts
			break;

		case 3:
			for (i = 0; i < nbytes; i++) {
    3494:	21 17       	cp	r18, r17
    3496:	58 f3       	brcs	.-42     	; 0x346e <send_USART+0x102>
				send3_buf.data[send3_buf.head] = *data++;
				send3_buf.head = (send3_buf.head + 1) % BUFSIZE;
			}
			USART3.CTRLA |= USART_DREIE_bm;		// Enable interrupts
    3498:	e0 e6       	ldi	r30, 0x60	; 96
    349a:	f8 e0       	ldi	r31, 0x08	; 8
    349c:	85 81       	ldd	r24, Z+5	; 0x05
    349e:	80 62       	ori	r24, 0x20	; 32
    34a0:	85 83       	std	Z+5, r24	; 0x05

		default:
			break;
	}

}
    34a2:	df 91       	pop	r29
    34a4:	cf 91       	pop	r28
    34a6:	1f 91       	pop	r17
    34a8:	0f 91       	pop	r16
    34aa:	08 95       	ret

000034ac <__vector_17>:
	If the character received is a <CR> ('\r'), a string terminator ('\0') is
	inserted into the buffer instead of the '\r'. The done flag is set and the
	nxfrd value set back to 0.
------------------------------------------------------------------------------*/
ISR(USART0_RXC_vect)
{
    34ac:	1f 92       	push	r1
    34ae:	0f 92       	push	r0
    34b0:	0f b6       	in	r0, 0x3f	; 63
    34b2:	0f 92       	push	r0
    34b4:	11 24       	eor	r1, r1
    34b6:	5f 93       	push	r21
    34b8:	6f 93       	push	r22
    34ba:	7f 93       	push	r23
    34bc:	8f 93       	push	r24
    34be:	9f 93       	push	r25
    34c0:	af 93       	push	r26
    34c2:	bf 93       	push	r27
    34c4:	ef 93       	push	r30
    34c6:	ff 93       	push	r31

	uint8_t c;

	if (recv0_buf.length < BUFSIZE) {
    34c8:	80 91 1e 2c 	lds	r24, 0x2C1E	; 0x802c1e <recv0_buf+0x102>
    34cc:	8f 3f       	cpi	r24, 0xFF	; 255
    34ce:	19 f1       	breq	.+70     	; 0x3516 <__vector_17+0x6a>
		c = USART0.RXDATAL;
    34d0:	80 91 00 08 	lds	r24, 0x0800	; 0x800800 <__TEXT_REGION_LENGTH__+0x7f4800>
		if ((char) c == '\r') {
    34d4:	8d 30       	cpi	r24, 0x0D	; 13
    34d6:	51 f4       	brne	.+20     	; 0x34ec <__vector_17+0x40>
			recv0_buf.done = YES;
    34d8:	81 e0       	ldi	r24, 0x01	; 1
    34da:	80 93 20 2c 	sts	0x2C20, r24	; 0x802c20 <recv0_buf+0x104>
			recv0_buf.data[recv0_buf.head] = '\0';
    34de:	e0 91 1b 2c 	lds	r30, 0x2C1B	; 0x802c1b <recv0_buf+0xff>
    34e2:	f0 e0       	ldi	r31, 0x00	; 0
    34e4:	e4 5e       	subi	r30, 0xE4	; 228
    34e6:	f4 4d       	sbci	r31, 0xD4	; 212
    34e8:	10 82       	st	Z, r1
    34ea:	06 c0       	rjmp	.+12     	; 0x34f8 <__vector_17+0x4c>
		} else {
			recv0_buf.data[recv0_buf.head] = c;
    34ec:	e0 91 1b 2c 	lds	r30, 0x2C1B	; 0x802c1b <recv0_buf+0xff>
    34f0:	f0 e0       	ldi	r31, 0x00	; 0
    34f2:	e4 5e       	subi	r30, 0xE4	; 228
    34f4:	f4 4d       	sbci	r31, 0xD4	; 212
    34f6:	80 83       	st	Z, r24
		}
		recv0_buf.length++;
    34f8:	ee e1       	ldi	r30, 0x1E	; 30
    34fa:	fc e2       	ldi	r31, 0x2C	; 44
    34fc:	80 81       	ld	r24, Z
    34fe:	8f 5f       	subi	r24, 0xFF	; 255
    3500:	80 83       	st	Z, r24
		recv0_buf.head = (recv0_buf.head + 1) % BUFSIZE;
    3502:	eb e1       	ldi	r30, 0x1B	; 27
    3504:	fc e2       	ldi	r31, 0x2C	; 44
    3506:	80 81       	ld	r24, Z
    3508:	90 e0       	ldi	r25, 0x00	; 0
    350a:	01 96       	adiw	r24, 0x01	; 1
    350c:	6f ef       	ldi	r22, 0xFF	; 255
    350e:	70 e0       	ldi	r23, 0x00	; 0
    3510:	0e 94 5b 21 	call	0x42b6	; 0x42b6 <__divmodhi4>
    3514:	80 83       	st	Z, r24
	}
}
    3516:	ff 91       	pop	r31
    3518:	ef 91       	pop	r30
    351a:	bf 91       	pop	r27
    351c:	af 91       	pop	r26
    351e:	9f 91       	pop	r25
    3520:	8f 91       	pop	r24
    3522:	7f 91       	pop	r23
    3524:	6f 91       	pop	r22
    3526:	5f 91       	pop	r21
    3528:	0f 90       	pop	r0
    352a:	0f be       	out	0x3f, r0	; 63
    352c:	0f 90       	pop	r0
    352e:	1f 90       	pop	r1
    3530:	18 95       	reti

00003532 <__vector_18>:
	off this interrupt.

	Sending is started by calling send_USART(port).
------------------------------------------------------------------------------*/
ISR(USART0_DRE_vect)
{
    3532:	1f 92       	push	r1
    3534:	0f 92       	push	r0
    3536:	0f b6       	in	r0, 0x3f	; 63
    3538:	0f 92       	push	r0
    353a:	11 24       	eor	r1, r1
    353c:	8f 93       	push	r24
    353e:	9f 93       	push	r25
    3540:	ef 93       	push	r30
    3542:	ff 93       	push	r31

	USART0.CTRLA &= ~USART_DREIE_bm;	// Turn off interrupts
    3544:	e0 e0       	ldi	r30, 0x00	; 0
    3546:	f8 e0       	ldi	r31, 0x08	; 8
    3548:	85 81       	ldd	r24, Z+5	; 0x05
    354a:	8f 7d       	andi	r24, 0xDF	; 223
    354c:	85 83       	std	Z+5, r24	; 0x05
	if (send0_buf.head - send0_buf.tail) {
    354e:	80 91 20 2d 	lds	r24, 0x2D20	; 0x802d20 <send0_buf+0xff>
    3552:	e0 91 21 2d 	lds	r30, 0x2D21	; 0x802d21 <send0_buf+0x100>
    3556:	8e 17       	cp	r24, r30
    3558:	b9 f0       	breq	.+46     	; 0x3588 <__vector_18+0x56>
		USART0.TXDATAL = send0_buf.data[send0_buf.tail++];
    355a:	91 e0       	ldi	r25, 0x01	; 1
    355c:	9e 0f       	add	r25, r30
    355e:	90 93 21 2d 	sts	0x2D21, r25	; 0x802d21 <send0_buf+0x100>
    3562:	f0 e0       	ldi	r31, 0x00	; 0
    3564:	ef 5d       	subi	r30, 0xDF	; 223
    3566:	f3 4d       	sbci	r31, 0xD3	; 211
    3568:	80 81       	ld	r24, Z
    356a:	80 93 02 08 	sts	0x0802, r24	; 0x800802 <__TEXT_REGION_LENGTH__+0x7f4802>
		send0_buf.tail %= BUFSIZE;
    356e:	81 e0       	ldi	r24, 0x01	; 1
    3570:	9f 3f       	cpi	r25, 0xFF	; 255
    3572:	08 f4       	brcc	.+2      	; 0x3576 <__vector_18+0x44>
    3574:	80 e0       	ldi	r24, 0x00	; 0
    3576:	89 0f       	add	r24, r25
    3578:	80 93 21 2d 	sts	0x2D21, r24	; 0x802d21 <send0_buf+0x100>
		USART0.CTRLA |= USART_DREIE_bm;		// Turn on interrupts
    357c:	e0 e0       	ldi	r30, 0x00	; 0
    357e:	f8 e0       	ldi	r31, 0x08	; 8
    3580:	85 81       	ldd	r24, Z+5	; 0x05
    3582:	80 62       	ori	r24, 0x20	; 32
    3584:	85 83       	std	Z+5, r24	; 0x05
    3586:	03 c0       	rjmp	.+6      	; 0x358e <__vector_18+0x5c>
	} else {
		send0_buf.done = YES;
    3588:	81 e0       	ldi	r24, 0x01	; 1
    358a:	80 93 25 2d 	sts	0x2D25, r24	; 0x802d25 <send0_buf+0x104>
	}

}
    358e:	ff 91       	pop	r31
    3590:	ef 91       	pop	r30
    3592:	9f 91       	pop	r25
    3594:	8f 91       	pop	r24
    3596:	0f 90       	pop	r0
    3598:	0f be       	out	0x3f, r0	; 63
    359a:	0f 90       	pop	r0
    359c:	1f 90       	pop	r1
    359e:	18 95       	reti

000035a0 <__vector_26>:
ISR(USART1_RXC_vect)
	A byte at USART1 has been received.

------------------------------------------------------------------------------*/
ISR(USART1_RXC_vect)
{
    35a0:	1f 92       	push	r1
    35a2:	0f 92       	push	r0
    35a4:	0f b6       	in	r0, 0x3f	; 63
    35a6:	0f 92       	push	r0
    35a8:	11 24       	eor	r1, r1
    35aa:	2f 93       	push	r18
    35ac:	8f 93       	push	r24
    35ae:	9f 93       	push	r25
    35b0:	ef 93       	push	r30
    35b2:	ff 93       	push	r31

	uint8_t c;

	c = USART1.RXDATAL;
    35b4:	90 91 20 08 	lds	r25, 0x0820	; 0x800820 <__TEXT_REGION_LENGTH__+0x7f4820>

	if (recv1_buf.nxfrd < recv1_buf.nbytes) {
    35b8:	e0 91 1a 2b 	lds	r30, 0x2B1A	; 0x802b1a <recv1_buf+0x103>
    35bc:	80 91 18 2b 	lds	r24, 0x2B18	; 0x802b18 <recv1_buf+0x101>
    35c0:	e8 17       	cp	r30, r24
    35c2:	40 f4       	brcc	.+16     	; 0x35d4 <__vector_26+0x34>
		recv1_buf.data[recv1_buf.nxfrd++] = c;
    35c4:	21 e0       	ldi	r18, 0x01	; 1
    35c6:	2e 0f       	add	r18, r30
    35c8:	20 93 1a 2b 	sts	0x2B1A, r18	; 0x802b1a <recv1_buf+0x103>
    35cc:	f0 e0       	ldi	r31, 0x00	; 0
    35ce:	e9 5e       	subi	r30, 0xE9	; 233
    35d0:	f5 4d       	sbci	r31, 0xD5	; 213
    35d2:	90 83       	st	Z, r25
	}

	if (recv1_buf.nxfrd >= recv1_buf.nbytes) {
    35d4:	90 91 1a 2b 	lds	r25, 0x2B1A	; 0x802b1a <recv1_buf+0x103>
    35d8:	98 17       	cp	r25, r24
    35da:	18 f0       	brcs	.+6      	; 0x35e2 <__vector_26+0x42>
		recv1_buf.done = YES;
    35dc:	81 e0       	ldi	r24, 0x01	; 1
    35de:	80 93 1b 2b 	sts	0x2B1B, r24	; 0x802b1b <recv1_buf+0x104>
	}

}
    35e2:	ff 91       	pop	r31
    35e4:	ef 91       	pop	r30
    35e6:	9f 91       	pop	r25
    35e8:	8f 91       	pop	r24
    35ea:	2f 91       	pop	r18
    35ec:	0f 90       	pop	r0
    35ee:	0f be       	out	0x3f, r0	; 63
    35f0:	0f 90       	pop	r0
    35f2:	1f 90       	pop	r1
    35f4:	18 95       	reti

000035f6 <__vector_27>:
	off this interrupt.

	Sending is started by calling send_USART(port).
------------------------------------------------------------------------------*/
ISR(USART1_DRE_vect)
{
    35f6:	1f 92       	push	r1
    35f8:	0f 92       	push	r0
    35fa:	0f b6       	in	r0, 0x3f	; 63
    35fc:	0f 92       	push	r0
    35fe:	11 24       	eor	r1, r1
    3600:	8f 93       	push	r24
    3602:	9f 93       	push	r25
    3604:	ef 93       	push	r30
    3606:	ff 93       	push	r31

	USART1.CTRLA &= ~USART_DREIE_bm;	// Turn off interrupts
    3608:	e0 e2       	ldi	r30, 0x20	; 32
    360a:	f8 e0       	ldi	r31, 0x08	; 8
    360c:	85 81       	ldd	r24, Z+5	; 0x05
    360e:	8f 7d       	andi	r24, 0xDF	; 223
    3610:	85 83       	std	Z+5, r24	; 0x05
	if (send1_buf.head - send1_buf.tail) {
    3612:	80 91 2f 30 	lds	r24, 0x302F	; 0x80302f <send1_buf+0xff>
    3616:	e0 91 30 30 	lds	r30, 0x3030	; 0x803030 <send1_buf+0x100>
    361a:	8e 17       	cp	r24, r30
    361c:	b9 f0       	breq	.+46     	; 0x364c <__vector_27+0x56>
		USART1.TXDATAL = send1_buf.data[send1_buf.tail++];
    361e:	91 e0       	ldi	r25, 0x01	; 1
    3620:	9e 0f       	add	r25, r30
    3622:	90 93 30 30 	sts	0x3030, r25	; 0x803030 <send1_buf+0x100>
    3626:	f0 e0       	ldi	r31, 0x00	; 0
    3628:	e0 5d       	subi	r30, 0xD0	; 208
    362a:	f0 4d       	sbci	r31, 0xD0	; 208
    362c:	80 81       	ld	r24, Z
    362e:	80 93 22 08 	sts	0x0822, r24	; 0x800822 <__TEXT_REGION_LENGTH__+0x7f4822>
		send1_buf.tail %= BUFSIZE;
    3632:	81 e0       	ldi	r24, 0x01	; 1
    3634:	9f 3f       	cpi	r25, 0xFF	; 255
    3636:	08 f4       	brcc	.+2      	; 0x363a <__vector_27+0x44>
    3638:	80 e0       	ldi	r24, 0x00	; 0
    363a:	89 0f       	add	r24, r25
    363c:	80 93 30 30 	sts	0x3030, r24	; 0x803030 <send1_buf+0x100>
		USART1.CTRLA |= USART_DREIE_bm;		// Turn on interrupts
    3640:	e0 e2       	ldi	r30, 0x20	; 32
    3642:	f8 e0       	ldi	r31, 0x08	; 8
    3644:	85 81       	ldd	r24, Z+5	; 0x05
    3646:	80 62       	ori	r24, 0x20	; 32
    3648:	85 83       	std	Z+5, r24	; 0x05
    364a:	03 c0       	rjmp	.+6      	; 0x3652 <__vector_27+0x5c>
	} else {
		send1_buf.done = YES;
    364c:	81 e0       	ldi	r24, 0x01	; 1
    364e:	80 93 34 30 	sts	0x3034, r24	; 0x803034 <send1_buf+0x104>
	}

}
    3652:	ff 91       	pop	r31
    3654:	ef 91       	pop	r30
    3656:	9f 91       	pop	r25
    3658:	8f 91       	pop	r24
    365a:	0f 90       	pop	r0
    365c:	0f be       	out	0x3f, r0	; 63
    365e:	0f 90       	pop	r0
    3660:	1f 90       	pop	r1
    3662:	18 95       	reti

00003664 <__vector_37>:
	If the character received is a <CR> ('\r'), a string terminator ('\0') is
	inserted into the buffer instead of the '\r'. The done flag is set and the
	nxfrd value set back to 0.
------------------------------------------------------------------------------*/
ISR(USART3_RXC_vect)
{
    3664:	1f 92       	push	r1
    3666:	0f 92       	push	r0
    3668:	0f b6       	in	r0, 0x3f	; 63
    366a:	0f 92       	push	r0
    366c:	11 24       	eor	r1, r1
    366e:	8f 93       	push	r24
    3670:	9f 93       	push	r25
    3672:	af 93       	push	r26
    3674:	bf 93       	push	r27
    3676:	ef 93       	push	r30
    3678:	ff 93       	push	r31

	uint8_t c;

	c = USART3.RXDATAL;
    367a:	80 91 60 08 	lds	r24, 0x0860	; 0x800860 <__TEXT_REGION_LENGTH__+0x7f4860>
	if (((char) c == '\r') || (recv3_buf.nxfrd >= (BUFSIZE-1))) {
    367e:	8d 30       	cpi	r24, 0x0D	; 13
    3680:	21 f0       	breq	.+8      	; 0x368a <__vector_37+0x26>
    3682:	e0 91 29 2e 	lds	r30, 0x2E29	; 0x802e29 <recv3_buf+0x103>
    3686:	ee 3f       	cpi	r30, 0xFE	; 254
    3688:	78 f0       	brcs	.+30     	; 0x36a8 <__vector_37+0x44>
		recv3_buf.done = YES;
    368a:	81 e0       	ldi	r24, 0x01	; 1
    368c:	80 93 2a 2e 	sts	0x2E2A, r24	; 0x802e2a <recv3_buf+0x104>
		recv3_buf.data[recv3_buf.nxfrd] = 0;	// String terminator
    3690:	a9 e2       	ldi	r26, 0x29	; 41
    3692:	be e2       	ldi	r27, 0x2E	; 46
    3694:	8c 91       	ld	r24, X
    3696:	e8 2f       	mov	r30, r24
    3698:	f0 e0       	ldi	r31, 0x00	; 0
    369a:	ea 5d       	subi	r30, 0xDA	; 218
    369c:	f2 4d       	sbci	r31, 0xD2	; 210
    369e:	10 82       	st	Z, r1
		recv3_buf.nbytes = recv3_buf.nxfrd;
    36a0:	80 93 27 2e 	sts	0x2E27, r24	; 0x802e27 <recv3_buf+0x101>
		recv3_buf.nxfrd = 0;
    36a4:	1c 92       	st	X, r1
		return;
    36a6:	08 c0       	rjmp	.+16     	; 0x36b8 <__vector_37+0x54>
	} else {
		recv3_buf.data[recv3_buf.nxfrd++] = c;
    36a8:	91 e0       	ldi	r25, 0x01	; 1
    36aa:	9e 0f       	add	r25, r30
    36ac:	90 93 29 2e 	sts	0x2E29, r25	; 0x802e29 <recv3_buf+0x103>
    36b0:	f0 e0       	ldi	r31, 0x00	; 0
    36b2:	ea 5d       	subi	r30, 0xDA	; 218
    36b4:	f2 4d       	sbci	r31, 0xD2	; 210
    36b6:	80 83       	st	Z, r24
	}

}
    36b8:	ff 91       	pop	r31
    36ba:	ef 91       	pop	r30
    36bc:	bf 91       	pop	r27
    36be:	af 91       	pop	r26
    36c0:	9f 91       	pop	r25
    36c2:	8f 91       	pop	r24
    36c4:	0f 90       	pop	r0
    36c6:	0f be       	out	0x3f, r0	; 63
    36c8:	0f 90       	pop	r0
    36ca:	1f 90       	pop	r1
    36cc:	18 95       	reti

000036ce <__vector_38>:
	off this interrupt.

	Sending is started by calling send_USART(port).
------------------------------------------------------------------------------*/
ISR(USART3_DRE_vect)
{
    36ce:	1f 92       	push	r1
    36d0:	0f 92       	push	r0
    36d2:	0f b6       	in	r0, 0x3f	; 63
    36d4:	0f 92       	push	r0
    36d6:	11 24       	eor	r1, r1
    36d8:	8f 93       	push	r24
    36da:	9f 93       	push	r25
    36dc:	af 93       	push	r26
    36de:	bf 93       	push	r27
    36e0:	ef 93       	push	r30
    36e2:	ff 93       	push	r31

	USART3.TXDATAL = send3_buf.data[send3_buf.nxfrd++];
    36e4:	ae e2       	ldi	r26, 0x2E	; 46
    36e6:	bf e2       	ldi	r27, 0x2F	; 47
    36e8:	ec 91       	ld	r30, X
    36ea:	81 e0       	ldi	r24, 0x01	; 1
    36ec:	8e 0f       	add	r24, r30
    36ee:	8c 93       	st	X, r24
    36f0:	f0 e0       	ldi	r31, 0x00	; 0
    36f2:	e5 5d       	subi	r30, 0xD5	; 213
    36f4:	f1 4d       	sbci	r31, 0xD1	; 209
    36f6:	90 81       	ld	r25, Z
    36f8:	90 93 62 08 	sts	0x0862, r25	; 0x800862 <__TEXT_REGION_LENGTH__+0x7f4862>
	if (send3_buf.nxfrd >= send3_buf.nbytes) {
    36fc:	90 91 2c 2f 	lds	r25, 0x2F2C	; 0x802f2c <send3_buf+0x101>
    3700:	89 17       	cp	r24, r25
    3702:	40 f0       	brcs	.+16     	; 0x3714 <__vector_38+0x46>
		USART3.CTRLA &= ~USART_DREIE_bm;	// Turn off interrupts
    3704:	e0 e6       	ldi	r30, 0x60	; 96
    3706:	f8 e0       	ldi	r31, 0x08	; 8
    3708:	85 81       	ldd	r24, Z+5	; 0x05
    370a:	8f 7d       	andi	r24, 0xDF	; 223
    370c:	85 83       	std	Z+5, r24	; 0x05
		send3_buf.done = YES;
    370e:	81 e0       	ldi	r24, 0x01	; 1
    3710:	80 93 2f 2f 	sts	0x2F2F, r24	; 0x802f2f <send3_buf+0x104>
	}

}
    3714:	ff 91       	pop	r31
    3716:	ef 91       	pop	r30
    3718:	bf 91       	pop	r27
    371a:	af 91       	pop	r26
    371c:	9f 91       	pop	r25
    371e:	8f 91       	pop	r24
    3720:	0f 90       	pop	r0
    3722:	0f be       	out	0x3f, r0	; 63
    3724:	0f 90       	pop	r0
    3726:	1f 90       	pop	r1
    3728:	18 95       	reti

0000372a <reboot>:
#include "wdt.h"

void reboot(void)
{

	init_USART();
    372a:	0e 94 5c 19 	call	0x32b8	; 0x32b8 <init_USART>
	init_XPORT();
    372e:	0e 94 ca 1b 	call	0x3794	; 0x3794 <init_XPORT>
	CPU_CCP = CCP_IOREG_gc;
    3732:	88 ed       	ldi	r24, 0xD8	; 216
    3734:	84 bf       	out	0x34, r24	; 52
	WDT.CTRLA = WDT_PERIOD_8CLK_gc;
    3736:	81 e0       	ldi	r24, 0x01	; 1
    3738:	80 93 00 01 	sts	0x0100, r24	; 0x800100 <__TEXT_REGION_LENGTH__+0x7f4100>
    373c:	08 95       	ret

0000373e <__vector_29>:

}

ISR(PORTF_PORT_vect)
{
    373e:	1f 92       	push	r1
    3740:	0f 92       	push	r0
    3742:	0f b6       	in	r0, 0x3f	; 63
    3744:	0f 92       	push	r0
    3746:	11 24       	eor	r1, r1
    3748:	2f 93       	push	r18
    374a:	3f 93       	push	r19
    374c:	4f 93       	push	r20
    374e:	5f 93       	push	r21
    3750:	6f 93       	push	r22
    3752:	7f 93       	push	r23
    3754:	8f 93       	push	r24
    3756:	9f 93       	push	r25
    3758:	af 93       	push	r26
    375a:	bf 93       	push	r27
    375c:	ef 93       	push	r30
    375e:	ff 93       	push	r31

	if (PORTF.INTFLAGS & PIN6_bm) {		// Curiosity Nano button
    3760:	80 91 a9 04 	lds	r24, 0x04A9	; 0x8004a9 <__TEXT_REGION_LENGTH__+0x7f44a9>
    3764:	86 ff       	sbrs	r24, 6
    3766:	05 c0       	rjmp	.+10     	; 0x3772 <__vector_29+0x34>
		PORTF.INTFLAGS = PIN6_bm;		// Clear the interrupt flag
    3768:	80 e4       	ldi	r24, 0x40	; 64
    376a:	80 93 a9 04 	sts	0x04A9, r24	; 0x8004a9 <__TEXT_REGION_LENGTH__+0x7f44a9>
		reboot();
    376e:	0e 94 95 1b 	call	0x372a	; 0x372a <reboot>
	}

}
    3772:	ff 91       	pop	r31
    3774:	ef 91       	pop	r30
    3776:	bf 91       	pop	r27
    3778:	af 91       	pop	r26
    377a:	9f 91       	pop	r25
    377c:	8f 91       	pop	r24
    377e:	7f 91       	pop	r23
    3780:	6f 91       	pop	r22
    3782:	5f 91       	pop	r21
    3784:	4f 91       	pop	r20
    3786:	3f 91       	pop	r19
    3788:	2f 91       	pop	r18
    378a:	0f 90       	pop	r0
    378c:	0f be       	out	0x3f, r0	; 63
    378e:	0f 90       	pop	r0
    3790:	1f 90       	pop	r1
    3792:	18 95       	reti

00003794 <init_XPORT>:
#include "initialize.h"

void init_XPORT(void)
{

	PORTC.OUTCLR = PIN3_bm;		// PC3 is the /RESET pin for the XPort
    3794:	e0 e4       	ldi	r30, 0x40	; 64
    3796:	f4 e0       	ldi	r31, 0x04	; 4
    3798:	88 e0       	ldi	r24, 0x08	; 8
    379a:	86 83       	std	Z+6, r24	; 0x06
	PORTC.DIRSET = PIN3_bm;
    379c:	81 83       	std	Z+1, r24	; 0x01
    379e:	ad e8       	ldi	r26, 0x8D	; 141
    37a0:	b0 e2       	ldi	r27, 0x20	; 32
    37a2:	11 97       	sbiw	r26, 0x01	; 1
    37a4:	f1 f7       	brne	.-4      	; 0x37a2 <init_XPORT+0xe>
    37a6:	00 00       	nop
	_delay_ms(10);				// Reset signal wait time
	PORTC.OUTSET = PIN3_bm;
    37a8:	85 83       	std	Z+5, r24	; 0x05
    37aa:	08 95       	ret

000037ac <__subsf3>:
    37ac:	50 58       	subi	r21, 0x80	; 128

000037ae <__addsf3>:
    37ae:	bb 27       	eor	r27, r27
    37b0:	aa 27       	eor	r26, r26
    37b2:	0e 94 ee 1b 	call	0x37dc	; 0x37dc <__addsf3x>
    37b6:	0c 94 32 1d 	jmp	0x3a64	; 0x3a64 <__fp_round>
    37ba:	0e 94 24 1d 	call	0x3a48	; 0x3a48 <__fp_pscA>
    37be:	38 f0       	brcs	.+14     	; 0x37ce <__addsf3+0x20>
    37c0:	0e 94 2b 1d 	call	0x3a56	; 0x3a56 <__fp_pscB>
    37c4:	20 f0       	brcs	.+8      	; 0x37ce <__addsf3+0x20>
    37c6:	39 f4       	brne	.+14     	; 0x37d6 <__addsf3+0x28>
    37c8:	9f 3f       	cpi	r25, 0xFF	; 255
    37ca:	19 f4       	brne	.+6      	; 0x37d2 <__addsf3+0x24>
    37cc:	26 f4       	brtc	.+8      	; 0x37d6 <__addsf3+0x28>
    37ce:	0c 94 21 1d 	jmp	0x3a42	; 0x3a42 <__fp_nan>
    37d2:	0e f4       	brtc	.+2      	; 0x37d6 <__addsf3+0x28>
    37d4:	e0 95       	com	r30
    37d6:	e7 fb       	bst	r30, 7
    37d8:	0c 94 1b 1d 	jmp	0x3a36	; 0x3a36 <__fp_inf>

000037dc <__addsf3x>:
    37dc:	e9 2f       	mov	r30, r25
    37de:	0e 94 43 1d 	call	0x3a86	; 0x3a86 <__fp_split3>
    37e2:	58 f3       	brcs	.-42     	; 0x37ba <__addsf3+0xc>
    37e4:	ba 17       	cp	r27, r26
    37e6:	62 07       	cpc	r22, r18
    37e8:	73 07       	cpc	r23, r19
    37ea:	84 07       	cpc	r24, r20
    37ec:	95 07       	cpc	r25, r21
    37ee:	20 f0       	brcs	.+8      	; 0x37f8 <__addsf3x+0x1c>
    37f0:	79 f4       	brne	.+30     	; 0x3810 <__addsf3x+0x34>
    37f2:	a6 f5       	brtc	.+104    	; 0x385c <__addsf3x+0x80>
    37f4:	0c 94 65 1d 	jmp	0x3aca	; 0x3aca <__fp_zero>
    37f8:	0e f4       	brtc	.+2      	; 0x37fc <__addsf3x+0x20>
    37fa:	e0 95       	com	r30
    37fc:	0b 2e       	mov	r0, r27
    37fe:	ba 2f       	mov	r27, r26
    3800:	a0 2d       	mov	r26, r0
    3802:	0b 01       	movw	r0, r22
    3804:	b9 01       	movw	r22, r18
    3806:	90 01       	movw	r18, r0
    3808:	0c 01       	movw	r0, r24
    380a:	ca 01       	movw	r24, r20
    380c:	a0 01       	movw	r20, r0
    380e:	11 24       	eor	r1, r1
    3810:	ff 27       	eor	r31, r31
    3812:	59 1b       	sub	r21, r25
    3814:	99 f0       	breq	.+38     	; 0x383c <__addsf3x+0x60>
    3816:	59 3f       	cpi	r21, 0xF9	; 249
    3818:	50 f4       	brcc	.+20     	; 0x382e <__addsf3x+0x52>
    381a:	50 3e       	cpi	r21, 0xE0	; 224
    381c:	68 f1       	brcs	.+90     	; 0x3878 <__addsf3x+0x9c>
    381e:	1a 16       	cp	r1, r26
    3820:	f0 40       	sbci	r31, 0x00	; 0
    3822:	a2 2f       	mov	r26, r18
    3824:	23 2f       	mov	r18, r19
    3826:	34 2f       	mov	r19, r20
    3828:	44 27       	eor	r20, r20
    382a:	58 5f       	subi	r21, 0xF8	; 248
    382c:	f3 cf       	rjmp	.-26     	; 0x3814 <__addsf3x+0x38>
    382e:	46 95       	lsr	r20
    3830:	37 95       	ror	r19
    3832:	27 95       	ror	r18
    3834:	a7 95       	ror	r26
    3836:	f0 40       	sbci	r31, 0x00	; 0
    3838:	53 95       	inc	r21
    383a:	c9 f7       	brne	.-14     	; 0x382e <__addsf3x+0x52>
    383c:	7e f4       	brtc	.+30     	; 0x385c <__addsf3x+0x80>
    383e:	1f 16       	cp	r1, r31
    3840:	ba 0b       	sbc	r27, r26
    3842:	62 0b       	sbc	r22, r18
    3844:	73 0b       	sbc	r23, r19
    3846:	84 0b       	sbc	r24, r20
    3848:	ba f0       	brmi	.+46     	; 0x3878 <__addsf3x+0x9c>
    384a:	91 50       	subi	r25, 0x01	; 1
    384c:	a1 f0       	breq	.+40     	; 0x3876 <__addsf3x+0x9a>
    384e:	ff 0f       	add	r31, r31
    3850:	bb 1f       	adc	r27, r27
    3852:	66 1f       	adc	r22, r22
    3854:	77 1f       	adc	r23, r23
    3856:	88 1f       	adc	r24, r24
    3858:	c2 f7       	brpl	.-16     	; 0x384a <__addsf3x+0x6e>
    385a:	0e c0       	rjmp	.+28     	; 0x3878 <__addsf3x+0x9c>
    385c:	ba 0f       	add	r27, r26
    385e:	62 1f       	adc	r22, r18
    3860:	73 1f       	adc	r23, r19
    3862:	84 1f       	adc	r24, r20
    3864:	48 f4       	brcc	.+18     	; 0x3878 <__addsf3x+0x9c>
    3866:	87 95       	ror	r24
    3868:	77 95       	ror	r23
    386a:	67 95       	ror	r22
    386c:	b7 95       	ror	r27
    386e:	f7 95       	ror	r31
    3870:	9e 3f       	cpi	r25, 0xFE	; 254
    3872:	08 f0       	brcs	.+2      	; 0x3876 <__addsf3x+0x9a>
    3874:	b0 cf       	rjmp	.-160    	; 0x37d6 <__addsf3+0x28>
    3876:	93 95       	inc	r25
    3878:	88 0f       	add	r24, r24
    387a:	08 f0       	brcs	.+2      	; 0x387e <__addsf3x+0xa2>
    387c:	99 27       	eor	r25, r25
    387e:	ee 0f       	add	r30, r30
    3880:	97 95       	ror	r25
    3882:	87 95       	ror	r24
    3884:	08 95       	ret

00003886 <__cmpsf2>:
    3886:	0e 94 f7 1c 	call	0x39ee	; 0x39ee <__fp_cmp>
    388a:	08 f4       	brcc	.+2      	; 0x388e <__cmpsf2+0x8>
    388c:	81 e0       	ldi	r24, 0x01	; 1
    388e:	08 95       	ret

00003890 <__divsf3>:
    3890:	0e 94 5c 1c 	call	0x38b8	; 0x38b8 <__divsf3x>
    3894:	0c 94 32 1d 	jmp	0x3a64	; 0x3a64 <__fp_round>
    3898:	0e 94 2b 1d 	call	0x3a56	; 0x3a56 <__fp_pscB>
    389c:	58 f0       	brcs	.+22     	; 0x38b4 <__divsf3+0x24>
    389e:	0e 94 24 1d 	call	0x3a48	; 0x3a48 <__fp_pscA>
    38a2:	40 f0       	brcs	.+16     	; 0x38b4 <__divsf3+0x24>
    38a4:	29 f4       	brne	.+10     	; 0x38b0 <__divsf3+0x20>
    38a6:	5f 3f       	cpi	r21, 0xFF	; 255
    38a8:	29 f0       	breq	.+10     	; 0x38b4 <__divsf3+0x24>
    38aa:	0c 94 1b 1d 	jmp	0x3a36	; 0x3a36 <__fp_inf>
    38ae:	51 11       	cpse	r21, r1
    38b0:	0c 94 66 1d 	jmp	0x3acc	; 0x3acc <__fp_szero>
    38b4:	0c 94 21 1d 	jmp	0x3a42	; 0x3a42 <__fp_nan>

000038b8 <__divsf3x>:
    38b8:	0e 94 43 1d 	call	0x3a86	; 0x3a86 <__fp_split3>
    38bc:	68 f3       	brcs	.-38     	; 0x3898 <__divsf3+0x8>

000038be <__divsf3_pse>:
    38be:	99 23       	and	r25, r25
    38c0:	b1 f3       	breq	.-20     	; 0x38ae <__divsf3+0x1e>
    38c2:	55 23       	and	r21, r21
    38c4:	91 f3       	breq	.-28     	; 0x38aa <__divsf3+0x1a>
    38c6:	95 1b       	sub	r25, r21
    38c8:	55 0b       	sbc	r21, r21
    38ca:	bb 27       	eor	r27, r27
    38cc:	aa 27       	eor	r26, r26
    38ce:	62 17       	cp	r22, r18
    38d0:	73 07       	cpc	r23, r19
    38d2:	84 07       	cpc	r24, r20
    38d4:	38 f0       	brcs	.+14     	; 0x38e4 <__divsf3_pse+0x26>
    38d6:	9f 5f       	subi	r25, 0xFF	; 255
    38d8:	5f 4f       	sbci	r21, 0xFF	; 255
    38da:	22 0f       	add	r18, r18
    38dc:	33 1f       	adc	r19, r19
    38de:	44 1f       	adc	r20, r20
    38e0:	aa 1f       	adc	r26, r26
    38e2:	a9 f3       	breq	.-22     	; 0x38ce <__divsf3_pse+0x10>
    38e4:	35 d0       	rcall	.+106    	; 0x3950 <__divsf3_pse+0x92>
    38e6:	0e 2e       	mov	r0, r30
    38e8:	3a f0       	brmi	.+14     	; 0x38f8 <__divsf3_pse+0x3a>
    38ea:	e0 e8       	ldi	r30, 0x80	; 128
    38ec:	32 d0       	rcall	.+100    	; 0x3952 <__divsf3_pse+0x94>
    38ee:	91 50       	subi	r25, 0x01	; 1
    38f0:	50 40       	sbci	r21, 0x00	; 0
    38f2:	e6 95       	lsr	r30
    38f4:	00 1c       	adc	r0, r0
    38f6:	ca f7       	brpl	.-14     	; 0x38ea <__divsf3_pse+0x2c>
    38f8:	2b d0       	rcall	.+86     	; 0x3950 <__divsf3_pse+0x92>
    38fa:	fe 2f       	mov	r31, r30
    38fc:	29 d0       	rcall	.+82     	; 0x3950 <__divsf3_pse+0x92>
    38fe:	66 0f       	add	r22, r22
    3900:	77 1f       	adc	r23, r23
    3902:	88 1f       	adc	r24, r24
    3904:	bb 1f       	adc	r27, r27
    3906:	26 17       	cp	r18, r22
    3908:	37 07       	cpc	r19, r23
    390a:	48 07       	cpc	r20, r24
    390c:	ab 07       	cpc	r26, r27
    390e:	b0 e8       	ldi	r27, 0x80	; 128
    3910:	09 f0       	breq	.+2      	; 0x3914 <__divsf3_pse+0x56>
    3912:	bb 0b       	sbc	r27, r27
    3914:	80 2d       	mov	r24, r0
    3916:	bf 01       	movw	r22, r30
    3918:	ff 27       	eor	r31, r31
    391a:	93 58       	subi	r25, 0x83	; 131
    391c:	5f 4f       	sbci	r21, 0xFF	; 255
    391e:	3a f0       	brmi	.+14     	; 0x392e <__divsf3_pse+0x70>
    3920:	9e 3f       	cpi	r25, 0xFE	; 254
    3922:	51 05       	cpc	r21, r1
    3924:	78 f0       	brcs	.+30     	; 0x3944 <__divsf3_pse+0x86>
    3926:	0c 94 1b 1d 	jmp	0x3a36	; 0x3a36 <__fp_inf>
    392a:	0c 94 66 1d 	jmp	0x3acc	; 0x3acc <__fp_szero>
    392e:	5f 3f       	cpi	r21, 0xFF	; 255
    3930:	e4 f3       	brlt	.-8      	; 0x392a <__divsf3_pse+0x6c>
    3932:	98 3e       	cpi	r25, 0xE8	; 232
    3934:	d4 f3       	brlt	.-12     	; 0x392a <__divsf3_pse+0x6c>
    3936:	86 95       	lsr	r24
    3938:	77 95       	ror	r23
    393a:	67 95       	ror	r22
    393c:	b7 95       	ror	r27
    393e:	f7 95       	ror	r31
    3940:	9f 5f       	subi	r25, 0xFF	; 255
    3942:	c9 f7       	brne	.-14     	; 0x3936 <__divsf3_pse+0x78>
    3944:	88 0f       	add	r24, r24
    3946:	91 1d       	adc	r25, r1
    3948:	96 95       	lsr	r25
    394a:	87 95       	ror	r24
    394c:	97 f9       	bld	r25, 7
    394e:	08 95       	ret
    3950:	e1 e0       	ldi	r30, 0x01	; 1
    3952:	66 0f       	add	r22, r22
    3954:	77 1f       	adc	r23, r23
    3956:	88 1f       	adc	r24, r24
    3958:	bb 1f       	adc	r27, r27
    395a:	62 17       	cp	r22, r18
    395c:	73 07       	cpc	r23, r19
    395e:	84 07       	cpc	r24, r20
    3960:	ba 07       	cpc	r27, r26
    3962:	20 f0       	brcs	.+8      	; 0x396c <__divsf3_pse+0xae>
    3964:	62 1b       	sub	r22, r18
    3966:	73 0b       	sbc	r23, r19
    3968:	84 0b       	sbc	r24, r20
    396a:	ba 0b       	sbc	r27, r26
    396c:	ee 1f       	adc	r30, r30
    396e:	88 f7       	brcc	.-30     	; 0x3952 <__divsf3_pse+0x94>
    3970:	e0 95       	com	r30
    3972:	08 95       	ret

00003974 <__floatunsisf>:
    3974:	e8 94       	clt
    3976:	09 c0       	rjmp	.+18     	; 0x398a <__floatsisf+0x12>

00003978 <__floatsisf>:
    3978:	97 fb       	bst	r25, 7
    397a:	3e f4       	brtc	.+14     	; 0x398a <__floatsisf+0x12>
    397c:	90 95       	com	r25
    397e:	80 95       	com	r24
    3980:	70 95       	com	r23
    3982:	61 95       	neg	r22
    3984:	7f 4f       	sbci	r23, 0xFF	; 255
    3986:	8f 4f       	sbci	r24, 0xFF	; 255
    3988:	9f 4f       	sbci	r25, 0xFF	; 255
    398a:	99 23       	and	r25, r25
    398c:	a9 f0       	breq	.+42     	; 0x39b8 <__floatsisf+0x40>
    398e:	f9 2f       	mov	r31, r25
    3990:	96 e9       	ldi	r25, 0x96	; 150
    3992:	bb 27       	eor	r27, r27
    3994:	93 95       	inc	r25
    3996:	f6 95       	lsr	r31
    3998:	87 95       	ror	r24
    399a:	77 95       	ror	r23
    399c:	67 95       	ror	r22
    399e:	b7 95       	ror	r27
    39a0:	f1 11       	cpse	r31, r1
    39a2:	f8 cf       	rjmp	.-16     	; 0x3994 <__floatsisf+0x1c>
    39a4:	fa f4       	brpl	.+62     	; 0x39e4 <__floatsisf+0x6c>
    39a6:	bb 0f       	add	r27, r27
    39a8:	11 f4       	brne	.+4      	; 0x39ae <__floatsisf+0x36>
    39aa:	60 ff       	sbrs	r22, 0
    39ac:	1b c0       	rjmp	.+54     	; 0x39e4 <__floatsisf+0x6c>
    39ae:	6f 5f       	subi	r22, 0xFF	; 255
    39b0:	7f 4f       	sbci	r23, 0xFF	; 255
    39b2:	8f 4f       	sbci	r24, 0xFF	; 255
    39b4:	9f 4f       	sbci	r25, 0xFF	; 255
    39b6:	16 c0       	rjmp	.+44     	; 0x39e4 <__floatsisf+0x6c>
    39b8:	88 23       	and	r24, r24
    39ba:	11 f0       	breq	.+4      	; 0x39c0 <__floatsisf+0x48>
    39bc:	96 e9       	ldi	r25, 0x96	; 150
    39be:	11 c0       	rjmp	.+34     	; 0x39e2 <__floatsisf+0x6a>
    39c0:	77 23       	and	r23, r23
    39c2:	21 f0       	breq	.+8      	; 0x39cc <__floatsisf+0x54>
    39c4:	9e e8       	ldi	r25, 0x8E	; 142
    39c6:	87 2f       	mov	r24, r23
    39c8:	76 2f       	mov	r23, r22
    39ca:	05 c0       	rjmp	.+10     	; 0x39d6 <__floatsisf+0x5e>
    39cc:	66 23       	and	r22, r22
    39ce:	71 f0       	breq	.+28     	; 0x39ec <__floatsisf+0x74>
    39d0:	96 e8       	ldi	r25, 0x86	; 134
    39d2:	86 2f       	mov	r24, r22
    39d4:	70 e0       	ldi	r23, 0x00	; 0
    39d6:	60 e0       	ldi	r22, 0x00	; 0
    39d8:	2a f0       	brmi	.+10     	; 0x39e4 <__floatsisf+0x6c>
    39da:	9a 95       	dec	r25
    39dc:	66 0f       	add	r22, r22
    39de:	77 1f       	adc	r23, r23
    39e0:	88 1f       	adc	r24, r24
    39e2:	da f7       	brpl	.-10     	; 0x39da <__floatsisf+0x62>
    39e4:	88 0f       	add	r24, r24
    39e6:	96 95       	lsr	r25
    39e8:	87 95       	ror	r24
    39ea:	97 f9       	bld	r25, 7
    39ec:	08 95       	ret

000039ee <__fp_cmp>:
    39ee:	99 0f       	add	r25, r25
    39f0:	00 08       	sbc	r0, r0
    39f2:	55 0f       	add	r21, r21
    39f4:	aa 0b       	sbc	r26, r26
    39f6:	e0 e8       	ldi	r30, 0x80	; 128
    39f8:	fe ef       	ldi	r31, 0xFE	; 254
    39fa:	16 16       	cp	r1, r22
    39fc:	17 06       	cpc	r1, r23
    39fe:	e8 07       	cpc	r30, r24
    3a00:	f9 07       	cpc	r31, r25
    3a02:	c0 f0       	brcs	.+48     	; 0x3a34 <__fp_cmp+0x46>
    3a04:	12 16       	cp	r1, r18
    3a06:	13 06       	cpc	r1, r19
    3a08:	e4 07       	cpc	r30, r20
    3a0a:	f5 07       	cpc	r31, r21
    3a0c:	98 f0       	brcs	.+38     	; 0x3a34 <__fp_cmp+0x46>
    3a0e:	62 1b       	sub	r22, r18
    3a10:	73 0b       	sbc	r23, r19
    3a12:	84 0b       	sbc	r24, r20
    3a14:	95 0b       	sbc	r25, r21
    3a16:	39 f4       	brne	.+14     	; 0x3a26 <__fp_cmp+0x38>
    3a18:	0a 26       	eor	r0, r26
    3a1a:	61 f0       	breq	.+24     	; 0x3a34 <__fp_cmp+0x46>
    3a1c:	23 2b       	or	r18, r19
    3a1e:	24 2b       	or	r18, r20
    3a20:	25 2b       	or	r18, r21
    3a22:	21 f4       	brne	.+8      	; 0x3a2c <__fp_cmp+0x3e>
    3a24:	08 95       	ret
    3a26:	0a 26       	eor	r0, r26
    3a28:	09 f4       	brne	.+2      	; 0x3a2c <__fp_cmp+0x3e>
    3a2a:	a1 40       	sbci	r26, 0x01	; 1
    3a2c:	a6 95       	lsr	r26
    3a2e:	8f ef       	ldi	r24, 0xFF	; 255
    3a30:	81 1d       	adc	r24, r1
    3a32:	81 1d       	adc	r24, r1
    3a34:	08 95       	ret

00003a36 <__fp_inf>:
    3a36:	97 f9       	bld	r25, 7
    3a38:	9f 67       	ori	r25, 0x7F	; 127
    3a3a:	80 e8       	ldi	r24, 0x80	; 128
    3a3c:	70 e0       	ldi	r23, 0x00	; 0
    3a3e:	60 e0       	ldi	r22, 0x00	; 0
    3a40:	08 95       	ret

00003a42 <__fp_nan>:
    3a42:	9f ef       	ldi	r25, 0xFF	; 255
    3a44:	80 ec       	ldi	r24, 0xC0	; 192
    3a46:	08 95       	ret

00003a48 <__fp_pscA>:
    3a48:	00 24       	eor	r0, r0
    3a4a:	0a 94       	dec	r0
    3a4c:	16 16       	cp	r1, r22
    3a4e:	17 06       	cpc	r1, r23
    3a50:	18 06       	cpc	r1, r24
    3a52:	09 06       	cpc	r0, r25
    3a54:	08 95       	ret

00003a56 <__fp_pscB>:
    3a56:	00 24       	eor	r0, r0
    3a58:	0a 94       	dec	r0
    3a5a:	12 16       	cp	r1, r18
    3a5c:	13 06       	cpc	r1, r19
    3a5e:	14 06       	cpc	r1, r20
    3a60:	05 06       	cpc	r0, r21
    3a62:	08 95       	ret

00003a64 <__fp_round>:
    3a64:	09 2e       	mov	r0, r25
    3a66:	03 94       	inc	r0
    3a68:	00 0c       	add	r0, r0
    3a6a:	11 f4       	brne	.+4      	; 0x3a70 <__fp_round+0xc>
    3a6c:	88 23       	and	r24, r24
    3a6e:	52 f0       	brmi	.+20     	; 0x3a84 <__fp_round+0x20>
    3a70:	bb 0f       	add	r27, r27
    3a72:	40 f4       	brcc	.+16     	; 0x3a84 <__fp_round+0x20>
    3a74:	bf 2b       	or	r27, r31
    3a76:	11 f4       	brne	.+4      	; 0x3a7c <__fp_round+0x18>
    3a78:	60 ff       	sbrs	r22, 0
    3a7a:	04 c0       	rjmp	.+8      	; 0x3a84 <__fp_round+0x20>
    3a7c:	6f 5f       	subi	r22, 0xFF	; 255
    3a7e:	7f 4f       	sbci	r23, 0xFF	; 255
    3a80:	8f 4f       	sbci	r24, 0xFF	; 255
    3a82:	9f 4f       	sbci	r25, 0xFF	; 255
    3a84:	08 95       	ret

00003a86 <__fp_split3>:
    3a86:	57 fd       	sbrc	r21, 7
    3a88:	90 58       	subi	r25, 0x80	; 128
    3a8a:	44 0f       	add	r20, r20
    3a8c:	55 1f       	adc	r21, r21
    3a8e:	59 f0       	breq	.+22     	; 0x3aa6 <__fp_splitA+0x10>
    3a90:	5f 3f       	cpi	r21, 0xFF	; 255
    3a92:	71 f0       	breq	.+28     	; 0x3ab0 <__fp_splitA+0x1a>
    3a94:	47 95       	ror	r20

00003a96 <__fp_splitA>:
    3a96:	88 0f       	add	r24, r24
    3a98:	97 fb       	bst	r25, 7
    3a9a:	99 1f       	adc	r25, r25
    3a9c:	61 f0       	breq	.+24     	; 0x3ab6 <__fp_splitA+0x20>
    3a9e:	9f 3f       	cpi	r25, 0xFF	; 255
    3aa0:	79 f0       	breq	.+30     	; 0x3ac0 <__fp_splitA+0x2a>
    3aa2:	87 95       	ror	r24
    3aa4:	08 95       	ret
    3aa6:	12 16       	cp	r1, r18
    3aa8:	13 06       	cpc	r1, r19
    3aaa:	14 06       	cpc	r1, r20
    3aac:	55 1f       	adc	r21, r21
    3aae:	f2 cf       	rjmp	.-28     	; 0x3a94 <__fp_split3+0xe>
    3ab0:	46 95       	lsr	r20
    3ab2:	f1 df       	rcall	.-30     	; 0x3a96 <__fp_splitA>
    3ab4:	08 c0       	rjmp	.+16     	; 0x3ac6 <__fp_splitA+0x30>
    3ab6:	16 16       	cp	r1, r22
    3ab8:	17 06       	cpc	r1, r23
    3aba:	18 06       	cpc	r1, r24
    3abc:	99 1f       	adc	r25, r25
    3abe:	f1 cf       	rjmp	.-30     	; 0x3aa2 <__fp_splitA+0xc>
    3ac0:	86 95       	lsr	r24
    3ac2:	71 05       	cpc	r23, r1
    3ac4:	61 05       	cpc	r22, r1
    3ac6:	08 94       	sec
    3ac8:	08 95       	ret

00003aca <__fp_zero>:
    3aca:	e8 94       	clt

00003acc <__fp_szero>:
    3acc:	bb 27       	eor	r27, r27
    3ace:	66 27       	eor	r22, r22
    3ad0:	77 27       	eor	r23, r23
    3ad2:	cb 01       	movw	r24, r22
    3ad4:	97 f9       	bld	r25, 7
    3ad6:	08 95       	ret

00003ad8 <__gesf2>:
    3ad8:	0e 94 f7 1c 	call	0x39ee	; 0x39ee <__fp_cmp>
    3adc:	08 f4       	brcc	.+2      	; 0x3ae0 <__gesf2+0x8>
    3ade:	8f ef       	ldi	r24, 0xFF	; 255
    3ae0:	08 95       	ret

00003ae2 <__mulsf3>:
    3ae2:	0e 94 84 1d 	call	0x3b08	; 0x3b08 <__mulsf3x>
    3ae6:	0c 94 32 1d 	jmp	0x3a64	; 0x3a64 <__fp_round>
    3aea:	0e 94 24 1d 	call	0x3a48	; 0x3a48 <__fp_pscA>
    3aee:	38 f0       	brcs	.+14     	; 0x3afe <__mulsf3+0x1c>
    3af0:	0e 94 2b 1d 	call	0x3a56	; 0x3a56 <__fp_pscB>
    3af4:	20 f0       	brcs	.+8      	; 0x3afe <__mulsf3+0x1c>
    3af6:	95 23       	and	r25, r21
    3af8:	11 f0       	breq	.+4      	; 0x3afe <__mulsf3+0x1c>
    3afa:	0c 94 1b 1d 	jmp	0x3a36	; 0x3a36 <__fp_inf>
    3afe:	0c 94 21 1d 	jmp	0x3a42	; 0x3a42 <__fp_nan>
    3b02:	11 24       	eor	r1, r1
    3b04:	0c 94 66 1d 	jmp	0x3acc	; 0x3acc <__fp_szero>

00003b08 <__mulsf3x>:
    3b08:	0e 94 43 1d 	call	0x3a86	; 0x3a86 <__fp_split3>
    3b0c:	70 f3       	brcs	.-36     	; 0x3aea <__mulsf3+0x8>

00003b0e <__mulsf3_pse>:
    3b0e:	95 9f       	mul	r25, r21
    3b10:	c1 f3       	breq	.-16     	; 0x3b02 <__mulsf3+0x20>
    3b12:	95 0f       	add	r25, r21
    3b14:	50 e0       	ldi	r21, 0x00	; 0
    3b16:	55 1f       	adc	r21, r21
    3b18:	62 9f       	mul	r22, r18
    3b1a:	f0 01       	movw	r30, r0
    3b1c:	72 9f       	mul	r23, r18
    3b1e:	bb 27       	eor	r27, r27
    3b20:	f0 0d       	add	r31, r0
    3b22:	b1 1d       	adc	r27, r1
    3b24:	63 9f       	mul	r22, r19
    3b26:	aa 27       	eor	r26, r26
    3b28:	f0 0d       	add	r31, r0
    3b2a:	b1 1d       	adc	r27, r1
    3b2c:	aa 1f       	adc	r26, r26
    3b2e:	64 9f       	mul	r22, r20
    3b30:	66 27       	eor	r22, r22
    3b32:	b0 0d       	add	r27, r0
    3b34:	a1 1d       	adc	r26, r1
    3b36:	66 1f       	adc	r22, r22
    3b38:	82 9f       	mul	r24, r18
    3b3a:	22 27       	eor	r18, r18
    3b3c:	b0 0d       	add	r27, r0
    3b3e:	a1 1d       	adc	r26, r1
    3b40:	62 1f       	adc	r22, r18
    3b42:	73 9f       	mul	r23, r19
    3b44:	b0 0d       	add	r27, r0
    3b46:	a1 1d       	adc	r26, r1
    3b48:	62 1f       	adc	r22, r18
    3b4a:	83 9f       	mul	r24, r19
    3b4c:	a0 0d       	add	r26, r0
    3b4e:	61 1d       	adc	r22, r1
    3b50:	22 1f       	adc	r18, r18
    3b52:	74 9f       	mul	r23, r20
    3b54:	33 27       	eor	r19, r19
    3b56:	a0 0d       	add	r26, r0
    3b58:	61 1d       	adc	r22, r1
    3b5a:	23 1f       	adc	r18, r19
    3b5c:	84 9f       	mul	r24, r20
    3b5e:	60 0d       	add	r22, r0
    3b60:	21 1d       	adc	r18, r1
    3b62:	82 2f       	mov	r24, r18
    3b64:	76 2f       	mov	r23, r22
    3b66:	6a 2f       	mov	r22, r26
    3b68:	11 24       	eor	r1, r1
    3b6a:	9f 57       	subi	r25, 0x7F	; 127
    3b6c:	50 40       	sbci	r21, 0x00	; 0
    3b6e:	9a f0       	brmi	.+38     	; 0x3b96 <__mulsf3_pse+0x88>
    3b70:	f1 f0       	breq	.+60     	; 0x3bae <__mulsf3_pse+0xa0>
    3b72:	88 23       	and	r24, r24
    3b74:	4a f0       	brmi	.+18     	; 0x3b88 <__mulsf3_pse+0x7a>
    3b76:	ee 0f       	add	r30, r30
    3b78:	ff 1f       	adc	r31, r31
    3b7a:	bb 1f       	adc	r27, r27
    3b7c:	66 1f       	adc	r22, r22
    3b7e:	77 1f       	adc	r23, r23
    3b80:	88 1f       	adc	r24, r24
    3b82:	91 50       	subi	r25, 0x01	; 1
    3b84:	50 40       	sbci	r21, 0x00	; 0
    3b86:	a9 f7       	brne	.-22     	; 0x3b72 <__mulsf3_pse+0x64>
    3b88:	9e 3f       	cpi	r25, 0xFE	; 254
    3b8a:	51 05       	cpc	r21, r1
    3b8c:	80 f0       	brcs	.+32     	; 0x3bae <__mulsf3_pse+0xa0>
    3b8e:	0c 94 1b 1d 	jmp	0x3a36	; 0x3a36 <__fp_inf>
    3b92:	0c 94 66 1d 	jmp	0x3acc	; 0x3acc <__fp_szero>
    3b96:	5f 3f       	cpi	r21, 0xFF	; 255
    3b98:	e4 f3       	brlt	.-8      	; 0x3b92 <__mulsf3_pse+0x84>
    3b9a:	98 3e       	cpi	r25, 0xE8	; 232
    3b9c:	d4 f3       	brlt	.-12     	; 0x3b92 <__mulsf3_pse+0x84>
    3b9e:	86 95       	lsr	r24
    3ba0:	77 95       	ror	r23
    3ba2:	67 95       	ror	r22
    3ba4:	b7 95       	ror	r27
    3ba6:	f7 95       	ror	r31
    3ba8:	e7 95       	ror	r30
    3baa:	9f 5f       	subi	r25, 0xFF	; 255
    3bac:	c1 f7       	brne	.-16     	; 0x3b9e <__mulsf3_pse+0x90>
    3bae:	fe 2b       	or	r31, r30
    3bb0:	88 0f       	add	r24, r24
    3bb2:	91 1d       	adc	r25, r1
    3bb4:	96 95       	lsr	r25
    3bb6:	87 95       	ror	r24
    3bb8:	97 f9       	bld	r25, 7
    3bba:	08 95       	ret

00003bbc <vfprintf>:
    3bbc:	a0 e1       	ldi	r26, 0x10	; 16
    3bbe:	b0 e0       	ldi	r27, 0x00	; 0
    3bc0:	e4 ee       	ldi	r30, 0xE4	; 228
    3bc2:	fd e1       	ldi	r31, 0x1D	; 29
    3bc4:	0c 94 9f 21 	jmp	0x433e	; 0x433e <__prologue_saves__>
    3bc8:	7c 01       	movw	r14, r24
    3bca:	1b 01       	movw	r2, r22
    3bcc:	6a 01       	movw	r12, r20
    3bce:	fc 01       	movw	r30, r24
    3bd0:	16 82       	std	Z+6, r1	; 0x06
    3bd2:	17 82       	std	Z+7, r1	; 0x07
    3bd4:	83 81       	ldd	r24, Z+3	; 0x03
    3bd6:	81 ff       	sbrs	r24, 1
    3bd8:	44 c3       	rjmp	.+1672   	; 0x4262 <__RODATA_PM_OFFSET__+0x262>
    3bda:	9e 01       	movw	r18, r28
    3bdc:	2f 5f       	subi	r18, 0xFF	; 255
    3bde:	3f 4f       	sbci	r19, 0xFF	; 255
    3be0:	39 01       	movw	r6, r18
    3be2:	f7 01       	movw	r30, r14
    3be4:	93 81       	ldd	r25, Z+3	; 0x03
    3be6:	f1 01       	movw	r30, r2
    3be8:	93 fd       	sbrc	r25, 3
    3bea:	85 91       	lpm	r24, Z+
    3bec:	93 ff       	sbrs	r25, 3
    3bee:	81 91       	ld	r24, Z+
    3bf0:	1f 01       	movw	r2, r30
    3bf2:	88 23       	and	r24, r24
    3bf4:	09 f4       	brne	.+2      	; 0x3bf8 <vfprintf+0x3c>
    3bf6:	31 c3       	rjmp	.+1634   	; 0x425a <__RODATA_PM_OFFSET__+0x25a>
    3bf8:	85 32       	cpi	r24, 0x25	; 37
    3bfa:	39 f4       	brne	.+14     	; 0x3c0a <vfprintf+0x4e>
    3bfc:	93 fd       	sbrc	r25, 3
    3bfe:	85 91       	lpm	r24, Z+
    3c00:	93 ff       	sbrs	r25, 3
    3c02:	81 91       	ld	r24, Z+
    3c04:	1f 01       	movw	r2, r30
    3c06:	85 32       	cpi	r24, 0x25	; 37
    3c08:	39 f4       	brne	.+14     	; 0x3c18 <vfprintf+0x5c>
    3c0a:	b7 01       	movw	r22, r14
    3c0c:	90 e0       	ldi	r25, 0x00	; 0
    3c0e:	0e 94 51 23 	call	0x46a2	; 0x46a2 <fputc>
    3c12:	56 01       	movw	r10, r12
    3c14:	65 01       	movw	r12, r10
    3c16:	e5 cf       	rjmp	.-54     	; 0x3be2 <vfprintf+0x26>
    3c18:	10 e0       	ldi	r17, 0x00	; 0
    3c1a:	51 2c       	mov	r5, r1
    3c1c:	91 2c       	mov	r9, r1
    3c1e:	ff e1       	ldi	r31, 0x1F	; 31
    3c20:	f9 15       	cp	r31, r9
    3c22:	d8 f0       	brcs	.+54     	; 0x3c5a <vfprintf+0x9e>
    3c24:	8b 32       	cpi	r24, 0x2B	; 43
    3c26:	79 f0       	breq	.+30     	; 0x3c46 <vfprintf+0x8a>
    3c28:	38 f4       	brcc	.+14     	; 0x3c38 <vfprintf+0x7c>
    3c2a:	80 32       	cpi	r24, 0x20	; 32
    3c2c:	79 f0       	breq	.+30     	; 0x3c4c <vfprintf+0x90>
    3c2e:	83 32       	cpi	r24, 0x23	; 35
    3c30:	a1 f4       	brne	.+40     	; 0x3c5a <vfprintf+0x9e>
    3c32:	f9 2d       	mov	r31, r9
    3c34:	f0 61       	ori	r31, 0x10	; 16
    3c36:	2e c0       	rjmp	.+92     	; 0x3c94 <vfprintf+0xd8>
    3c38:	8d 32       	cpi	r24, 0x2D	; 45
    3c3a:	61 f0       	breq	.+24     	; 0x3c54 <vfprintf+0x98>
    3c3c:	80 33       	cpi	r24, 0x30	; 48
    3c3e:	69 f4       	brne	.+26     	; 0x3c5a <vfprintf+0x9e>
    3c40:	29 2d       	mov	r18, r9
    3c42:	21 60       	ori	r18, 0x01	; 1
    3c44:	2d c0       	rjmp	.+90     	; 0x3ca0 <vfprintf+0xe4>
    3c46:	39 2d       	mov	r19, r9
    3c48:	32 60       	ori	r19, 0x02	; 2
    3c4a:	93 2e       	mov	r9, r19
    3c4c:	89 2d       	mov	r24, r9
    3c4e:	84 60       	ori	r24, 0x04	; 4
    3c50:	98 2e       	mov	r9, r24
    3c52:	2a c0       	rjmp	.+84     	; 0x3ca8 <vfprintf+0xec>
    3c54:	e9 2d       	mov	r30, r9
    3c56:	e8 60       	ori	r30, 0x08	; 8
    3c58:	15 c0       	rjmp	.+42     	; 0x3c84 <vfprintf+0xc8>
    3c5a:	97 fc       	sbrc	r9, 7
    3c5c:	2d c0       	rjmp	.+90     	; 0x3cb8 <vfprintf+0xfc>
    3c5e:	20 ed       	ldi	r18, 0xD0	; 208
    3c60:	28 0f       	add	r18, r24
    3c62:	2a 30       	cpi	r18, 0x0A	; 10
    3c64:	88 f4       	brcc	.+34     	; 0x3c88 <vfprintf+0xcc>
    3c66:	96 fe       	sbrs	r9, 6
    3c68:	06 c0       	rjmp	.+12     	; 0x3c76 <vfprintf+0xba>
    3c6a:	3a e0       	ldi	r19, 0x0A	; 10
    3c6c:	13 9f       	mul	r17, r19
    3c6e:	20 0d       	add	r18, r0
    3c70:	11 24       	eor	r1, r1
    3c72:	12 2f       	mov	r17, r18
    3c74:	19 c0       	rjmp	.+50     	; 0x3ca8 <vfprintf+0xec>
    3c76:	8a e0       	ldi	r24, 0x0A	; 10
    3c78:	58 9e       	mul	r5, r24
    3c7a:	20 0d       	add	r18, r0
    3c7c:	11 24       	eor	r1, r1
    3c7e:	52 2e       	mov	r5, r18
    3c80:	e9 2d       	mov	r30, r9
    3c82:	e0 62       	ori	r30, 0x20	; 32
    3c84:	9e 2e       	mov	r9, r30
    3c86:	10 c0       	rjmp	.+32     	; 0x3ca8 <vfprintf+0xec>
    3c88:	8e 32       	cpi	r24, 0x2E	; 46
    3c8a:	31 f4       	brne	.+12     	; 0x3c98 <vfprintf+0xdc>
    3c8c:	96 fc       	sbrc	r9, 6
    3c8e:	e5 c2       	rjmp	.+1482   	; 0x425a <__RODATA_PM_OFFSET__+0x25a>
    3c90:	f9 2d       	mov	r31, r9
    3c92:	f0 64       	ori	r31, 0x40	; 64
    3c94:	9f 2e       	mov	r9, r31
    3c96:	08 c0       	rjmp	.+16     	; 0x3ca8 <vfprintf+0xec>
    3c98:	8c 36       	cpi	r24, 0x6C	; 108
    3c9a:	21 f4       	brne	.+8      	; 0x3ca4 <vfprintf+0xe8>
    3c9c:	29 2d       	mov	r18, r9
    3c9e:	20 68       	ori	r18, 0x80	; 128
    3ca0:	92 2e       	mov	r9, r18
    3ca2:	02 c0       	rjmp	.+4      	; 0x3ca8 <vfprintf+0xec>
    3ca4:	88 36       	cpi	r24, 0x68	; 104
    3ca6:	41 f4       	brne	.+16     	; 0x3cb8 <vfprintf+0xfc>
    3ca8:	f1 01       	movw	r30, r2
    3caa:	93 fd       	sbrc	r25, 3
    3cac:	85 91       	lpm	r24, Z+
    3cae:	93 ff       	sbrs	r25, 3
    3cb0:	81 91       	ld	r24, Z+
    3cb2:	1f 01       	movw	r2, r30
    3cb4:	81 11       	cpse	r24, r1
    3cb6:	b3 cf       	rjmp	.-154    	; 0x3c1e <vfprintf+0x62>
    3cb8:	9b eb       	ldi	r25, 0xBB	; 187
    3cba:	98 0f       	add	r25, r24
    3cbc:	93 30       	cpi	r25, 0x03	; 3
    3cbe:	20 f4       	brcc	.+8      	; 0x3cc8 <vfprintf+0x10c>
    3cc0:	99 2d       	mov	r25, r9
    3cc2:	90 61       	ori	r25, 0x10	; 16
    3cc4:	80 5e       	subi	r24, 0xE0	; 224
    3cc6:	07 c0       	rjmp	.+14     	; 0x3cd6 <vfprintf+0x11a>
    3cc8:	9b e9       	ldi	r25, 0x9B	; 155
    3cca:	98 0f       	add	r25, r24
    3ccc:	93 30       	cpi	r25, 0x03	; 3
    3cce:	08 f0       	brcs	.+2      	; 0x3cd2 <vfprintf+0x116>
    3cd0:	66 c1       	rjmp	.+716    	; 0x3f9e <vfprintf+0x3e2>
    3cd2:	99 2d       	mov	r25, r9
    3cd4:	9f 7e       	andi	r25, 0xEF	; 239
    3cd6:	96 ff       	sbrs	r25, 6
    3cd8:	16 e0       	ldi	r17, 0x06	; 6
    3cda:	9f 73       	andi	r25, 0x3F	; 63
    3cdc:	99 2e       	mov	r9, r25
    3cde:	85 36       	cpi	r24, 0x65	; 101
    3ce0:	19 f4       	brne	.+6      	; 0x3ce8 <vfprintf+0x12c>
    3ce2:	90 64       	ori	r25, 0x40	; 64
    3ce4:	99 2e       	mov	r9, r25
    3ce6:	08 c0       	rjmp	.+16     	; 0x3cf8 <vfprintf+0x13c>
    3ce8:	86 36       	cpi	r24, 0x66	; 102
    3cea:	21 f4       	brne	.+8      	; 0x3cf4 <vfprintf+0x138>
    3cec:	39 2f       	mov	r19, r25
    3cee:	30 68       	ori	r19, 0x80	; 128
    3cf0:	93 2e       	mov	r9, r19
    3cf2:	02 c0       	rjmp	.+4      	; 0x3cf8 <vfprintf+0x13c>
    3cf4:	11 11       	cpse	r17, r1
    3cf6:	11 50       	subi	r17, 0x01	; 1
    3cf8:	97 fe       	sbrs	r9, 7
    3cfa:	07 c0       	rjmp	.+14     	; 0x3d0a <vfprintf+0x14e>
    3cfc:	1c 33       	cpi	r17, 0x3C	; 60
    3cfe:	50 f4       	brcc	.+20     	; 0x3d14 <vfprintf+0x158>
    3d00:	44 24       	eor	r4, r4
    3d02:	43 94       	inc	r4
    3d04:	41 0e       	add	r4, r17
    3d06:	27 e0       	ldi	r18, 0x07	; 7
    3d08:	0b c0       	rjmp	.+22     	; 0x3d20 <vfprintf+0x164>
    3d0a:	18 30       	cpi	r17, 0x08	; 8
    3d0c:	38 f0       	brcs	.+14     	; 0x3d1c <vfprintf+0x160>
    3d0e:	27 e0       	ldi	r18, 0x07	; 7
    3d10:	17 e0       	ldi	r17, 0x07	; 7
    3d12:	05 c0       	rjmp	.+10     	; 0x3d1e <vfprintf+0x162>
    3d14:	27 e0       	ldi	r18, 0x07	; 7
    3d16:	9c e3       	ldi	r25, 0x3C	; 60
    3d18:	49 2e       	mov	r4, r25
    3d1a:	02 c0       	rjmp	.+4      	; 0x3d20 <vfprintf+0x164>
    3d1c:	21 2f       	mov	r18, r17
    3d1e:	41 2c       	mov	r4, r1
    3d20:	56 01       	movw	r10, r12
    3d22:	84 e0       	ldi	r24, 0x04	; 4
    3d24:	a8 0e       	add	r10, r24
    3d26:	b1 1c       	adc	r11, r1
    3d28:	f6 01       	movw	r30, r12
    3d2a:	60 81       	ld	r22, Z
    3d2c:	71 81       	ldd	r23, Z+1	; 0x01
    3d2e:	82 81       	ldd	r24, Z+2	; 0x02
    3d30:	93 81       	ldd	r25, Z+3	; 0x03
    3d32:	04 2d       	mov	r16, r4
    3d34:	a3 01       	movw	r20, r6
    3d36:	0e 94 3c 22 	call	0x4478	; 0x4478 <__ftoa_engine>
    3d3a:	6c 01       	movw	r12, r24
    3d3c:	f9 81       	ldd	r31, Y+1	; 0x01
    3d3e:	fc 87       	std	Y+12, r31	; 0x0c
    3d40:	f0 ff       	sbrs	r31, 0
    3d42:	02 c0       	rjmp	.+4      	; 0x3d48 <vfprintf+0x18c>
    3d44:	f3 ff       	sbrs	r31, 3
    3d46:	06 c0       	rjmp	.+12     	; 0x3d54 <vfprintf+0x198>
    3d48:	91 fc       	sbrc	r9, 1
    3d4a:	06 c0       	rjmp	.+12     	; 0x3d58 <vfprintf+0x19c>
    3d4c:	92 fe       	sbrs	r9, 2
    3d4e:	06 c0       	rjmp	.+12     	; 0x3d5c <vfprintf+0x1a0>
    3d50:	00 e2       	ldi	r16, 0x20	; 32
    3d52:	05 c0       	rjmp	.+10     	; 0x3d5e <vfprintf+0x1a2>
    3d54:	0d e2       	ldi	r16, 0x2D	; 45
    3d56:	03 c0       	rjmp	.+6      	; 0x3d5e <vfprintf+0x1a2>
    3d58:	0b e2       	ldi	r16, 0x2B	; 43
    3d5a:	01 c0       	rjmp	.+2      	; 0x3d5e <vfprintf+0x1a2>
    3d5c:	00 e0       	ldi	r16, 0x00	; 0
    3d5e:	8c 85       	ldd	r24, Y+12	; 0x0c
    3d60:	8c 70       	andi	r24, 0x0C	; 12
    3d62:	19 f0       	breq	.+6      	; 0x3d6a <vfprintf+0x1ae>
    3d64:	01 11       	cpse	r16, r1
    3d66:	5a c2       	rjmp	.+1204   	; 0x421c <__RODATA_PM_OFFSET__+0x21c>
    3d68:	9b c2       	rjmp	.+1334   	; 0x42a0 <__RODATA_PM_OFFSET__+0x2a0>
    3d6a:	97 fe       	sbrs	r9, 7
    3d6c:	10 c0       	rjmp	.+32     	; 0x3d8e <vfprintf+0x1d2>
    3d6e:	4c 0c       	add	r4, r12
    3d70:	fc 85       	ldd	r31, Y+12	; 0x0c
    3d72:	f4 ff       	sbrs	r31, 4
    3d74:	04 c0       	rjmp	.+8      	; 0x3d7e <vfprintf+0x1c2>
    3d76:	8a 81       	ldd	r24, Y+2	; 0x02
    3d78:	81 33       	cpi	r24, 0x31	; 49
    3d7a:	09 f4       	brne	.+2      	; 0x3d7e <vfprintf+0x1c2>
    3d7c:	4a 94       	dec	r4
    3d7e:	14 14       	cp	r1, r4
    3d80:	74 f5       	brge	.+92     	; 0x3dde <vfprintf+0x222>
    3d82:	28 e0       	ldi	r18, 0x08	; 8
    3d84:	24 15       	cp	r18, r4
    3d86:	78 f5       	brcc	.+94     	; 0x3de6 <vfprintf+0x22a>
    3d88:	88 e0       	ldi	r24, 0x08	; 8
    3d8a:	48 2e       	mov	r4, r24
    3d8c:	2c c0       	rjmp	.+88     	; 0x3de6 <vfprintf+0x22a>
    3d8e:	96 fc       	sbrc	r9, 6
    3d90:	2a c0       	rjmp	.+84     	; 0x3de6 <vfprintf+0x22a>
    3d92:	81 2f       	mov	r24, r17
    3d94:	90 e0       	ldi	r25, 0x00	; 0
    3d96:	8c 15       	cp	r24, r12
    3d98:	9d 05       	cpc	r25, r13
    3d9a:	9c f0       	brlt	.+38     	; 0x3dc2 <vfprintf+0x206>
    3d9c:	3c ef       	ldi	r19, 0xFC	; 252
    3d9e:	c3 16       	cp	r12, r19
    3da0:	3f ef       	ldi	r19, 0xFF	; 255
    3da2:	d3 06       	cpc	r13, r19
    3da4:	74 f0       	brlt	.+28     	; 0x3dc2 <vfprintf+0x206>
    3da6:	89 2d       	mov	r24, r9
    3da8:	80 68       	ori	r24, 0x80	; 128
    3daa:	98 2e       	mov	r9, r24
    3dac:	0a c0       	rjmp	.+20     	; 0x3dc2 <vfprintf+0x206>
    3dae:	e2 e0       	ldi	r30, 0x02	; 2
    3db0:	f0 e0       	ldi	r31, 0x00	; 0
    3db2:	ec 0f       	add	r30, r28
    3db4:	fd 1f       	adc	r31, r29
    3db6:	e1 0f       	add	r30, r17
    3db8:	f1 1d       	adc	r31, r1
    3dba:	80 81       	ld	r24, Z
    3dbc:	80 33       	cpi	r24, 0x30	; 48
    3dbe:	19 f4       	brne	.+6      	; 0x3dc6 <vfprintf+0x20a>
    3dc0:	11 50       	subi	r17, 0x01	; 1
    3dc2:	11 11       	cpse	r17, r1
    3dc4:	f4 cf       	rjmp	.-24     	; 0x3dae <vfprintf+0x1f2>
    3dc6:	97 fe       	sbrs	r9, 7
    3dc8:	0e c0       	rjmp	.+28     	; 0x3de6 <vfprintf+0x22a>
    3dca:	44 24       	eor	r4, r4
    3dcc:	43 94       	inc	r4
    3dce:	41 0e       	add	r4, r17
    3dd0:	81 2f       	mov	r24, r17
    3dd2:	90 e0       	ldi	r25, 0x00	; 0
    3dd4:	c8 16       	cp	r12, r24
    3dd6:	d9 06       	cpc	r13, r25
    3dd8:	2c f4       	brge	.+10     	; 0x3de4 <vfprintf+0x228>
    3dda:	1c 19       	sub	r17, r12
    3ddc:	04 c0       	rjmp	.+8      	; 0x3de6 <vfprintf+0x22a>
    3dde:	44 24       	eor	r4, r4
    3de0:	43 94       	inc	r4
    3de2:	01 c0       	rjmp	.+2      	; 0x3de6 <vfprintf+0x22a>
    3de4:	10 e0       	ldi	r17, 0x00	; 0
    3de6:	97 fe       	sbrs	r9, 7
    3de8:	06 c0       	rjmp	.+12     	; 0x3df6 <vfprintf+0x23a>
    3dea:	1c 14       	cp	r1, r12
    3dec:	1d 04       	cpc	r1, r13
    3dee:	34 f4       	brge	.+12     	; 0x3dfc <vfprintf+0x240>
    3df0:	c6 01       	movw	r24, r12
    3df2:	01 96       	adiw	r24, 0x01	; 1
    3df4:	05 c0       	rjmp	.+10     	; 0x3e00 <vfprintf+0x244>
    3df6:	85 e0       	ldi	r24, 0x05	; 5
    3df8:	90 e0       	ldi	r25, 0x00	; 0
    3dfa:	02 c0       	rjmp	.+4      	; 0x3e00 <vfprintf+0x244>
    3dfc:	81 e0       	ldi	r24, 0x01	; 1
    3dfe:	90 e0       	ldi	r25, 0x00	; 0
    3e00:	01 11       	cpse	r16, r1
    3e02:	01 96       	adiw	r24, 0x01	; 1
    3e04:	11 23       	and	r17, r17
    3e06:	31 f0       	breq	.+12     	; 0x3e14 <vfprintf+0x258>
    3e08:	21 2f       	mov	r18, r17
    3e0a:	30 e0       	ldi	r19, 0x00	; 0
    3e0c:	2f 5f       	subi	r18, 0xFF	; 255
    3e0e:	3f 4f       	sbci	r19, 0xFF	; 255
    3e10:	82 0f       	add	r24, r18
    3e12:	93 1f       	adc	r25, r19
    3e14:	25 2d       	mov	r18, r5
    3e16:	30 e0       	ldi	r19, 0x00	; 0
    3e18:	82 17       	cp	r24, r18
    3e1a:	93 07       	cpc	r25, r19
    3e1c:	14 f4       	brge	.+4      	; 0x3e22 <vfprintf+0x266>
    3e1e:	58 1a       	sub	r5, r24
    3e20:	01 c0       	rjmp	.+2      	; 0x3e24 <vfprintf+0x268>
    3e22:	51 2c       	mov	r5, r1
    3e24:	89 2d       	mov	r24, r9
    3e26:	89 70       	andi	r24, 0x09	; 9
    3e28:	49 f4       	brne	.+18     	; 0x3e3c <vfprintf+0x280>
    3e2a:	55 20       	and	r5, r5
    3e2c:	39 f0       	breq	.+14     	; 0x3e3c <vfprintf+0x280>
    3e2e:	b7 01       	movw	r22, r14
    3e30:	80 e2       	ldi	r24, 0x20	; 32
    3e32:	90 e0       	ldi	r25, 0x00	; 0
    3e34:	0e 94 51 23 	call	0x46a2	; 0x46a2 <fputc>
    3e38:	5a 94       	dec	r5
    3e3a:	f7 cf       	rjmp	.-18     	; 0x3e2a <vfprintf+0x26e>
    3e3c:	00 23       	and	r16, r16
    3e3e:	29 f0       	breq	.+10     	; 0x3e4a <vfprintf+0x28e>
    3e40:	b7 01       	movw	r22, r14
    3e42:	80 2f       	mov	r24, r16
    3e44:	90 e0       	ldi	r25, 0x00	; 0
    3e46:	0e 94 51 23 	call	0x46a2	; 0x46a2 <fputc>
    3e4a:	93 fc       	sbrc	r9, 3
    3e4c:	09 c0       	rjmp	.+18     	; 0x3e60 <vfprintf+0x2a4>
    3e4e:	55 20       	and	r5, r5
    3e50:	39 f0       	breq	.+14     	; 0x3e60 <vfprintf+0x2a4>
    3e52:	b7 01       	movw	r22, r14
    3e54:	80 e3       	ldi	r24, 0x30	; 48
    3e56:	90 e0       	ldi	r25, 0x00	; 0
    3e58:	0e 94 51 23 	call	0x46a2	; 0x46a2 <fputc>
    3e5c:	5a 94       	dec	r5
    3e5e:	f7 cf       	rjmp	.-18     	; 0x3e4e <vfprintf+0x292>
    3e60:	97 fe       	sbrs	r9, 7
    3e62:	4c c0       	rjmp	.+152    	; 0x3efc <vfprintf+0x340>
    3e64:	46 01       	movw	r8, r12
    3e66:	d7 fe       	sbrs	r13, 7
    3e68:	02 c0       	rjmp	.+4      	; 0x3e6e <vfprintf+0x2b2>
    3e6a:	81 2c       	mov	r8, r1
    3e6c:	91 2c       	mov	r9, r1
    3e6e:	c6 01       	movw	r24, r12
    3e70:	88 19       	sub	r24, r8
    3e72:	99 09       	sbc	r25, r9
    3e74:	f3 01       	movw	r30, r6
    3e76:	e8 0f       	add	r30, r24
    3e78:	f9 1f       	adc	r31, r25
    3e7a:	ed 87       	std	Y+13, r30	; 0x0d
    3e7c:	fe 87       	std	Y+14, r31	; 0x0e
    3e7e:	96 01       	movw	r18, r12
    3e80:	24 19       	sub	r18, r4
    3e82:	31 09       	sbc	r19, r1
    3e84:	2f 87       	std	Y+15, r18	; 0x0f
    3e86:	38 8b       	std	Y+16, r19	; 0x10
    3e88:	01 2f       	mov	r16, r17
    3e8a:	10 e0       	ldi	r17, 0x00	; 0
    3e8c:	11 95       	neg	r17
    3e8e:	01 95       	neg	r16
    3e90:	11 09       	sbc	r17, r1
    3e92:	3f ef       	ldi	r19, 0xFF	; 255
    3e94:	83 16       	cp	r8, r19
    3e96:	93 06       	cpc	r9, r19
    3e98:	29 f4       	brne	.+10     	; 0x3ea4 <vfprintf+0x2e8>
    3e9a:	b7 01       	movw	r22, r14
    3e9c:	8e e2       	ldi	r24, 0x2E	; 46
    3e9e:	90 e0       	ldi	r25, 0x00	; 0
    3ea0:	0e 94 51 23 	call	0x46a2	; 0x46a2 <fputc>
    3ea4:	c8 14       	cp	r12, r8
    3ea6:	d9 04       	cpc	r13, r9
    3ea8:	4c f0       	brlt	.+18     	; 0x3ebc <vfprintf+0x300>
    3eaa:	8f 85       	ldd	r24, Y+15	; 0x0f
    3eac:	98 89       	ldd	r25, Y+16	; 0x10
    3eae:	88 15       	cp	r24, r8
    3eb0:	99 05       	cpc	r25, r9
    3eb2:	24 f4       	brge	.+8      	; 0x3ebc <vfprintf+0x300>
    3eb4:	ed 85       	ldd	r30, Y+13	; 0x0d
    3eb6:	fe 85       	ldd	r31, Y+14	; 0x0e
    3eb8:	81 81       	ldd	r24, Z+1	; 0x01
    3eba:	01 c0       	rjmp	.+2      	; 0x3ebe <vfprintf+0x302>
    3ebc:	80 e3       	ldi	r24, 0x30	; 48
    3ebe:	f1 e0       	ldi	r31, 0x01	; 1
    3ec0:	8f 1a       	sub	r8, r31
    3ec2:	91 08       	sbc	r9, r1
    3ec4:	2d 85       	ldd	r18, Y+13	; 0x0d
    3ec6:	3e 85       	ldd	r19, Y+14	; 0x0e
    3ec8:	2f 5f       	subi	r18, 0xFF	; 255
    3eca:	3f 4f       	sbci	r19, 0xFF	; 255
    3ecc:	2d 87       	std	Y+13, r18	; 0x0d
    3ece:	3e 87       	std	Y+14, r19	; 0x0e
    3ed0:	80 16       	cp	r8, r16
    3ed2:	91 06       	cpc	r9, r17
    3ed4:	2c f0       	brlt	.+10     	; 0x3ee0 <vfprintf+0x324>
    3ed6:	b7 01       	movw	r22, r14
    3ed8:	90 e0       	ldi	r25, 0x00	; 0
    3eda:	0e 94 51 23 	call	0x46a2	; 0x46a2 <fputc>
    3ede:	d9 cf       	rjmp	.-78     	; 0x3e92 <vfprintf+0x2d6>
    3ee0:	c8 14       	cp	r12, r8
    3ee2:	d9 04       	cpc	r13, r9
    3ee4:	41 f4       	brne	.+16     	; 0x3ef6 <vfprintf+0x33a>
    3ee6:	9a 81       	ldd	r25, Y+2	; 0x02
    3ee8:	96 33       	cpi	r25, 0x36	; 54
    3eea:	20 f4       	brcc	.+8      	; 0x3ef4 <vfprintf+0x338>
    3eec:	95 33       	cpi	r25, 0x35	; 53
    3eee:	19 f4       	brne	.+6      	; 0x3ef6 <vfprintf+0x33a>
    3ef0:	3c 85       	ldd	r19, Y+12	; 0x0c
    3ef2:	34 ff       	sbrs	r19, 4
    3ef4:	81 e3       	ldi	r24, 0x31	; 49
    3ef6:	b7 01       	movw	r22, r14
    3ef8:	90 e0       	ldi	r25, 0x00	; 0
    3efa:	4e c0       	rjmp	.+156    	; 0x3f98 <vfprintf+0x3dc>
    3efc:	8a 81       	ldd	r24, Y+2	; 0x02
    3efe:	81 33       	cpi	r24, 0x31	; 49
    3f00:	19 f0       	breq	.+6      	; 0x3f08 <vfprintf+0x34c>
    3f02:	9c 85       	ldd	r25, Y+12	; 0x0c
    3f04:	9f 7e       	andi	r25, 0xEF	; 239
    3f06:	9c 87       	std	Y+12, r25	; 0x0c
    3f08:	b7 01       	movw	r22, r14
    3f0a:	90 e0       	ldi	r25, 0x00	; 0
    3f0c:	0e 94 51 23 	call	0x46a2	; 0x46a2 <fputc>
    3f10:	11 11       	cpse	r17, r1
    3f12:	05 c0       	rjmp	.+10     	; 0x3f1e <vfprintf+0x362>
    3f14:	94 fc       	sbrc	r9, 4
    3f16:	18 c0       	rjmp	.+48     	; 0x3f48 <vfprintf+0x38c>
    3f18:	85 e6       	ldi	r24, 0x65	; 101
    3f1a:	90 e0       	ldi	r25, 0x00	; 0
    3f1c:	17 c0       	rjmp	.+46     	; 0x3f4c <vfprintf+0x390>
    3f1e:	b7 01       	movw	r22, r14
    3f20:	8e e2       	ldi	r24, 0x2E	; 46
    3f22:	90 e0       	ldi	r25, 0x00	; 0
    3f24:	0e 94 51 23 	call	0x46a2	; 0x46a2 <fputc>
    3f28:	1e 5f       	subi	r17, 0xFE	; 254
    3f2a:	82 e0       	ldi	r24, 0x02	; 2
    3f2c:	01 e0       	ldi	r16, 0x01	; 1
    3f2e:	08 0f       	add	r16, r24
    3f30:	f3 01       	movw	r30, r6
    3f32:	e8 0f       	add	r30, r24
    3f34:	f1 1d       	adc	r31, r1
    3f36:	80 81       	ld	r24, Z
    3f38:	b7 01       	movw	r22, r14
    3f3a:	90 e0       	ldi	r25, 0x00	; 0
    3f3c:	0e 94 51 23 	call	0x46a2	; 0x46a2 <fputc>
    3f40:	80 2f       	mov	r24, r16
    3f42:	01 13       	cpse	r16, r17
    3f44:	f3 cf       	rjmp	.-26     	; 0x3f2c <vfprintf+0x370>
    3f46:	e6 cf       	rjmp	.-52     	; 0x3f14 <vfprintf+0x358>
    3f48:	85 e4       	ldi	r24, 0x45	; 69
    3f4a:	90 e0       	ldi	r25, 0x00	; 0
    3f4c:	b7 01       	movw	r22, r14
    3f4e:	0e 94 51 23 	call	0x46a2	; 0x46a2 <fputc>
    3f52:	d7 fc       	sbrc	r13, 7
    3f54:	06 c0       	rjmp	.+12     	; 0x3f62 <vfprintf+0x3a6>
    3f56:	c1 14       	cp	r12, r1
    3f58:	d1 04       	cpc	r13, r1
    3f5a:	41 f4       	brne	.+16     	; 0x3f6c <vfprintf+0x3b0>
    3f5c:	ec 85       	ldd	r30, Y+12	; 0x0c
    3f5e:	e4 ff       	sbrs	r30, 4
    3f60:	05 c0       	rjmp	.+10     	; 0x3f6c <vfprintf+0x3b0>
    3f62:	d1 94       	neg	r13
    3f64:	c1 94       	neg	r12
    3f66:	d1 08       	sbc	r13, r1
    3f68:	8d e2       	ldi	r24, 0x2D	; 45
    3f6a:	01 c0       	rjmp	.+2      	; 0x3f6e <vfprintf+0x3b2>
    3f6c:	8b e2       	ldi	r24, 0x2B	; 43
    3f6e:	b7 01       	movw	r22, r14
    3f70:	90 e0       	ldi	r25, 0x00	; 0
    3f72:	0e 94 51 23 	call	0x46a2	; 0x46a2 <fputc>
    3f76:	80 e3       	ldi	r24, 0x30	; 48
    3f78:	2a e0       	ldi	r18, 0x0A	; 10
    3f7a:	c2 16       	cp	r12, r18
    3f7c:	d1 04       	cpc	r13, r1
    3f7e:	2c f0       	brlt	.+10     	; 0x3f8a <vfprintf+0x3ce>
    3f80:	8f 5f       	subi	r24, 0xFF	; 255
    3f82:	fa e0       	ldi	r31, 0x0A	; 10
    3f84:	cf 1a       	sub	r12, r31
    3f86:	d1 08       	sbc	r13, r1
    3f88:	f7 cf       	rjmp	.-18     	; 0x3f78 <vfprintf+0x3bc>
    3f8a:	b7 01       	movw	r22, r14
    3f8c:	90 e0       	ldi	r25, 0x00	; 0
    3f8e:	0e 94 51 23 	call	0x46a2	; 0x46a2 <fputc>
    3f92:	b7 01       	movw	r22, r14
    3f94:	c6 01       	movw	r24, r12
    3f96:	c0 96       	adiw	r24, 0x30	; 48
    3f98:	0e 94 51 23 	call	0x46a2	; 0x46a2 <fputc>
    3f9c:	54 c1       	rjmp	.+680    	; 0x4246 <__RODATA_PM_OFFSET__+0x246>
    3f9e:	83 36       	cpi	r24, 0x63	; 99
    3fa0:	31 f0       	breq	.+12     	; 0x3fae <vfprintf+0x3f2>
    3fa2:	83 37       	cpi	r24, 0x73	; 115
    3fa4:	79 f0       	breq	.+30     	; 0x3fc4 <vfprintf+0x408>
    3fa6:	83 35       	cpi	r24, 0x53	; 83
    3fa8:	09 f0       	breq	.+2      	; 0x3fac <vfprintf+0x3f0>
    3faa:	56 c0       	rjmp	.+172    	; 0x4058 <__RODATA_PM_OFFSET__+0x58>
    3fac:	20 c0       	rjmp	.+64     	; 0x3fee <vfprintf+0x432>
    3fae:	56 01       	movw	r10, r12
    3fb0:	32 e0       	ldi	r19, 0x02	; 2
    3fb2:	a3 0e       	add	r10, r19
    3fb4:	b1 1c       	adc	r11, r1
    3fb6:	f6 01       	movw	r30, r12
    3fb8:	80 81       	ld	r24, Z
    3fba:	89 83       	std	Y+1, r24	; 0x01
    3fbc:	01 e0       	ldi	r16, 0x01	; 1
    3fbe:	10 e0       	ldi	r17, 0x00	; 0
    3fc0:	63 01       	movw	r12, r6
    3fc2:	12 c0       	rjmp	.+36     	; 0x3fe8 <vfprintf+0x42c>
    3fc4:	56 01       	movw	r10, r12
    3fc6:	f2 e0       	ldi	r31, 0x02	; 2
    3fc8:	af 0e       	add	r10, r31
    3fca:	b1 1c       	adc	r11, r1
    3fcc:	f6 01       	movw	r30, r12
    3fce:	c0 80       	ld	r12, Z
    3fd0:	d1 80       	ldd	r13, Z+1	; 0x01
    3fd2:	96 fe       	sbrs	r9, 6
    3fd4:	03 c0       	rjmp	.+6      	; 0x3fdc <vfprintf+0x420>
    3fd6:	61 2f       	mov	r22, r17
    3fd8:	70 e0       	ldi	r23, 0x00	; 0
    3fda:	02 c0       	rjmp	.+4      	; 0x3fe0 <vfprintf+0x424>
    3fdc:	6f ef       	ldi	r22, 0xFF	; 255
    3fde:	7f ef       	ldi	r23, 0xFF	; 255
    3fe0:	c6 01       	movw	r24, r12
    3fe2:	0e 94 31 23 	call	0x4662	; 0x4662 <strnlen>
    3fe6:	8c 01       	movw	r16, r24
    3fe8:	f9 2d       	mov	r31, r9
    3fea:	ff 77       	andi	r31, 0x7F	; 127
    3fec:	14 c0       	rjmp	.+40     	; 0x4016 <__RODATA_PM_OFFSET__+0x16>
    3fee:	56 01       	movw	r10, r12
    3ff0:	22 e0       	ldi	r18, 0x02	; 2
    3ff2:	a2 0e       	add	r10, r18
    3ff4:	b1 1c       	adc	r11, r1
    3ff6:	f6 01       	movw	r30, r12
    3ff8:	c0 80       	ld	r12, Z
    3ffa:	d1 80       	ldd	r13, Z+1	; 0x01
    3ffc:	96 fe       	sbrs	r9, 6
    3ffe:	03 c0       	rjmp	.+6      	; 0x4006 <__RODATA_PM_OFFSET__+0x6>
    4000:	61 2f       	mov	r22, r17
    4002:	70 e0       	ldi	r23, 0x00	; 0
    4004:	02 c0       	rjmp	.+4      	; 0x400a <__RODATA_PM_OFFSET__+0xa>
    4006:	6f ef       	ldi	r22, 0xFF	; 255
    4008:	7f ef       	ldi	r23, 0xFF	; 255
    400a:	c6 01       	movw	r24, r12
    400c:	0e 94 14 23 	call	0x4628	; 0x4628 <strnlen_P>
    4010:	8c 01       	movw	r16, r24
    4012:	f9 2d       	mov	r31, r9
    4014:	f0 68       	ori	r31, 0x80	; 128
    4016:	9f 2e       	mov	r9, r31
    4018:	f3 fd       	sbrc	r31, 3
    401a:	1a c0       	rjmp	.+52     	; 0x4050 <__RODATA_PM_OFFSET__+0x50>
    401c:	85 2d       	mov	r24, r5
    401e:	90 e0       	ldi	r25, 0x00	; 0
    4020:	08 17       	cp	r16, r24
    4022:	19 07       	cpc	r17, r25
    4024:	a8 f4       	brcc	.+42     	; 0x4050 <__RODATA_PM_OFFSET__+0x50>
    4026:	b7 01       	movw	r22, r14
    4028:	80 e2       	ldi	r24, 0x20	; 32
    402a:	90 e0       	ldi	r25, 0x00	; 0
    402c:	0e 94 51 23 	call	0x46a2	; 0x46a2 <fputc>
    4030:	5a 94       	dec	r5
    4032:	f4 cf       	rjmp	.-24     	; 0x401c <__RODATA_PM_OFFSET__+0x1c>
    4034:	f6 01       	movw	r30, r12
    4036:	97 fc       	sbrc	r9, 7
    4038:	85 91       	lpm	r24, Z+
    403a:	97 fe       	sbrs	r9, 7
    403c:	81 91       	ld	r24, Z+
    403e:	6f 01       	movw	r12, r30
    4040:	b7 01       	movw	r22, r14
    4042:	90 e0       	ldi	r25, 0x00	; 0
    4044:	0e 94 51 23 	call	0x46a2	; 0x46a2 <fputc>
    4048:	51 10       	cpse	r5, r1
    404a:	5a 94       	dec	r5
    404c:	01 50       	subi	r16, 0x01	; 1
    404e:	11 09       	sbc	r17, r1
    4050:	01 15       	cp	r16, r1
    4052:	11 05       	cpc	r17, r1
    4054:	79 f7       	brne	.-34     	; 0x4034 <__RODATA_PM_OFFSET__+0x34>
    4056:	f7 c0       	rjmp	.+494    	; 0x4246 <__RODATA_PM_OFFSET__+0x246>
    4058:	84 36       	cpi	r24, 0x64	; 100
    405a:	11 f0       	breq	.+4      	; 0x4060 <__RODATA_PM_OFFSET__+0x60>
    405c:	89 36       	cpi	r24, 0x69	; 105
    405e:	61 f5       	brne	.+88     	; 0x40b8 <__RODATA_PM_OFFSET__+0xb8>
    4060:	56 01       	movw	r10, r12
    4062:	97 fe       	sbrs	r9, 7
    4064:	09 c0       	rjmp	.+18     	; 0x4078 <__RODATA_PM_OFFSET__+0x78>
    4066:	24 e0       	ldi	r18, 0x04	; 4
    4068:	a2 0e       	add	r10, r18
    406a:	b1 1c       	adc	r11, r1
    406c:	f6 01       	movw	r30, r12
    406e:	60 81       	ld	r22, Z
    4070:	71 81       	ldd	r23, Z+1	; 0x01
    4072:	82 81       	ldd	r24, Z+2	; 0x02
    4074:	93 81       	ldd	r25, Z+3	; 0x03
    4076:	0a c0       	rjmp	.+20     	; 0x408c <__RODATA_PM_OFFSET__+0x8c>
    4078:	f2 e0       	ldi	r31, 0x02	; 2
    407a:	af 0e       	add	r10, r31
    407c:	b1 1c       	adc	r11, r1
    407e:	f6 01       	movw	r30, r12
    4080:	60 81       	ld	r22, Z
    4082:	71 81       	ldd	r23, Z+1	; 0x01
    4084:	07 2e       	mov	r0, r23
    4086:	00 0c       	add	r0, r0
    4088:	88 0b       	sbc	r24, r24
    408a:	99 0b       	sbc	r25, r25
    408c:	f9 2d       	mov	r31, r9
    408e:	ff 76       	andi	r31, 0x6F	; 111
    4090:	9f 2e       	mov	r9, r31
    4092:	97 ff       	sbrs	r25, 7
    4094:	09 c0       	rjmp	.+18     	; 0x40a8 <__RODATA_PM_OFFSET__+0xa8>
    4096:	90 95       	com	r25
    4098:	80 95       	com	r24
    409a:	70 95       	com	r23
    409c:	61 95       	neg	r22
    409e:	7f 4f       	sbci	r23, 0xFF	; 255
    40a0:	8f 4f       	sbci	r24, 0xFF	; 255
    40a2:	9f 4f       	sbci	r25, 0xFF	; 255
    40a4:	f0 68       	ori	r31, 0x80	; 128
    40a6:	9f 2e       	mov	r9, r31
    40a8:	2a e0       	ldi	r18, 0x0A	; 10
    40aa:	30 e0       	ldi	r19, 0x00	; 0
    40ac:	a3 01       	movw	r20, r6
    40ae:	0e 94 af 23 	call	0x475e	; 0x475e <__ultoa_invert>
    40b2:	c8 2e       	mov	r12, r24
    40b4:	c6 18       	sub	r12, r6
    40b6:	3f c0       	rjmp	.+126    	; 0x4136 <__RODATA_PM_OFFSET__+0x136>
    40b8:	09 2d       	mov	r16, r9
    40ba:	85 37       	cpi	r24, 0x75	; 117
    40bc:	21 f4       	brne	.+8      	; 0x40c6 <__RODATA_PM_OFFSET__+0xc6>
    40be:	0f 7e       	andi	r16, 0xEF	; 239
    40c0:	2a e0       	ldi	r18, 0x0A	; 10
    40c2:	30 e0       	ldi	r19, 0x00	; 0
    40c4:	1d c0       	rjmp	.+58     	; 0x4100 <__RODATA_PM_OFFSET__+0x100>
    40c6:	09 7f       	andi	r16, 0xF9	; 249
    40c8:	8f 36       	cpi	r24, 0x6F	; 111
    40ca:	91 f0       	breq	.+36     	; 0x40f0 <__RODATA_PM_OFFSET__+0xf0>
    40cc:	18 f4       	brcc	.+6      	; 0x40d4 <__RODATA_PM_OFFSET__+0xd4>
    40ce:	88 35       	cpi	r24, 0x58	; 88
    40d0:	59 f0       	breq	.+22     	; 0x40e8 <__RODATA_PM_OFFSET__+0xe8>
    40d2:	c3 c0       	rjmp	.+390    	; 0x425a <__RODATA_PM_OFFSET__+0x25a>
    40d4:	80 37       	cpi	r24, 0x70	; 112
    40d6:	19 f0       	breq	.+6      	; 0x40de <__RODATA_PM_OFFSET__+0xde>
    40d8:	88 37       	cpi	r24, 0x78	; 120
    40da:	11 f0       	breq	.+4      	; 0x40e0 <__RODATA_PM_OFFSET__+0xe0>
    40dc:	be c0       	rjmp	.+380    	; 0x425a <__RODATA_PM_OFFSET__+0x25a>
    40de:	00 61       	ori	r16, 0x10	; 16
    40e0:	04 ff       	sbrs	r16, 4
    40e2:	09 c0       	rjmp	.+18     	; 0x40f6 <__RODATA_PM_OFFSET__+0xf6>
    40e4:	04 60       	ori	r16, 0x04	; 4
    40e6:	07 c0       	rjmp	.+14     	; 0x40f6 <__RODATA_PM_OFFSET__+0xf6>
    40e8:	94 fe       	sbrs	r9, 4
    40ea:	08 c0       	rjmp	.+16     	; 0x40fc <__RODATA_PM_OFFSET__+0xfc>
    40ec:	06 60       	ori	r16, 0x06	; 6
    40ee:	06 c0       	rjmp	.+12     	; 0x40fc <__RODATA_PM_OFFSET__+0xfc>
    40f0:	28 e0       	ldi	r18, 0x08	; 8
    40f2:	30 e0       	ldi	r19, 0x00	; 0
    40f4:	05 c0       	rjmp	.+10     	; 0x4100 <__RODATA_PM_OFFSET__+0x100>
    40f6:	20 e1       	ldi	r18, 0x10	; 16
    40f8:	30 e0       	ldi	r19, 0x00	; 0
    40fa:	02 c0       	rjmp	.+4      	; 0x4100 <__RODATA_PM_OFFSET__+0x100>
    40fc:	20 e1       	ldi	r18, 0x10	; 16
    40fe:	32 e0       	ldi	r19, 0x02	; 2
    4100:	56 01       	movw	r10, r12
    4102:	07 ff       	sbrs	r16, 7
    4104:	09 c0       	rjmp	.+18     	; 0x4118 <__RODATA_PM_OFFSET__+0x118>
    4106:	84 e0       	ldi	r24, 0x04	; 4
    4108:	a8 0e       	add	r10, r24
    410a:	b1 1c       	adc	r11, r1
    410c:	f6 01       	movw	r30, r12
    410e:	60 81       	ld	r22, Z
    4110:	71 81       	ldd	r23, Z+1	; 0x01
    4112:	82 81       	ldd	r24, Z+2	; 0x02
    4114:	93 81       	ldd	r25, Z+3	; 0x03
    4116:	08 c0       	rjmp	.+16     	; 0x4128 <__RODATA_PM_OFFSET__+0x128>
    4118:	f2 e0       	ldi	r31, 0x02	; 2
    411a:	af 0e       	add	r10, r31
    411c:	b1 1c       	adc	r11, r1
    411e:	f6 01       	movw	r30, r12
    4120:	60 81       	ld	r22, Z
    4122:	71 81       	ldd	r23, Z+1	; 0x01
    4124:	80 e0       	ldi	r24, 0x00	; 0
    4126:	90 e0       	ldi	r25, 0x00	; 0
    4128:	a3 01       	movw	r20, r6
    412a:	0e 94 af 23 	call	0x475e	; 0x475e <__ultoa_invert>
    412e:	c8 2e       	mov	r12, r24
    4130:	c6 18       	sub	r12, r6
    4132:	0f 77       	andi	r16, 0x7F	; 127
    4134:	90 2e       	mov	r9, r16
    4136:	96 fe       	sbrs	r9, 6
    4138:	0b c0       	rjmp	.+22     	; 0x4150 <__RODATA_PM_OFFSET__+0x150>
    413a:	09 2d       	mov	r16, r9
    413c:	0e 7f       	andi	r16, 0xFE	; 254
    413e:	c1 16       	cp	r12, r17
    4140:	50 f4       	brcc	.+20     	; 0x4156 <__RODATA_PM_OFFSET__+0x156>
    4142:	94 fe       	sbrs	r9, 4
    4144:	0a c0       	rjmp	.+20     	; 0x415a <__RODATA_PM_OFFSET__+0x15a>
    4146:	92 fc       	sbrc	r9, 2
    4148:	08 c0       	rjmp	.+16     	; 0x415a <__RODATA_PM_OFFSET__+0x15a>
    414a:	09 2d       	mov	r16, r9
    414c:	0e 7e       	andi	r16, 0xEE	; 238
    414e:	05 c0       	rjmp	.+10     	; 0x415a <__RODATA_PM_OFFSET__+0x15a>
    4150:	dc 2c       	mov	r13, r12
    4152:	09 2d       	mov	r16, r9
    4154:	03 c0       	rjmp	.+6      	; 0x415c <__RODATA_PM_OFFSET__+0x15c>
    4156:	dc 2c       	mov	r13, r12
    4158:	01 c0       	rjmp	.+2      	; 0x415c <__RODATA_PM_OFFSET__+0x15c>
    415a:	d1 2e       	mov	r13, r17
    415c:	04 ff       	sbrs	r16, 4
    415e:	0d c0       	rjmp	.+26     	; 0x417a <__RODATA_PM_OFFSET__+0x17a>
    4160:	fe 01       	movw	r30, r28
    4162:	ec 0d       	add	r30, r12
    4164:	f1 1d       	adc	r31, r1
    4166:	80 81       	ld	r24, Z
    4168:	80 33       	cpi	r24, 0x30	; 48
    416a:	11 f4       	brne	.+4      	; 0x4170 <__RODATA_PM_OFFSET__+0x170>
    416c:	09 7e       	andi	r16, 0xE9	; 233
    416e:	09 c0       	rjmp	.+18     	; 0x4182 <__RODATA_PM_OFFSET__+0x182>
    4170:	02 ff       	sbrs	r16, 2
    4172:	06 c0       	rjmp	.+12     	; 0x4180 <__RODATA_PM_OFFSET__+0x180>
    4174:	d3 94       	inc	r13
    4176:	d3 94       	inc	r13
    4178:	04 c0       	rjmp	.+8      	; 0x4182 <__RODATA_PM_OFFSET__+0x182>
    417a:	80 2f       	mov	r24, r16
    417c:	86 78       	andi	r24, 0x86	; 134
    417e:	09 f0       	breq	.+2      	; 0x4182 <__RODATA_PM_OFFSET__+0x182>
    4180:	d3 94       	inc	r13
    4182:	03 fd       	sbrc	r16, 3
    4184:	11 c0       	rjmp	.+34     	; 0x41a8 <__RODATA_PM_OFFSET__+0x1a8>
    4186:	00 ff       	sbrs	r16, 0
    4188:	06 c0       	rjmp	.+12     	; 0x4196 <__RODATA_PM_OFFSET__+0x196>
    418a:	1c 2d       	mov	r17, r12
    418c:	d5 14       	cp	r13, r5
    418e:	80 f4       	brcc	.+32     	; 0x41b0 <__RODATA_PM_OFFSET__+0x1b0>
    4190:	15 0d       	add	r17, r5
    4192:	1d 19       	sub	r17, r13
    4194:	0d c0       	rjmp	.+26     	; 0x41b0 <__RODATA_PM_OFFSET__+0x1b0>
    4196:	d5 14       	cp	r13, r5
    4198:	58 f4       	brcc	.+22     	; 0x41b0 <__RODATA_PM_OFFSET__+0x1b0>
    419a:	b7 01       	movw	r22, r14
    419c:	80 e2       	ldi	r24, 0x20	; 32
    419e:	90 e0       	ldi	r25, 0x00	; 0
    41a0:	0e 94 51 23 	call	0x46a2	; 0x46a2 <fputc>
    41a4:	d3 94       	inc	r13
    41a6:	f7 cf       	rjmp	.-18     	; 0x4196 <__RODATA_PM_OFFSET__+0x196>
    41a8:	d5 14       	cp	r13, r5
    41aa:	10 f4       	brcc	.+4      	; 0x41b0 <__RODATA_PM_OFFSET__+0x1b0>
    41ac:	5d 18       	sub	r5, r13
    41ae:	01 c0       	rjmp	.+2      	; 0x41b2 <__RODATA_PM_OFFSET__+0x1b2>
    41b0:	51 2c       	mov	r5, r1
    41b2:	04 ff       	sbrs	r16, 4
    41b4:	10 c0       	rjmp	.+32     	; 0x41d6 <__RODATA_PM_OFFSET__+0x1d6>
    41b6:	b7 01       	movw	r22, r14
    41b8:	80 e3       	ldi	r24, 0x30	; 48
    41ba:	90 e0       	ldi	r25, 0x00	; 0
    41bc:	0e 94 51 23 	call	0x46a2	; 0x46a2 <fputc>
    41c0:	02 ff       	sbrs	r16, 2
    41c2:	17 c0       	rjmp	.+46     	; 0x41f2 <__RODATA_PM_OFFSET__+0x1f2>
    41c4:	01 fd       	sbrc	r16, 1
    41c6:	03 c0       	rjmp	.+6      	; 0x41ce <__RODATA_PM_OFFSET__+0x1ce>
    41c8:	88 e7       	ldi	r24, 0x78	; 120
    41ca:	90 e0       	ldi	r25, 0x00	; 0
    41cc:	02 c0       	rjmp	.+4      	; 0x41d2 <__RODATA_PM_OFFSET__+0x1d2>
    41ce:	88 e5       	ldi	r24, 0x58	; 88
    41d0:	90 e0       	ldi	r25, 0x00	; 0
    41d2:	b7 01       	movw	r22, r14
    41d4:	0c c0       	rjmp	.+24     	; 0x41ee <__RODATA_PM_OFFSET__+0x1ee>
    41d6:	80 2f       	mov	r24, r16
    41d8:	86 78       	andi	r24, 0x86	; 134
    41da:	59 f0       	breq	.+22     	; 0x41f2 <__RODATA_PM_OFFSET__+0x1f2>
    41dc:	01 ff       	sbrs	r16, 1
    41de:	02 c0       	rjmp	.+4      	; 0x41e4 <__RODATA_PM_OFFSET__+0x1e4>
    41e0:	8b e2       	ldi	r24, 0x2B	; 43
    41e2:	01 c0       	rjmp	.+2      	; 0x41e6 <__RODATA_PM_OFFSET__+0x1e6>
    41e4:	80 e2       	ldi	r24, 0x20	; 32
    41e6:	07 fd       	sbrc	r16, 7
    41e8:	8d e2       	ldi	r24, 0x2D	; 45
    41ea:	b7 01       	movw	r22, r14
    41ec:	90 e0       	ldi	r25, 0x00	; 0
    41ee:	0e 94 51 23 	call	0x46a2	; 0x46a2 <fputc>
    41f2:	c1 16       	cp	r12, r17
    41f4:	38 f4       	brcc	.+14     	; 0x4204 <__RODATA_PM_OFFSET__+0x204>
    41f6:	b7 01       	movw	r22, r14
    41f8:	80 e3       	ldi	r24, 0x30	; 48
    41fa:	90 e0       	ldi	r25, 0x00	; 0
    41fc:	0e 94 51 23 	call	0x46a2	; 0x46a2 <fputc>
    4200:	11 50       	subi	r17, 0x01	; 1
    4202:	f7 cf       	rjmp	.-18     	; 0x41f2 <__RODATA_PM_OFFSET__+0x1f2>
    4204:	ca 94       	dec	r12
    4206:	f3 01       	movw	r30, r6
    4208:	ec 0d       	add	r30, r12
    420a:	f1 1d       	adc	r31, r1
    420c:	80 81       	ld	r24, Z
    420e:	b7 01       	movw	r22, r14
    4210:	90 e0       	ldi	r25, 0x00	; 0
    4212:	0e 94 51 23 	call	0x46a2	; 0x46a2 <fputc>
    4216:	c1 10       	cpse	r12, r1
    4218:	f5 cf       	rjmp	.-22     	; 0x4204 <__RODATA_PM_OFFSET__+0x204>
    421a:	15 c0       	rjmp	.+42     	; 0x4246 <__RODATA_PM_OFFSET__+0x246>
    421c:	f4 e0       	ldi	r31, 0x04	; 4
    421e:	f5 15       	cp	r31, r5
    4220:	60 f5       	brcc	.+88     	; 0x427a <__RODATA_PM_OFFSET__+0x27a>
    4222:	84 e0       	ldi	r24, 0x04	; 4
    4224:	58 1a       	sub	r5, r24
    4226:	93 fe       	sbrs	r9, 3
    4228:	1f c0       	rjmp	.+62     	; 0x4268 <__RODATA_PM_OFFSET__+0x268>
    422a:	01 11       	cpse	r16, r1
    422c:	27 c0       	rjmp	.+78     	; 0x427c <__RODATA_PM_OFFSET__+0x27c>
    422e:	2c 85       	ldd	r18, Y+12	; 0x0c
    4230:	23 ff       	sbrs	r18, 3
    4232:	2a c0       	rjmp	.+84     	; 0x4288 <__RODATA_PM_OFFSET__+0x288>
    4234:	02 e5       	ldi	r16, 0x52	; 82
    4236:	11 e0       	ldi	r17, 0x01	; 1
    4238:	39 2d       	mov	r19, r9
    423a:	30 71       	andi	r19, 0x10	; 16
    423c:	93 2e       	mov	r9, r19
    423e:	f8 01       	movw	r30, r16
    4240:	84 91       	lpm	r24, Z
    4242:	81 11       	cpse	r24, r1
    4244:	24 c0       	rjmp	.+72     	; 0x428e <__RODATA_PM_OFFSET__+0x28e>
    4246:	55 20       	and	r5, r5
    4248:	09 f4       	brne	.+2      	; 0x424c <__RODATA_PM_OFFSET__+0x24c>
    424a:	e4 cc       	rjmp	.-1592   	; 0x3c14 <vfprintf+0x58>
    424c:	b7 01       	movw	r22, r14
    424e:	80 e2       	ldi	r24, 0x20	; 32
    4250:	90 e0       	ldi	r25, 0x00	; 0
    4252:	0e 94 51 23 	call	0x46a2	; 0x46a2 <fputc>
    4256:	5a 94       	dec	r5
    4258:	f6 cf       	rjmp	.-20     	; 0x4246 <__RODATA_PM_OFFSET__+0x246>
    425a:	f7 01       	movw	r30, r14
    425c:	86 81       	ldd	r24, Z+6	; 0x06
    425e:	97 81       	ldd	r25, Z+7	; 0x07
    4260:	26 c0       	rjmp	.+76     	; 0x42ae <__RODATA_PM_OFFSET__+0x2ae>
    4262:	8f ef       	ldi	r24, 0xFF	; 255
    4264:	9f ef       	ldi	r25, 0xFF	; 255
    4266:	23 c0       	rjmp	.+70     	; 0x42ae <__RODATA_PM_OFFSET__+0x2ae>
    4268:	b7 01       	movw	r22, r14
    426a:	80 e2       	ldi	r24, 0x20	; 32
    426c:	90 e0       	ldi	r25, 0x00	; 0
    426e:	0e 94 51 23 	call	0x46a2	; 0x46a2 <fputc>
    4272:	5a 94       	dec	r5
    4274:	51 10       	cpse	r5, r1
    4276:	f8 cf       	rjmp	.-16     	; 0x4268 <__RODATA_PM_OFFSET__+0x268>
    4278:	d8 cf       	rjmp	.-80     	; 0x422a <__RODATA_PM_OFFSET__+0x22a>
    427a:	51 2c       	mov	r5, r1
    427c:	b7 01       	movw	r22, r14
    427e:	80 2f       	mov	r24, r16
    4280:	90 e0       	ldi	r25, 0x00	; 0
    4282:	0e 94 51 23 	call	0x46a2	; 0x46a2 <fputc>
    4286:	d3 cf       	rjmp	.-90     	; 0x422e <__RODATA_PM_OFFSET__+0x22e>
    4288:	06 e5       	ldi	r16, 0x56	; 86
    428a:	11 e0       	ldi	r17, 0x01	; 1
    428c:	d5 cf       	rjmp	.-86     	; 0x4238 <__RODATA_PM_OFFSET__+0x238>
    428e:	91 10       	cpse	r9, r1
    4290:	80 52       	subi	r24, 0x20	; 32
    4292:	b7 01       	movw	r22, r14
    4294:	90 e0       	ldi	r25, 0x00	; 0
    4296:	0e 94 51 23 	call	0x46a2	; 0x46a2 <fputc>
    429a:	0f 5f       	subi	r16, 0xFF	; 255
    429c:	1f 4f       	sbci	r17, 0xFF	; 255
    429e:	cf cf       	rjmp	.-98     	; 0x423e <__RODATA_PM_OFFSET__+0x23e>
    42a0:	23 e0       	ldi	r18, 0x03	; 3
    42a2:	25 15       	cp	r18, r5
    42a4:	10 f4       	brcc	.+4      	; 0x42aa <__RODATA_PM_OFFSET__+0x2aa>
    42a6:	83 e0       	ldi	r24, 0x03	; 3
    42a8:	bd cf       	rjmp	.-134    	; 0x4224 <__RODATA_PM_OFFSET__+0x224>
    42aa:	51 2c       	mov	r5, r1
    42ac:	c0 cf       	rjmp	.-128    	; 0x422e <__RODATA_PM_OFFSET__+0x22e>
    42ae:	60 96       	adiw	r28, 0x10	; 16
    42b0:	e2 e1       	ldi	r30, 0x12	; 18
    42b2:	0c 94 b8 21 	jmp	0x4370	; 0x4370 <__epilogue_restores__>

000042b6 <__divmodhi4>:
    42b6:	97 fb       	bst	r25, 7
    42b8:	07 2e       	mov	r0, r23
    42ba:	16 f4       	brtc	.+4      	; 0x42c0 <__divmodhi4+0xa>
    42bc:	00 94       	com	r0
    42be:	07 d0       	rcall	.+14     	; 0x42ce <__divmodhi4_neg1>
    42c0:	77 fd       	sbrc	r23, 7
    42c2:	09 d0       	rcall	.+18     	; 0x42d6 <__divmodhi4_neg2>
    42c4:	0e 94 d0 21 	call	0x43a0	; 0x43a0 <__udivmodhi4>
    42c8:	07 fc       	sbrc	r0, 7
    42ca:	05 d0       	rcall	.+10     	; 0x42d6 <__divmodhi4_neg2>
    42cc:	3e f4       	brtc	.+14     	; 0x42dc <__divmodhi4_exit>

000042ce <__divmodhi4_neg1>:
    42ce:	90 95       	com	r25
    42d0:	81 95       	neg	r24
    42d2:	9f 4f       	sbci	r25, 0xFF	; 255
    42d4:	08 95       	ret

000042d6 <__divmodhi4_neg2>:
    42d6:	70 95       	com	r23
    42d8:	61 95       	neg	r22
    42da:	7f 4f       	sbci	r23, 0xFF	; 255

000042dc <__divmodhi4_exit>:
    42dc:	08 95       	ret

000042de <__divmodsi4>:
    42de:	05 2e       	mov	r0, r21
    42e0:	97 fb       	bst	r25, 7
    42e2:	1e f4       	brtc	.+6      	; 0x42ea <__divmodsi4+0xc>
    42e4:	00 94       	com	r0
    42e6:	0e 94 86 21 	call	0x430c	; 0x430c <__negsi2>
    42ea:	57 fd       	sbrc	r21, 7
    42ec:	07 d0       	rcall	.+14     	; 0x42fc <__divmodsi4_neg2>
    42ee:	0e 94 e4 21 	call	0x43c8	; 0x43c8 <__udivmodsi4>
    42f2:	07 fc       	sbrc	r0, 7
    42f4:	03 d0       	rcall	.+6      	; 0x42fc <__divmodsi4_neg2>
    42f6:	4e f4       	brtc	.+18     	; 0x430a <__divmodsi4_exit>
    42f8:	0c 94 86 21 	jmp	0x430c	; 0x430c <__negsi2>

000042fc <__divmodsi4_neg2>:
    42fc:	50 95       	com	r21
    42fe:	40 95       	com	r20
    4300:	30 95       	com	r19
    4302:	21 95       	neg	r18
    4304:	3f 4f       	sbci	r19, 0xFF	; 255
    4306:	4f 4f       	sbci	r20, 0xFF	; 255
    4308:	5f 4f       	sbci	r21, 0xFF	; 255

0000430a <__divmodsi4_exit>:
    430a:	08 95       	ret

0000430c <__negsi2>:
    430c:	90 95       	com	r25
    430e:	80 95       	com	r24
    4310:	70 95       	com	r23
    4312:	61 95       	neg	r22
    4314:	7f 4f       	sbci	r23, 0xFF	; 255
    4316:	8f 4f       	sbci	r24, 0xFF	; 255
    4318:	9f 4f       	sbci	r25, 0xFF	; 255
    431a:	08 95       	ret

0000431c <__tablejump2__>:
    431c:	ee 0f       	add	r30, r30
    431e:	ff 1f       	adc	r31, r31
    4320:	05 90       	lpm	r0, Z+
    4322:	f4 91       	lpm	r31, Z
    4324:	e0 2d       	mov	r30, r0
    4326:	09 94       	ijmp

00004328 <__muluhisi3>:
    4328:	0e 94 06 22 	call	0x440c	; 0x440c <__umulhisi3>
    432c:	a5 9f       	mul	r26, r21
    432e:	90 0d       	add	r25, r0
    4330:	b4 9f       	mul	r27, r20
    4332:	90 0d       	add	r25, r0
    4334:	a4 9f       	mul	r26, r20
    4336:	80 0d       	add	r24, r0
    4338:	91 1d       	adc	r25, r1
    433a:	11 24       	eor	r1, r1
    433c:	08 95       	ret

0000433e <__prologue_saves__>:
    433e:	2f 92       	push	r2
    4340:	3f 92       	push	r3
    4342:	4f 92       	push	r4
    4344:	5f 92       	push	r5
    4346:	6f 92       	push	r6
    4348:	7f 92       	push	r7
    434a:	8f 92       	push	r8
    434c:	9f 92       	push	r9
    434e:	af 92       	push	r10
    4350:	bf 92       	push	r11
    4352:	cf 92       	push	r12
    4354:	df 92       	push	r13
    4356:	ef 92       	push	r14
    4358:	ff 92       	push	r15
    435a:	0f 93       	push	r16
    435c:	1f 93       	push	r17
    435e:	cf 93       	push	r28
    4360:	df 93       	push	r29
    4362:	cd b7       	in	r28, 0x3d	; 61
    4364:	de b7       	in	r29, 0x3e	; 62
    4366:	ca 1b       	sub	r28, r26
    4368:	db 0b       	sbc	r29, r27
    436a:	cd bf       	out	0x3d, r28	; 61
    436c:	de bf       	out	0x3e, r29	; 62
    436e:	09 94       	ijmp

00004370 <__epilogue_restores__>:
    4370:	2a 88       	ldd	r2, Y+18	; 0x12
    4372:	39 88       	ldd	r3, Y+17	; 0x11
    4374:	48 88       	ldd	r4, Y+16	; 0x10
    4376:	5f 84       	ldd	r5, Y+15	; 0x0f
    4378:	6e 84       	ldd	r6, Y+14	; 0x0e
    437a:	7d 84       	ldd	r7, Y+13	; 0x0d
    437c:	8c 84       	ldd	r8, Y+12	; 0x0c
    437e:	9b 84       	ldd	r9, Y+11	; 0x0b
    4380:	aa 84       	ldd	r10, Y+10	; 0x0a
    4382:	b9 84       	ldd	r11, Y+9	; 0x09
    4384:	c8 84       	ldd	r12, Y+8	; 0x08
    4386:	df 80       	ldd	r13, Y+7	; 0x07
    4388:	ee 80       	ldd	r14, Y+6	; 0x06
    438a:	fd 80       	ldd	r15, Y+5	; 0x05
    438c:	0c 81       	ldd	r16, Y+4	; 0x04
    438e:	1b 81       	ldd	r17, Y+3	; 0x03
    4390:	aa 81       	ldd	r26, Y+2	; 0x02
    4392:	b9 81       	ldd	r27, Y+1	; 0x01
    4394:	ce 0f       	add	r28, r30
    4396:	d1 1d       	adc	r29, r1
    4398:	cd bf       	out	0x3d, r28	; 61
    439a:	de bf       	out	0x3e, r29	; 62
    439c:	ed 01       	movw	r28, r26
    439e:	08 95       	ret

000043a0 <__udivmodhi4>:
    43a0:	aa 1b       	sub	r26, r26
    43a2:	bb 1b       	sub	r27, r27
    43a4:	51 e1       	ldi	r21, 0x11	; 17
    43a6:	07 c0       	rjmp	.+14     	; 0x43b6 <__udivmodhi4_ep>

000043a8 <__udivmodhi4_loop>:
    43a8:	aa 1f       	adc	r26, r26
    43aa:	bb 1f       	adc	r27, r27
    43ac:	a6 17       	cp	r26, r22
    43ae:	b7 07       	cpc	r27, r23
    43b0:	10 f0       	brcs	.+4      	; 0x43b6 <__udivmodhi4_ep>
    43b2:	a6 1b       	sub	r26, r22
    43b4:	b7 0b       	sbc	r27, r23

000043b6 <__udivmodhi4_ep>:
    43b6:	88 1f       	adc	r24, r24
    43b8:	99 1f       	adc	r25, r25
    43ba:	5a 95       	dec	r21
    43bc:	a9 f7       	brne	.-22     	; 0x43a8 <__udivmodhi4_loop>
    43be:	80 95       	com	r24
    43c0:	90 95       	com	r25
    43c2:	bc 01       	movw	r22, r24
    43c4:	cd 01       	movw	r24, r26
    43c6:	08 95       	ret

000043c8 <__udivmodsi4>:
    43c8:	a1 e2       	ldi	r26, 0x21	; 33
    43ca:	1a 2e       	mov	r1, r26
    43cc:	aa 1b       	sub	r26, r26
    43ce:	bb 1b       	sub	r27, r27
    43d0:	fd 01       	movw	r30, r26
    43d2:	0d c0       	rjmp	.+26     	; 0x43ee <__udivmodsi4_ep>

000043d4 <__udivmodsi4_loop>:
    43d4:	aa 1f       	adc	r26, r26
    43d6:	bb 1f       	adc	r27, r27
    43d8:	ee 1f       	adc	r30, r30
    43da:	ff 1f       	adc	r31, r31
    43dc:	a2 17       	cp	r26, r18
    43de:	b3 07       	cpc	r27, r19
    43e0:	e4 07       	cpc	r30, r20
    43e2:	f5 07       	cpc	r31, r21
    43e4:	20 f0       	brcs	.+8      	; 0x43ee <__udivmodsi4_ep>
    43e6:	a2 1b       	sub	r26, r18
    43e8:	b3 0b       	sbc	r27, r19
    43ea:	e4 0b       	sbc	r30, r20
    43ec:	f5 0b       	sbc	r31, r21

000043ee <__udivmodsi4_ep>:
    43ee:	66 1f       	adc	r22, r22
    43f0:	77 1f       	adc	r23, r23
    43f2:	88 1f       	adc	r24, r24
    43f4:	99 1f       	adc	r25, r25
    43f6:	1a 94       	dec	r1
    43f8:	69 f7       	brne	.-38     	; 0x43d4 <__udivmodsi4_loop>
    43fa:	60 95       	com	r22
    43fc:	70 95       	com	r23
    43fe:	80 95       	com	r24
    4400:	90 95       	com	r25
    4402:	9b 01       	movw	r18, r22
    4404:	ac 01       	movw	r20, r24
    4406:	bd 01       	movw	r22, r26
    4408:	cf 01       	movw	r24, r30
    440a:	08 95       	ret

0000440c <__umulhisi3>:
    440c:	a2 9f       	mul	r26, r18
    440e:	b0 01       	movw	r22, r0
    4410:	b3 9f       	mul	r27, r19
    4412:	c0 01       	movw	r24, r0
    4414:	a3 9f       	mul	r26, r19
    4416:	70 0d       	add	r23, r0
    4418:	81 1d       	adc	r24, r1
    441a:	11 24       	eor	r1, r1
    441c:	91 1d       	adc	r25, r1
    441e:	b2 9f       	mul	r27, r18
    4420:	70 0d       	add	r23, r0
    4422:	81 1d       	adc	r24, r1
    4424:	11 24       	eor	r1, r1
    4426:	91 1d       	adc	r25, r1
    4428:	08 95       	ret

0000442a <atol>:
    442a:	1f 93       	push	r17
    442c:	fc 01       	movw	r30, r24
    442e:	99 27       	eor	r25, r25
    4430:	88 27       	eor	r24, r24
    4432:	bc 01       	movw	r22, r24
    4434:	e8 94       	clt
    4436:	11 91       	ld	r17, Z+
    4438:	10 32       	cpi	r17, 0x20	; 32
    443a:	e9 f3       	breq	.-6      	; 0x4436 <atol+0xc>
    443c:	19 30       	cpi	r17, 0x09	; 9
    443e:	10 f0       	brcs	.+4      	; 0x4444 <atol+0x1a>
    4440:	1e 30       	cpi	r17, 0x0E	; 14
    4442:	c8 f3       	brcs	.-14     	; 0x4436 <atol+0xc>
    4444:	1b 32       	cpi	r17, 0x2B	; 43
    4446:	51 f0       	breq	.+20     	; 0x445c <atol+0x32>
    4448:	1d 32       	cpi	r17, 0x2D	; 45
    444a:	49 f4       	brne	.+18     	; 0x445e <atol+0x34>
    444c:	68 94       	set
    444e:	06 c0       	rjmp	.+12     	; 0x445c <atol+0x32>
    4450:	0e 94 3c 23 	call	0x4678	; 0x4678 <__mulsi_const_10>
    4454:	61 0f       	add	r22, r17
    4456:	71 1d       	adc	r23, r1
    4458:	81 1d       	adc	r24, r1
    445a:	91 1d       	adc	r25, r1
    445c:	11 91       	ld	r17, Z+
    445e:	10 53       	subi	r17, 0x30	; 48
    4460:	1a 30       	cpi	r17, 0x0A	; 10
    4462:	b0 f3       	brcs	.-20     	; 0x4450 <atol+0x26>
    4464:	3e f4       	brtc	.+14     	; 0x4474 <atol+0x4a>
    4466:	90 95       	com	r25
    4468:	80 95       	com	r24
    446a:	70 95       	com	r23
    446c:	61 95       	neg	r22
    446e:	7f 4f       	sbci	r23, 0xFF	; 255
    4470:	8f 4f       	sbci	r24, 0xFF	; 255
    4472:	9f 4f       	sbci	r25, 0xFF	; 255
    4474:	1f 91       	pop	r17
    4476:	08 95       	ret

00004478 <__ftoa_engine>:
    4478:	28 30       	cpi	r18, 0x08	; 8
    447a:	08 f0       	brcs	.+2      	; 0x447e <__ftoa_engine+0x6>
    447c:	27 e0       	ldi	r18, 0x07	; 7
    447e:	33 27       	eor	r19, r19
    4480:	da 01       	movw	r26, r20
    4482:	99 0f       	add	r25, r25
    4484:	31 1d       	adc	r19, r1
    4486:	87 fd       	sbrc	r24, 7
    4488:	91 60       	ori	r25, 0x01	; 1
    448a:	00 96       	adiw	r24, 0x00	; 0
    448c:	61 05       	cpc	r22, r1
    448e:	71 05       	cpc	r23, r1
    4490:	39 f4       	brne	.+14     	; 0x44a0 <__ftoa_engine+0x28>
    4492:	32 60       	ori	r19, 0x02	; 2
    4494:	2e 5f       	subi	r18, 0xFE	; 254
    4496:	3d 93       	st	X+, r19
    4498:	30 e3       	ldi	r19, 0x30	; 48
    449a:	2a 95       	dec	r18
    449c:	e1 f7       	brne	.-8      	; 0x4496 <__ftoa_engine+0x1e>
    449e:	08 95       	ret
    44a0:	9f 3f       	cpi	r25, 0xFF	; 255
    44a2:	30 f0       	brcs	.+12     	; 0x44b0 <__ftoa_engine+0x38>
    44a4:	80 38       	cpi	r24, 0x80	; 128
    44a6:	71 05       	cpc	r23, r1
    44a8:	61 05       	cpc	r22, r1
    44aa:	09 f0       	breq	.+2      	; 0x44ae <__ftoa_engine+0x36>
    44ac:	3c 5f       	subi	r19, 0xFC	; 252
    44ae:	3c 5f       	subi	r19, 0xFC	; 252
    44b0:	3d 93       	st	X+, r19
    44b2:	91 30       	cpi	r25, 0x01	; 1
    44b4:	08 f0       	brcs	.+2      	; 0x44b8 <__ftoa_engine+0x40>
    44b6:	80 68       	ori	r24, 0x80	; 128
    44b8:	91 1d       	adc	r25, r1
    44ba:	df 93       	push	r29
    44bc:	cf 93       	push	r28
    44be:	1f 93       	push	r17
    44c0:	0f 93       	push	r16
    44c2:	ff 92       	push	r15
    44c4:	ef 92       	push	r14
    44c6:	19 2f       	mov	r17, r25
    44c8:	98 7f       	andi	r25, 0xF8	; 248
    44ca:	96 95       	lsr	r25
    44cc:	e9 2f       	mov	r30, r25
    44ce:	96 95       	lsr	r25
    44d0:	96 95       	lsr	r25
    44d2:	e9 0f       	add	r30, r25
    44d4:	ff 27       	eor	r31, r31
    44d6:	ec 54       	subi	r30, 0x4C	; 76
    44d8:	fe 4f       	sbci	r31, 0xFE	; 254
    44da:	99 27       	eor	r25, r25
    44dc:	33 27       	eor	r19, r19
    44de:	ee 24       	eor	r14, r14
    44e0:	ff 24       	eor	r15, r15
    44e2:	a7 01       	movw	r20, r14
    44e4:	e7 01       	movw	r28, r14
    44e6:	05 90       	lpm	r0, Z+
    44e8:	08 94       	sec
    44ea:	07 94       	ror	r0
    44ec:	28 f4       	brcc	.+10     	; 0x44f8 <__ftoa_engine+0x80>
    44ee:	36 0f       	add	r19, r22
    44f0:	e7 1e       	adc	r14, r23
    44f2:	f8 1e       	adc	r15, r24
    44f4:	49 1f       	adc	r20, r25
    44f6:	51 1d       	adc	r21, r1
    44f8:	66 0f       	add	r22, r22
    44fa:	77 1f       	adc	r23, r23
    44fc:	88 1f       	adc	r24, r24
    44fe:	99 1f       	adc	r25, r25
    4500:	06 94       	lsr	r0
    4502:	a1 f7       	brne	.-24     	; 0x44ec <__ftoa_engine+0x74>
    4504:	05 90       	lpm	r0, Z+
    4506:	07 94       	ror	r0
    4508:	28 f4       	brcc	.+10     	; 0x4514 <__ftoa_engine+0x9c>
    450a:	e7 0e       	add	r14, r23
    450c:	f8 1e       	adc	r15, r24
    450e:	49 1f       	adc	r20, r25
    4510:	56 1f       	adc	r21, r22
    4512:	c1 1d       	adc	r28, r1
    4514:	77 0f       	add	r23, r23
    4516:	88 1f       	adc	r24, r24
    4518:	99 1f       	adc	r25, r25
    451a:	66 1f       	adc	r22, r22
    451c:	06 94       	lsr	r0
    451e:	a1 f7       	brne	.-24     	; 0x4508 <__ftoa_engine+0x90>
    4520:	05 90       	lpm	r0, Z+
    4522:	07 94       	ror	r0
    4524:	28 f4       	brcc	.+10     	; 0x4530 <__ftoa_engine+0xb8>
    4526:	f8 0e       	add	r15, r24
    4528:	49 1f       	adc	r20, r25
    452a:	56 1f       	adc	r21, r22
    452c:	c7 1f       	adc	r28, r23
    452e:	d1 1d       	adc	r29, r1
    4530:	88 0f       	add	r24, r24
    4532:	99 1f       	adc	r25, r25
    4534:	66 1f       	adc	r22, r22
    4536:	77 1f       	adc	r23, r23
    4538:	06 94       	lsr	r0
    453a:	a1 f7       	brne	.-24     	; 0x4524 <__ftoa_engine+0xac>
    453c:	05 90       	lpm	r0, Z+
    453e:	07 94       	ror	r0
    4540:	20 f4       	brcc	.+8      	; 0x454a <__ftoa_engine+0xd2>
    4542:	49 0f       	add	r20, r25
    4544:	56 1f       	adc	r21, r22
    4546:	c7 1f       	adc	r28, r23
    4548:	d8 1f       	adc	r29, r24
    454a:	99 0f       	add	r25, r25
    454c:	66 1f       	adc	r22, r22
    454e:	77 1f       	adc	r23, r23
    4550:	88 1f       	adc	r24, r24
    4552:	06 94       	lsr	r0
    4554:	a9 f7       	brne	.-22     	; 0x4540 <__ftoa_engine+0xc8>
    4556:	84 91       	lpm	r24, Z
    4558:	10 95       	com	r17
    455a:	17 70       	andi	r17, 0x07	; 7
    455c:	41 f0       	breq	.+16     	; 0x456e <__ftoa_engine+0xf6>
    455e:	d6 95       	lsr	r29
    4560:	c7 95       	ror	r28
    4562:	57 95       	ror	r21
    4564:	47 95       	ror	r20
    4566:	f7 94       	ror	r15
    4568:	e7 94       	ror	r14
    456a:	1a 95       	dec	r17
    456c:	c1 f7       	brne	.-16     	; 0x455e <__ftoa_engine+0xe6>
    456e:	ea e5       	ldi	r30, 0x5A	; 90
    4570:	f1 e0       	ldi	r31, 0x01	; 1
    4572:	68 94       	set
    4574:	15 90       	lpm	r1, Z+
    4576:	15 91       	lpm	r17, Z+
    4578:	35 91       	lpm	r19, Z+
    457a:	65 91       	lpm	r22, Z+
    457c:	95 91       	lpm	r25, Z+
    457e:	05 90       	lpm	r0, Z+
    4580:	7f e2       	ldi	r23, 0x2F	; 47
    4582:	73 95       	inc	r23
    4584:	e1 18       	sub	r14, r1
    4586:	f1 0a       	sbc	r15, r17
    4588:	43 0b       	sbc	r20, r19
    458a:	56 0b       	sbc	r21, r22
    458c:	c9 0b       	sbc	r28, r25
    458e:	d0 09       	sbc	r29, r0
    4590:	c0 f7       	brcc	.-16     	; 0x4582 <__ftoa_engine+0x10a>
    4592:	e1 0c       	add	r14, r1
    4594:	f1 1e       	adc	r15, r17
    4596:	43 1f       	adc	r20, r19
    4598:	56 1f       	adc	r21, r22
    459a:	c9 1f       	adc	r28, r25
    459c:	d0 1d       	adc	r29, r0
    459e:	7e f4       	brtc	.+30     	; 0x45be <__ftoa_engine+0x146>
    45a0:	70 33       	cpi	r23, 0x30	; 48
    45a2:	11 f4       	brne	.+4      	; 0x45a8 <__ftoa_engine+0x130>
    45a4:	8a 95       	dec	r24
    45a6:	e6 cf       	rjmp	.-52     	; 0x4574 <__ftoa_engine+0xfc>
    45a8:	e8 94       	clt
    45aa:	01 50       	subi	r16, 0x01	; 1
    45ac:	30 f0       	brcs	.+12     	; 0x45ba <__ftoa_engine+0x142>
    45ae:	08 0f       	add	r16, r24
    45b0:	0a f4       	brpl	.+2      	; 0x45b4 <__ftoa_engine+0x13c>
    45b2:	00 27       	eor	r16, r16
    45b4:	02 17       	cp	r16, r18
    45b6:	08 f4       	brcc	.+2      	; 0x45ba <__ftoa_engine+0x142>
    45b8:	20 2f       	mov	r18, r16
    45ba:	23 95       	inc	r18
    45bc:	02 2f       	mov	r16, r18
    45be:	7a 33       	cpi	r23, 0x3A	; 58
    45c0:	28 f0       	brcs	.+10     	; 0x45cc <__ftoa_engine+0x154>
    45c2:	79 e3       	ldi	r23, 0x39	; 57
    45c4:	7d 93       	st	X+, r23
    45c6:	2a 95       	dec	r18
    45c8:	e9 f7       	brne	.-6      	; 0x45c4 <__ftoa_engine+0x14c>
    45ca:	10 c0       	rjmp	.+32     	; 0x45ec <__ftoa_engine+0x174>
    45cc:	7d 93       	st	X+, r23
    45ce:	2a 95       	dec	r18
    45d0:	89 f6       	brne	.-94     	; 0x4574 <__ftoa_engine+0xfc>
    45d2:	06 94       	lsr	r0
    45d4:	97 95       	ror	r25
    45d6:	67 95       	ror	r22
    45d8:	37 95       	ror	r19
    45da:	17 95       	ror	r17
    45dc:	17 94       	ror	r1
    45de:	e1 18       	sub	r14, r1
    45e0:	f1 0a       	sbc	r15, r17
    45e2:	43 0b       	sbc	r20, r19
    45e4:	56 0b       	sbc	r21, r22
    45e6:	c9 0b       	sbc	r28, r25
    45e8:	d0 09       	sbc	r29, r0
    45ea:	98 f0       	brcs	.+38     	; 0x4612 <__ftoa_engine+0x19a>
    45ec:	23 95       	inc	r18
    45ee:	7e 91       	ld	r23, -X
    45f0:	73 95       	inc	r23
    45f2:	7a 33       	cpi	r23, 0x3A	; 58
    45f4:	08 f0       	brcs	.+2      	; 0x45f8 <__ftoa_engine+0x180>
    45f6:	70 e3       	ldi	r23, 0x30	; 48
    45f8:	7c 93       	st	X, r23
    45fa:	20 13       	cpse	r18, r16
    45fc:	b8 f7       	brcc	.-18     	; 0x45ec <__ftoa_engine+0x174>
    45fe:	7e 91       	ld	r23, -X
    4600:	70 61       	ori	r23, 0x10	; 16
    4602:	7d 93       	st	X+, r23
    4604:	30 f0       	brcs	.+12     	; 0x4612 <__ftoa_engine+0x19a>
    4606:	83 95       	inc	r24
    4608:	71 e3       	ldi	r23, 0x31	; 49
    460a:	7d 93       	st	X+, r23
    460c:	70 e3       	ldi	r23, 0x30	; 48
    460e:	2a 95       	dec	r18
    4610:	e1 f7       	brne	.-8      	; 0x460a <__ftoa_engine+0x192>
    4612:	11 24       	eor	r1, r1
    4614:	ef 90       	pop	r14
    4616:	ff 90       	pop	r15
    4618:	0f 91       	pop	r16
    461a:	1f 91       	pop	r17
    461c:	cf 91       	pop	r28
    461e:	df 91       	pop	r29
    4620:	99 27       	eor	r25, r25
    4622:	87 fd       	sbrc	r24, 7
    4624:	90 95       	com	r25
    4626:	08 95       	ret

00004628 <strnlen_P>:
    4628:	fc 01       	movw	r30, r24
    462a:	05 90       	lpm	r0, Z+
    462c:	61 50       	subi	r22, 0x01	; 1
    462e:	70 40       	sbci	r23, 0x00	; 0
    4630:	01 10       	cpse	r0, r1
    4632:	d8 f7       	brcc	.-10     	; 0x462a <strnlen_P+0x2>
    4634:	80 95       	com	r24
    4636:	90 95       	com	r25
    4638:	8e 0f       	add	r24, r30
    463a:	9f 1f       	adc	r25, r31
    463c:	08 95       	ret

0000463e <strcat>:
    463e:	fb 01       	movw	r30, r22
    4640:	dc 01       	movw	r26, r24
    4642:	0d 90       	ld	r0, X+
    4644:	00 20       	and	r0, r0
    4646:	e9 f7       	brne	.-6      	; 0x4642 <strcat+0x4>
    4648:	11 97       	sbiw	r26, 0x01	; 1
    464a:	01 90       	ld	r0, Z+
    464c:	0d 92       	st	X+, r0
    464e:	00 20       	and	r0, r0
    4650:	e1 f7       	brne	.-8      	; 0x464a <strcat+0xc>
    4652:	08 95       	ret

00004654 <strcpy>:
    4654:	fb 01       	movw	r30, r22
    4656:	dc 01       	movw	r26, r24
    4658:	01 90       	ld	r0, Z+
    465a:	0d 92       	st	X+, r0
    465c:	00 20       	and	r0, r0
    465e:	e1 f7       	brne	.-8      	; 0x4658 <strcpy+0x4>
    4660:	08 95       	ret

00004662 <strnlen>:
    4662:	fc 01       	movw	r30, r24
    4664:	61 50       	subi	r22, 0x01	; 1
    4666:	70 40       	sbci	r23, 0x00	; 0
    4668:	01 90       	ld	r0, Z+
    466a:	01 10       	cpse	r0, r1
    466c:	d8 f7       	brcc	.-10     	; 0x4664 <strnlen+0x2>
    466e:	80 95       	com	r24
    4670:	90 95       	com	r25
    4672:	8e 0f       	add	r24, r30
    4674:	9f 1f       	adc	r25, r31
    4676:	08 95       	ret

00004678 <__mulsi_const_10>:
    4678:	59 2f       	mov	r21, r25
    467a:	48 2f       	mov	r20, r24
    467c:	37 2f       	mov	r19, r23
    467e:	26 2f       	mov	r18, r22
    4680:	66 0f       	add	r22, r22
    4682:	77 1f       	adc	r23, r23
    4684:	88 1f       	adc	r24, r24
    4686:	99 1f       	adc	r25, r25
    4688:	66 0f       	add	r22, r22
    468a:	77 1f       	adc	r23, r23
    468c:	88 1f       	adc	r24, r24
    468e:	99 1f       	adc	r25, r25
    4690:	62 0f       	add	r22, r18
    4692:	73 1f       	adc	r23, r19
    4694:	84 1f       	adc	r24, r20
    4696:	95 1f       	adc	r25, r21
    4698:	66 0f       	add	r22, r22
    469a:	77 1f       	adc	r23, r23
    469c:	88 1f       	adc	r24, r24
    469e:	99 1f       	adc	r25, r25
    46a0:	08 95       	ret

000046a2 <fputc>:
    46a2:	0f 93       	push	r16
    46a4:	1f 93       	push	r17
    46a6:	cf 93       	push	r28
    46a8:	df 93       	push	r29
    46aa:	fb 01       	movw	r30, r22
    46ac:	23 81       	ldd	r18, Z+3	; 0x03
    46ae:	21 fd       	sbrc	r18, 1
    46b0:	03 c0       	rjmp	.+6      	; 0x46b8 <fputc+0x16>
    46b2:	8f ef       	ldi	r24, 0xFF	; 255
    46b4:	9f ef       	ldi	r25, 0xFF	; 255
    46b6:	2c c0       	rjmp	.+88     	; 0x4710 <fputc+0x6e>
    46b8:	22 ff       	sbrs	r18, 2
    46ba:	16 c0       	rjmp	.+44     	; 0x46e8 <fputc+0x46>
    46bc:	46 81       	ldd	r20, Z+6	; 0x06
    46be:	57 81       	ldd	r21, Z+7	; 0x07
    46c0:	24 81       	ldd	r18, Z+4	; 0x04
    46c2:	35 81       	ldd	r19, Z+5	; 0x05
    46c4:	42 17       	cp	r20, r18
    46c6:	53 07       	cpc	r21, r19
    46c8:	44 f4       	brge	.+16     	; 0x46da <fputc+0x38>
    46ca:	a0 81       	ld	r26, Z
    46cc:	b1 81       	ldd	r27, Z+1	; 0x01
    46ce:	9d 01       	movw	r18, r26
    46d0:	2f 5f       	subi	r18, 0xFF	; 255
    46d2:	3f 4f       	sbci	r19, 0xFF	; 255
    46d4:	20 83       	st	Z, r18
    46d6:	31 83       	std	Z+1, r19	; 0x01
    46d8:	8c 93       	st	X, r24
    46da:	26 81       	ldd	r18, Z+6	; 0x06
    46dc:	37 81       	ldd	r19, Z+7	; 0x07
    46de:	2f 5f       	subi	r18, 0xFF	; 255
    46e0:	3f 4f       	sbci	r19, 0xFF	; 255
    46e2:	26 83       	std	Z+6, r18	; 0x06
    46e4:	37 83       	std	Z+7, r19	; 0x07
    46e6:	14 c0       	rjmp	.+40     	; 0x4710 <fputc+0x6e>
    46e8:	8b 01       	movw	r16, r22
    46ea:	ec 01       	movw	r28, r24
    46ec:	fb 01       	movw	r30, r22
    46ee:	00 84       	ldd	r0, Z+8	; 0x08
    46f0:	f1 85       	ldd	r31, Z+9	; 0x09
    46f2:	e0 2d       	mov	r30, r0
    46f4:	09 95       	icall
    46f6:	89 2b       	or	r24, r25
    46f8:	e1 f6       	brne	.-72     	; 0x46b2 <fputc+0x10>
    46fa:	d8 01       	movw	r26, r16
    46fc:	16 96       	adiw	r26, 0x06	; 6
    46fe:	8d 91       	ld	r24, X+
    4700:	9c 91       	ld	r25, X
    4702:	17 97       	sbiw	r26, 0x07	; 7
    4704:	01 96       	adiw	r24, 0x01	; 1
    4706:	16 96       	adiw	r26, 0x06	; 6
    4708:	8d 93       	st	X+, r24
    470a:	9c 93       	st	X, r25
    470c:	17 97       	sbiw	r26, 0x07	; 7
    470e:	ce 01       	movw	r24, r28
    4710:	df 91       	pop	r29
    4712:	cf 91       	pop	r28
    4714:	1f 91       	pop	r17
    4716:	0f 91       	pop	r16
    4718:	08 95       	ret

0000471a <sprintf>:
    471a:	ae e0       	ldi	r26, 0x0E	; 14
    471c:	b0 e0       	ldi	r27, 0x00	; 0
    471e:	e3 e9       	ldi	r30, 0x93	; 147
    4720:	f3 e2       	ldi	r31, 0x23	; 35
    4722:	0c 94 ad 21 	jmp	0x435a	; 0x435a <__prologue_saves__+0x1c>
    4726:	0d 89       	ldd	r16, Y+21	; 0x15
    4728:	1e 89       	ldd	r17, Y+22	; 0x16
    472a:	86 e0       	ldi	r24, 0x06	; 6
    472c:	8c 83       	std	Y+4, r24	; 0x04
    472e:	09 83       	std	Y+1, r16	; 0x01
    4730:	1a 83       	std	Y+2, r17	; 0x02
    4732:	8f ef       	ldi	r24, 0xFF	; 255
    4734:	9f e7       	ldi	r25, 0x7F	; 127
    4736:	8d 83       	std	Y+5, r24	; 0x05
    4738:	9e 83       	std	Y+6, r25	; 0x06
    473a:	ae 01       	movw	r20, r28
    473c:	47 5e       	subi	r20, 0xE7	; 231
    473e:	5f 4f       	sbci	r21, 0xFF	; 255
    4740:	6f 89       	ldd	r22, Y+23	; 0x17
    4742:	78 8d       	ldd	r23, Y+24	; 0x18
    4744:	ce 01       	movw	r24, r28
    4746:	01 96       	adiw	r24, 0x01	; 1
    4748:	0e 94 de 1d 	call	0x3bbc	; 0x3bbc <vfprintf>
    474c:	ef 81       	ldd	r30, Y+7	; 0x07
    474e:	f8 85       	ldd	r31, Y+8	; 0x08
    4750:	e0 0f       	add	r30, r16
    4752:	f1 1f       	adc	r31, r17
    4754:	10 82       	st	Z, r1
    4756:	2e 96       	adiw	r28, 0x0e	; 14
    4758:	e4 e0       	ldi	r30, 0x04	; 4
    475a:	0c 94 c6 21 	jmp	0x438c	; 0x438c <__epilogue_restores__+0x1c>

0000475e <__ultoa_invert>:
    475e:	fa 01       	movw	r30, r20
    4760:	aa 27       	eor	r26, r26
    4762:	28 30       	cpi	r18, 0x08	; 8
    4764:	51 f1       	breq	.+84     	; 0x47ba <__ultoa_invert+0x5c>
    4766:	20 31       	cpi	r18, 0x10	; 16
    4768:	81 f1       	breq	.+96     	; 0x47ca <__ultoa_invert+0x6c>
    476a:	e8 94       	clt
    476c:	6f 93       	push	r22
    476e:	6e 7f       	andi	r22, 0xFE	; 254
    4770:	6e 5f       	subi	r22, 0xFE	; 254
    4772:	7f 4f       	sbci	r23, 0xFF	; 255
    4774:	8f 4f       	sbci	r24, 0xFF	; 255
    4776:	9f 4f       	sbci	r25, 0xFF	; 255
    4778:	af 4f       	sbci	r26, 0xFF	; 255
    477a:	b1 e0       	ldi	r27, 0x01	; 1
    477c:	3e d0       	rcall	.+124    	; 0x47fa <__ultoa_invert+0x9c>
    477e:	b4 e0       	ldi	r27, 0x04	; 4
    4780:	3c d0       	rcall	.+120    	; 0x47fa <__ultoa_invert+0x9c>
    4782:	67 0f       	add	r22, r23
    4784:	78 1f       	adc	r23, r24
    4786:	89 1f       	adc	r24, r25
    4788:	9a 1f       	adc	r25, r26
    478a:	a1 1d       	adc	r26, r1
    478c:	68 0f       	add	r22, r24
    478e:	79 1f       	adc	r23, r25
    4790:	8a 1f       	adc	r24, r26
    4792:	91 1d       	adc	r25, r1
    4794:	a1 1d       	adc	r26, r1
    4796:	6a 0f       	add	r22, r26
    4798:	71 1d       	adc	r23, r1
    479a:	81 1d       	adc	r24, r1
    479c:	91 1d       	adc	r25, r1
    479e:	a1 1d       	adc	r26, r1
    47a0:	20 d0       	rcall	.+64     	; 0x47e2 <__ultoa_invert+0x84>
    47a2:	09 f4       	brne	.+2      	; 0x47a6 <__ultoa_invert+0x48>
    47a4:	68 94       	set
    47a6:	3f 91       	pop	r19
    47a8:	2a e0       	ldi	r18, 0x0A	; 10
    47aa:	26 9f       	mul	r18, r22
    47ac:	11 24       	eor	r1, r1
    47ae:	30 19       	sub	r19, r0
    47b0:	30 5d       	subi	r19, 0xD0	; 208
    47b2:	31 93       	st	Z+, r19
    47b4:	de f6       	brtc	.-74     	; 0x476c <__ultoa_invert+0xe>
    47b6:	cf 01       	movw	r24, r30
    47b8:	08 95       	ret
    47ba:	46 2f       	mov	r20, r22
    47bc:	47 70       	andi	r20, 0x07	; 7
    47be:	40 5d       	subi	r20, 0xD0	; 208
    47c0:	41 93       	st	Z+, r20
    47c2:	b3 e0       	ldi	r27, 0x03	; 3
    47c4:	0f d0       	rcall	.+30     	; 0x47e4 <__ultoa_invert+0x86>
    47c6:	c9 f7       	brne	.-14     	; 0x47ba <__ultoa_invert+0x5c>
    47c8:	f6 cf       	rjmp	.-20     	; 0x47b6 <__ultoa_invert+0x58>
    47ca:	46 2f       	mov	r20, r22
    47cc:	4f 70       	andi	r20, 0x0F	; 15
    47ce:	40 5d       	subi	r20, 0xD0	; 208
    47d0:	4a 33       	cpi	r20, 0x3A	; 58
    47d2:	18 f0       	brcs	.+6      	; 0x47da <__ultoa_invert+0x7c>
    47d4:	49 5d       	subi	r20, 0xD9	; 217
    47d6:	31 fd       	sbrc	r19, 1
    47d8:	40 52       	subi	r20, 0x20	; 32
    47da:	41 93       	st	Z+, r20
    47dc:	02 d0       	rcall	.+4      	; 0x47e2 <__ultoa_invert+0x84>
    47de:	a9 f7       	brne	.-22     	; 0x47ca <__ultoa_invert+0x6c>
    47e0:	ea cf       	rjmp	.-44     	; 0x47b6 <__ultoa_invert+0x58>
    47e2:	b4 e0       	ldi	r27, 0x04	; 4
    47e4:	a6 95       	lsr	r26
    47e6:	97 95       	ror	r25
    47e8:	87 95       	ror	r24
    47ea:	77 95       	ror	r23
    47ec:	67 95       	ror	r22
    47ee:	ba 95       	dec	r27
    47f0:	c9 f7       	brne	.-14     	; 0x47e4 <__ultoa_invert+0x86>
    47f2:	00 97       	sbiw	r24, 0x00	; 0
    47f4:	61 05       	cpc	r22, r1
    47f6:	71 05       	cpc	r23, r1
    47f8:	08 95       	ret
    47fa:	9b 01       	movw	r18, r22
    47fc:	ac 01       	movw	r20, r24
    47fe:	0a 2e       	mov	r0, r26
    4800:	06 94       	lsr	r0
    4802:	57 95       	ror	r21
    4804:	47 95       	ror	r20
    4806:	37 95       	ror	r19
    4808:	27 95       	ror	r18
    480a:	ba 95       	dec	r27
    480c:	c9 f7       	brne	.-14     	; 0x4800 <__ultoa_invert+0xa2>
    480e:	62 0f       	add	r22, r18
    4810:	73 1f       	adc	r23, r19
    4812:	84 1f       	adc	r24, r20
    4814:	95 1f       	adc	r25, r21
    4816:	a0 1d       	adc	r26, r0
    4818:	08 95       	ret

0000481a <eeprom_read_block>:
    481a:	60 50       	subi	r22, 0x00	; 0
    481c:	7c 4e       	sbci	r23, 0xEC	; 236
    481e:	0c 94 48 24 	jmp	0x4890	; 0x4890 <memcpy>

00004822 <eeprom_update_block>:
    4822:	dc 01       	movw	r26, r24
    4824:	a4 0f       	add	r26, r20
    4826:	b5 1f       	adc	r27, r21
    4828:	41 50       	subi	r20, 0x01	; 1
    482a:	50 40       	sbci	r21, 0x00	; 0
    482c:	48 f0       	brcs	.+18     	; 0x4840 <eeprom_update_block+0x1e>
    482e:	cb 01       	movw	r24, r22
    4830:	84 0f       	add	r24, r20
    4832:	95 1f       	adc	r25, r21
    4834:	2e 91       	ld	r18, -X
    4836:	0e 94 22 24 	call	0x4844	; 0x4844 <eeprom_update_r18>
    483a:	41 50       	subi	r20, 0x01	; 1
    483c:	50 40       	sbci	r21, 0x00	; 0
    483e:	d0 f7       	brcc	.-12     	; 0x4834 <eeprom_update_block+0x12>
    4840:	08 95       	ret

00004842 <eeprom_update_byte>:
    4842:	26 2f       	mov	r18, r22

00004844 <eeprom_update_r18>:
    4844:	0e 94 44 24 	call	0x4888	; 0x4888 <eeprom_mapen>
    4848:	00 80       	ld	r0, Z
    484a:	02 16       	cp	r0, r18
    484c:	19 f0       	breq	.+6      	; 0x4854 <eeprom_update_r18+0x10>
    484e:	0e 94 2d 24 	call	0x485a	; 0x485a <eeprom_write_r18>
    4852:	01 97       	sbiw	r24, 0x01	; 1
    4854:	01 97       	sbiw	r24, 0x01	; 1
    4856:	08 95       	ret

00004858 <eeprom_write_byte>:
    4858:	26 2f       	mov	r18, r22

0000485a <eeprom_write_r18>:
    485a:	af 93       	push	r26
    485c:	bf 93       	push	r27
    485e:	e0 e0       	ldi	r30, 0x00	; 0
    4860:	f0 e1       	ldi	r31, 0x10	; 16
    4862:	32 81       	ldd	r19, Z+2	; 0x02
    4864:	31 fd       	sbrc	r19, 1
    4866:	fd cf       	rjmp	.-6      	; 0x4862 <eeprom_write_r18+0x8>
    4868:	dc 01       	movw	r26, r24
    486a:	a0 50       	subi	r26, 0x00	; 0
    486c:	bc 4e       	sbci	r27, 0xEC	; 236
    486e:	2c 93       	st	X, r18
    4870:	2d e9       	ldi	r18, 0x9D	; 157
    4872:	24 bf       	out	0x34, r18	; 52
    4874:	23 e0       	ldi	r18, 0x03	; 3
    4876:	20 83       	st	Z, r18
    4878:	01 96       	adiw	r24, 0x01	; 1
    487a:	bf 91       	pop	r27
    487c:	af 91       	pop	r26
    487e:	08 95       	ret

00004880 <eeprom_read_byte>:
    4880:	03 d0       	rcall	.+6      	; 0x4888 <eeprom_mapen>
    4882:	80 81       	ld	r24, Z
    4884:	99 27       	eor	r25, r25
    4886:	08 95       	ret

00004888 <eeprom_mapen>:
    4888:	fc 01       	movw	r30, r24
    488a:	e0 50       	subi	r30, 0x00	; 0
    488c:	fc 4e       	sbci	r31, 0xEC	; 236
    488e:	08 95       	ret

00004890 <memcpy>:
    4890:	fb 01       	movw	r30, r22
    4892:	dc 01       	movw	r26, r24
    4894:	02 c0       	rjmp	.+4      	; 0x489a <memcpy+0xa>
    4896:	01 90       	ld	r0, Z+
    4898:	0d 92       	st	X+, r0
    489a:	41 50       	subi	r20, 0x01	; 1
    489c:	50 40       	sbci	r21, 0x00	; 0
    489e:	d8 f7       	brcc	.-10     	; 0x4896 <memcpy+0x6>
    48a0:	08 95       	ret

000048a2 <_exit>:
    48a2:	f8 94       	cli

000048a4 <__stop_program>:
    48a4:	ff cf       	rjmp	.-2      	; 0x48a4 <__stop_program>
